ARM GAS  C:\Users\Nick\AppData\Local\Temp\ccmuPAvR.s 			page 1


   1              		.cpu cortex-m0
   2              		.fpu softvfp
   3              		.eabi_attribute 20, 1
   4              		.eabi_attribute 21, 1
   5              		.eabi_attribute 23, 3
   6              		.eabi_attribute 24, 1
   7              		.eabi_attribute 25, 1
   8              		.eabi_attribute 26, 1
   9              		.eabi_attribute 30, 1
  10              		.eabi_attribute 34, 0
  11              		.eabi_attribute 18, 4
  12              		.code	16
  13              		.file	"CyBLE.c"
  14              		.text
  15              	.Ltext0:
  16              		.cfi_sections	.debug_frame
  17              		.section	.text.CyBle_ChangeAdLocalName,"ax",%progbits
  18              		.align	2
  19              		.code	16
  20              		.thumb_func
  21              		.type	CyBle_ChangeAdLocalName, %function
  22              	CyBle_ChangeAdLocalName:
  23              	.LFB9:
  24              		.file 1 "Generated_Source\\PSoC4\\CyBLE.c"
   1:Generated_Source\PSoC4/CyBLE.c **** /***************************************************************************//**
   2:Generated_Source\PSoC4/CyBLE.c **** * \file CYBLE.c
   3:Generated_Source\PSoC4/CyBLE.c **** * \version 3.10
   4:Generated_Source\PSoC4/CyBLE.c **** * 
   5:Generated_Source\PSoC4/CyBLE.c **** * \brief
   6:Generated_Source\PSoC4/CyBLE.c **** *  This file contains the source code for the Common APIs of the BLE Component.
   7:Generated_Source\PSoC4/CyBLE.c **** * 
   8:Generated_Source\PSoC4/CyBLE.c **** ********************************************************************************
   9:Generated_Source\PSoC4/CyBLE.c **** * \copyright
  10:Generated_Source\PSoC4/CyBLE.c **** * Copyright 2014-2016, Cypress Semiconductor Corporation.  All rights reserved.
  11:Generated_Source\PSoC4/CyBLE.c **** * You may use this file only in accordance with the license, terms, conditions,
  12:Generated_Source\PSoC4/CyBLE.c **** * disclaimers, and limitations in the end user license agreement accompanying
  13:Generated_Source\PSoC4/CyBLE.c **** * the software package with which this file was provided.
  14:Generated_Source\PSoC4/CyBLE.c **** *******************************************************************************/
  15:Generated_Source\PSoC4/CyBLE.c **** 
  16:Generated_Source\PSoC4/CyBLE.c **** #include "CyBLE_eventHandler.h"
  17:Generated_Source\PSoC4/CyBLE.c **** #include "CyBLE_HAL_PVT.h"
  18:Generated_Source\PSoC4/CyBLE.c **** #include <stdlib.h>
  19:Generated_Source\PSoC4/CyBLE.c **** 
  20:Generated_Source\PSoC4/CyBLE.c **** 
  21:Generated_Source\PSoC4/CyBLE.c **** /***************************************
  22:Generated_Source\PSoC4/CyBLE.c **** * Function Prototypes
  23:Generated_Source\PSoC4/CyBLE.c **** ***************************************/
  24:Generated_Source\PSoC4/CyBLE.c **** 
  25:Generated_Source\PSoC4/CyBLE.c **** #if(CYBLE_GATT_ROLE_SERVER)
  26:Generated_Source\PSoC4/CyBLE.c ****     #if(CYBLE_GAP_ROLE_PERIPHERAL)
  27:Generated_Source\PSoC4/CyBLE.c ****         static void CyBle_ChangeAdLocalName(const char8 name[], uint8 dest);
  28:Generated_Source\PSoC4/CyBLE.c ****     #endif /* (CYBLE_GAP_ROLE_PERIPHERAL) */
  29:Generated_Source\PSoC4/CyBLE.c **** #endif /* (CYBLE_GATT_ROLE_SERVER) */
  30:Generated_Source\PSoC4/CyBLE.c ****     
  31:Generated_Source\PSoC4/CyBLE.c **** 
  32:Generated_Source\PSoC4/CyBLE.c **** /***************************************
  33:Generated_Source\PSoC4/CyBLE.c **** * Global Variables
ARM GAS  C:\Users\Nick\AppData\Local\Temp\ccmuPAvR.s 			page 2


  34:Generated_Source\PSoC4/CyBLE.c **** ***************************************/
  35:Generated_Source\PSoC4/CyBLE.c **** 
  36:Generated_Source\PSoC4/CyBLE.c **** /* Indicates whether the BLE has been initialized. The variable is initialized to
  37:Generated_Source\PSoC4/CyBLE.c ****    0 and set to 1 the first time CyBle_Start() is called. This allows the component
  38:Generated_Source\PSoC4/CyBLE.c ****    to restart without reinitialization after the first call to the CyBle_Start() 
  39:Generated_Source\PSoC4/CyBLE.c ****    routine. If reinitialization of the component is required, the variable should 
  40:Generated_Source\PSoC4/CyBLE.c ****    be set to 0 before the CyBle_Start() routine is called. Alternatively, the BLE
  41:Generated_Source\PSoC4/CyBLE.c ****    can be reinitialized by calling the CyBle_Init() function.
  42:Generated_Source\PSoC4/CyBLE.c **** */
  43:Generated_Source\PSoC4/CyBLE.c **** uint8  cyBle_initVar = 0u;
  44:Generated_Source\PSoC4/CyBLE.c **** 
  45:Generated_Source\PSoC4/CyBLE.c **** /* Allocate RAM memory for stack. This buffer could be reused by application when 
  46:Generated_Source\PSoC4/CyBLE.c ****    BLE component is stopped. For export mode buffer is allocated in heap.
  47:Generated_Source\PSoC4/CyBLE.c **** */
  48:Generated_Source\PSoC4/CyBLE.c **** #if(CYBLE_SHARING_MODE_EXPORT)
  49:Generated_Source\PSoC4/CyBLE.c ****     
  50:Generated_Source\PSoC4/CyBLE.c **** uint8 *cyBle_stackMemoryRam = NULL;
  51:Generated_Source\PSoC4/CyBLE.c **** 
  52:Generated_Source\PSoC4/CyBLE.c **** #else
  53:Generated_Source\PSoC4/CyBLE.c **** 
  54:Generated_Source\PSoC4/CyBLE.c **** CYBLE_CYALIGNED_BEGIN CY_NOINIT uint8 cyBle_stackMemoryRam[CYBLE_STACK_RAM_SIZE] CYBLE_CYALIGNED_EN
  55:Generated_Source\PSoC4/CyBLE.c **** 
  56:Generated_Source\PSoC4/CyBLE.c **** #endif  /* CYBLE_SHARING_MODE_EXPORT */
  57:Generated_Source\PSoC4/CyBLE.c **** 
  58:Generated_Source\PSoC4/CyBLE.c **** #if(CYBLE_GAP_ROLE_PERIPHERAL || CYBLE_GAP_ROLE_BROADCASTER)
  59:Generated_Source\PSoC4/CyBLE.c **** 
  60:Generated_Source\PSoC4/CyBLE.c **** CYBLE_GAPP_DISC_PARAM_T cyBle_discoveryParam =
  61:Generated_Source\PSoC4/CyBLE.c **** {
  62:Generated_Source\PSoC4/CyBLE.c ****     0x0020u,    /* uint16 advertising_interval_min */
  63:Generated_Source\PSoC4/CyBLE.c ****     0x0030u,    /* uint16 advertising_interval_max */
  64:Generated_Source\PSoC4/CyBLE.c ****     CYBLE_GAPP_CONNECTABLE_UNDIRECTED_ADV, /* uint8 advertising_type */
  65:Generated_Source\PSoC4/CyBLE.c ****     0x00u,      /* uint8 own_addr_type */
  66:Generated_Source\PSoC4/CyBLE.c ****     0x00u,      /* uint8 direct_addr_type */
  67:Generated_Source\PSoC4/CyBLE.c ****     {0x00u, 0x00u, 0x00u, 0x50u, 0xA0u, 0x00u}, /* uint8* direct_addr */
  68:Generated_Source\PSoC4/CyBLE.c ****     0x07u,      /* uint8 advertising_channel_map */
  69:Generated_Source\PSoC4/CyBLE.c ****     0x00u,      /* uint8 advertising_filter_policy */
  70:Generated_Source\PSoC4/CyBLE.c **** };
  71:Generated_Source\PSoC4/CyBLE.c **** 
  72:Generated_Source\PSoC4/CyBLE.c **** CYBLE_GAPP_DISC_DATA_T cyBle_discoveryData =
  73:Generated_Source\PSoC4/CyBLE.c **** {
  74:Generated_Source\PSoC4/CyBLE.c ****     { 0x02u, 0x01u, 0x06u, 0x04u, 0x09u, 0x4Fu, 0x54u,
  75:Generated_Source\PSoC4/CyBLE.c ****     0x41u, 0x11u, 0x06u, 0xF0u, 0x34u, 0x9Bu, 0x5Fu, 0x80u,
  76:Generated_Source\PSoC4/CyBLE.c ****     0x00u, 0x00u, 0x80u, 0x00u, 0x10u, 0x00u, 0x00u, 0x00u,
  77:Generated_Source\PSoC4/CyBLE.c ****     0x00u, 0x00u, 0x00u, 0x00u, 0x00u, 0x00u, 0x00u, 0x00u }, /* uint8 advertising_data[CYBLE_MAX_A
  78:Generated_Source\PSoC4/CyBLE.c ****     0x1Au,      /* uint8 adv_data_length */
  79:Generated_Source\PSoC4/CyBLE.c **** };
  80:Generated_Source\PSoC4/CyBLE.c **** 
  81:Generated_Source\PSoC4/CyBLE.c **** CYBLE_GAPP_SCAN_RSP_DATA_T cyBle_scanRspData =
  82:Generated_Source\PSoC4/CyBLE.c **** {
  83:Generated_Source\PSoC4/CyBLE.c ****     { 0x00u, 0x00u, 0x00u, 0x00u, 0x00u, 0x00u, 0x00u,
  84:Generated_Source\PSoC4/CyBLE.c ****     0x00u, 0x00u, 0x00u, 0x00u, 0x00u, 0x00u, 0x00u, 0x00u,
  85:Generated_Source\PSoC4/CyBLE.c ****     0x00u, 0x00u, 0x00u, 0x00u, 0x00u, 0x00u, 0x00u, 0x00u,
  86:Generated_Source\PSoC4/CyBLE.c ****     0x00u, 0x00u, 0x00u, 0x00u, 0x00u, 0x00u, 0x00u, 0x00u }, /* uint8 scan_rsp_data[CYBLE_MAX_SCAN
  87:Generated_Source\PSoC4/CyBLE.c ****     0x00u,      /* uint8 scan_rsp_data_length */
  88:Generated_Source\PSoC4/CyBLE.c **** };
  89:Generated_Source\PSoC4/CyBLE.c **** 
  90:Generated_Source\PSoC4/CyBLE.c **** /* This variable of type CYBLE_GAPP_DISC_MODE_INFO_T is present only when 
ARM GAS  C:\Users\Nick\AppData\Local\Temp\ccmuPAvR.s 			page 3


  91:Generated_Source\PSoC4/CyBLE.c ****    the BLE component is configured for Peripheral GAP role or Central and 
  92:Generated_Source\PSoC4/CyBLE.c ****    Peripheral GAP role. It contains the Advertisement settings and also the 
  93:Generated_Source\PSoC4/CyBLE.c ****    Advertisement and Scan response data parameters entered in the customizer.
  94:Generated_Source\PSoC4/CyBLE.c ****    This variable can be used by advanced users to change Advertisement settings,
  95:Generated_Source\PSoC4/CyBLE.c ****    Advertisement or Scan response data in runtime. 
  96:Generated_Source\PSoC4/CyBLE.c **** */
  97:Generated_Source\PSoC4/CyBLE.c **** CYBLE_GAPP_DISC_MODE_INFO_T cyBle_discoveryModeInfo =
  98:Generated_Source\PSoC4/CyBLE.c **** {
  99:Generated_Source\PSoC4/CyBLE.c ****     0x02u,      /* uint8 discMode */
 100:Generated_Source\PSoC4/CyBLE.c ****     &cyBle_discoveryParam,
 101:Generated_Source\PSoC4/CyBLE.c ****     &cyBle_discoveryData,
 102:Generated_Source\PSoC4/CyBLE.c ****     &cyBle_scanRspData,
 103:Generated_Source\PSoC4/CyBLE.c ****     0x0000u,    /* uint16 advTo */
 104:Generated_Source\PSoC4/CyBLE.c **** };
 105:Generated_Source\PSoC4/CyBLE.c **** 
 106:Generated_Source\PSoC4/CyBLE.c **** 
 107:Generated_Source\PSoC4/CyBLE.c **** #endif /* CYBLE_GAP_ROLE_PERIPHERAL || CYBLE_GAP_ROLE_BROADCASTER */
 108:Generated_Source\PSoC4/CyBLE.c **** 
 109:Generated_Source\PSoC4/CyBLE.c **** #if(CYBLE_GAP_ROLE_CENTRAL)
 110:Generated_Source\PSoC4/CyBLE.c ****     
 111:Generated_Source\PSoC4/CyBLE.c **** CYBLE_GAPC_CONN_PARAM_T cyBle_connectionParameters;
 112:Generated_Source\PSoC4/CyBLE.c **** 
 113:Generated_Source\PSoC4/CyBLE.c **** /* Connecting timeout is set to 30 seconds in CyBle_Init function. 
 114:Generated_Source\PSoC4/CyBLE.c ****    Not zero value starts timer in CyBle_GapcConnectDevice API.
 115:Generated_Source\PSoC4/CyBLE.c **** */
 116:Generated_Source\PSoC4/CyBLE.c **** uint16 cyBle_connectingTimeout;
 117:Generated_Source\PSoC4/CyBLE.c ****     
 118:Generated_Source\PSoC4/CyBLE.c **** #endif /* CYBLE_GAP_ROLE_CENTRAL */
 119:Generated_Source\PSoC4/CyBLE.c **** 
 120:Generated_Source\PSoC4/CyBLE.c **** #if(CYBLE_GAP_ROLE_CENTRAL || CYBLE_GAP_ROLE_OBSERVER)
 121:Generated_Source\PSoC4/CyBLE.c ****     
 122:Generated_Source\PSoC4/CyBLE.c **** 
 123:Generated_Source\PSoC4/CyBLE.c ****     
 124:Generated_Source\PSoC4/CyBLE.c **** #endif /* CYBLE_GAP_ROLE_CENTRAL || CYBLE_GAP_ROLE_OBSERVER */
 125:Generated_Source\PSoC4/CyBLE.c **** 
 126:Generated_Source\PSoC4/CyBLE.c **** #if((CYBLE_GAP_ROLE_PERIPHERAL || CYBLE_GAP_ROLE_CENTRAL) && (CYBLE_BONDING_REQUIREMENT == CYBLE_BO
 127:Generated_Source\PSoC4/CyBLE.c **** 
 128:Generated_Source\PSoC4/CyBLE.c **** uint8 cyBle_peerBonding;
 129:Generated_Source\PSoC4/CyBLE.c **** uint8 cyBle_pendingFlashWrite;
 130:Generated_Source\PSoC4/CyBLE.c ****     
 131:Generated_Source\PSoC4/CyBLE.c **** #if(CYBLE_GATT_DB_CCCD_COUNT != 0u)
 132:Generated_Source\PSoC4/CyBLE.c ****     static uint8 cyBle_pendingFlashClearCccdHandle;
 133:Generated_Source\PSoC4/CyBLE.c **** #endif /* CYBLE_GATT_DB_CCCD_COUNT != 0u */
 134:Generated_Source\PSoC4/CyBLE.c ****     
 135:Generated_Source\PSoC4/CyBLE.c **** #endif  /* (CYBLE_BONDING_REQUIREMENT == CYBLE_BONDING_YES) */
 136:Generated_Source\PSoC4/CyBLE.c **** 
 137:Generated_Source\PSoC4/CyBLE.c **** CYBLE_CALLBACK_T CyBle_ApplCallback;
 138:Generated_Source\PSoC4/CyBLE.c **** CYBLE_GAP_BD_ADDR_T cyBle_deviceAddress = {{0x00u, 0x00u, 0x00u, 0x50u, 0xA0u, 0x00u}, 0x00u };
 139:Generated_Source\PSoC4/CyBLE.c **** CYBLE_GAP_BD_ADDR_T * cyBle_sflashDeviceAddress = CYBLE_SFLASH_DEVICE_ADDRESS_PTR;
 140:Generated_Source\PSoC4/CyBLE.c **** 
 141:Generated_Source\PSoC4/CyBLE.c **** 
 142:Generated_Source\PSoC4/CyBLE.c **** /******************************************************************************
 143:Generated_Source\PSoC4/CyBLE.c **** * Function Name: CyBle_Init
 144:Generated_Source\PSoC4/CyBLE.c **** ***************************************************************************//**
 145:Generated_Source\PSoC4/CyBLE.c **** *
 146:Generated_Source\PSoC4/CyBLE.c **** *   Initializes the component with the parameters set in the customizer.
 147:Generated_Source\PSoC4/CyBLE.c **** * 
ARM GAS  C:\Users\Nick\AppData\Local\Temp\ccmuPAvR.s 			page 4


 148:Generated_Source\PSoC4/CyBLE.c **** *  \return
 149:Generated_Source\PSoC4/CyBLE.c **** *   None
 150:Generated_Source\PSoC4/CyBLE.c **** * 
 151:Generated_Source\PSoC4/CyBLE.c **** ******************************************************************************/
 152:Generated_Source\PSoC4/CyBLE.c **** void CyBle_Init(void)
 153:Generated_Source\PSoC4/CyBLE.c **** {
 154:Generated_Source\PSoC4/CyBLE.c ****     cyBle_eventHandlerFlag = 0u;
 155:Generated_Source\PSoC4/CyBLE.c ****     cyBle_busyStatus = CYBLE_STACK_STATE_FREE;
 156:Generated_Source\PSoC4/CyBLE.c **** 
 157:Generated_Source\PSoC4/CyBLE.c ****     #if(CYBLE_GAP_ROLE_PERIPHERAL || CYBLE_GAP_ROLE_BROADCASTER) 
 158:Generated_Source\PSoC4/CyBLE.c ****         cyBle_advertisingIntervalType = CYBLE_ADVERTISING_FAST; 
 159:Generated_Source\PSoC4/CyBLE.c ****     #endif /* (CYBLE_GAP_ROLE_PERIPHERAL || CYBLE_GAP_ROLE_BROADCASTER)  */
 160:Generated_Source\PSoC4/CyBLE.c ****     #if(CYBLE_GAP_ROLE_CENTRAL || CYBLE_GAP_ROLE_OBSERVER)
 161:Generated_Source\PSoC4/CyBLE.c ****         cyBle_scanningIntervalType = CYBLE_SCANNING_FAST; 
 162:Generated_Source\PSoC4/CyBLE.c ****     #endif /* (CYBLE_GAP_ROLE_CENTRAL || CYBLE_GAP_ROLE_OBSERVER) */
 163:Generated_Source\PSoC4/CyBLE.c ****         
 164:Generated_Source\PSoC4/CyBLE.c ****     /* Init default connection parameters. 
 165:Generated_Source\PSoC4/CyBLE.c ****        Application may change it before initiating a connection */
 166:Generated_Source\PSoC4/CyBLE.c ****     #if(CYBLE_GAP_ROLE_CENTRAL)
 167:Generated_Source\PSoC4/CyBLE.c ****         cyBle_connectionParameters.scanIntv = cyBle_discoveryInfo.scanIntv;
 168:Generated_Source\PSoC4/CyBLE.c ****         cyBle_connectionParameters.scanWindow = cyBle_discoveryInfo.scanWindow;
 169:Generated_Source\PSoC4/CyBLE.c ****         cyBle_connectionParameters.ownAddrType = cyBle_discoveryInfo.ownAddrType;
 170:Generated_Source\PSoC4/CyBLE.c ****         cyBle_connectionParameters.initiatorFilterPolicy = cyBle_discoveryInfo.scanFilterPolicy;
 171:Generated_Source\PSoC4/CyBLE.c ****         cyBle_connectionParameters.connIntvMin = CYBLE_GAPC_CONNECTION_INTERVAL_MIN;
 172:Generated_Source\PSoC4/CyBLE.c ****         cyBle_connectionParameters.connIntvMax = CYBLE_GAPC_CONNECTION_INTERVAL_MAX;
 173:Generated_Source\PSoC4/CyBLE.c ****         cyBle_connectionParameters.connLatency = CYBLE_GAPC_CONNECTION_SLAVE_LATENCY;
 174:Generated_Source\PSoC4/CyBLE.c ****         cyBle_connectionParameters.supervisionTO = CYBLE_GAPC_CONNECTION_TIME_OUT;
 175:Generated_Source\PSoC4/CyBLE.c ****         cyBle_connectionParameters.minCeLength = 0x0000u;
 176:Generated_Source\PSoC4/CyBLE.c ****         cyBle_connectionParameters.maxCeLength = 0xFFFFu;
 177:Generated_Source\PSoC4/CyBLE.c ****         
 178:Generated_Source\PSoC4/CyBLE.c ****         cyBle_connectingTimeout = CYBLE_GAPC_CONNECTING_TIMEOUT;
 179:Generated_Source\PSoC4/CyBLE.c ****     #endif /* CYBLE_GAP_ROLE_CENTRAL */
 180:Generated_Source\PSoC4/CyBLE.c **** 
 181:Generated_Source\PSoC4/CyBLE.c ****     CyBle_ServiceInit();
 182:Generated_Source\PSoC4/CyBLE.c **** 
 183:Generated_Source\PSoC4/CyBLE.c ****     #if((CYBLE_GAP_ROLE_PERIPHERAL || CYBLE_GAP_ROLE_CENTRAL) && (CYBLE_BONDING_REQUIREMENT == CYBL
 184:Generated_Source\PSoC4/CyBLE.c ****         cyBle_pendingFlashWrite = 0u;
 185:Generated_Source\PSoC4/CyBLE.c ****         cyBle_peerBonding = CYBLE_GAP_BONDING_NONE;
 186:Generated_Source\PSoC4/CyBLE.c ****     #endif  /* (CYBLE_BONDING_REQUIREMENT == CYBLE_BONDING_YES) */
 187:Generated_Source\PSoC4/CyBLE.c **** 
 188:Generated_Source\PSoC4/CyBLE.c **** }
 189:Generated_Source\PSoC4/CyBLE.c **** 
 190:Generated_Source\PSoC4/CyBLE.c **** 
 191:Generated_Source\PSoC4/CyBLE.c **** /******************************************************************************
 192:Generated_Source\PSoC4/CyBLE.c **** * Function Name: CyBle_ServiceInit
 193:Generated_Source\PSoC4/CyBLE.c **** ***************************************************************************//**
 194:Generated_Source\PSoC4/CyBLE.c **** * 
 195:Generated_Source\PSoC4/CyBLE.c **** *  Initializes all included services.
 196:Generated_Source\PSoC4/CyBLE.c **** * 
 197:Generated_Source\PSoC4/CyBLE.c **** * \return
 198:Generated_Source\PSoC4/CyBLE.c **** *  None
 199:Generated_Source\PSoC4/CyBLE.c **** * 
 200:Generated_Source\PSoC4/CyBLE.c **** ******************************************************************************/
 201:Generated_Source\PSoC4/CyBLE.c **** void CyBle_ServiceInit(void)
 202:Generated_Source\PSoC4/CyBLE.c **** {
 203:Generated_Source\PSoC4/CyBLE.c ****     #if(CYBLE_GATT_ROLE_CLIENT)
 204:Generated_Source\PSoC4/CyBLE.c ****         /* Check service range before clearing to support partial discovery */
ARM GAS  C:\Users\Nick\AppData\Local\Temp\ccmuPAvR.s 			page 5


 205:Generated_Source\PSoC4/CyBLE.c ****         if(cyBle_serverInfo[CYBLE_SRVI_GAP].range.startHandle == CYBLE_GATT_INVALID_ATTR_HANDLE_VAL
 206:Generated_Source\PSoC4/CyBLE.c ****         {
 207:Generated_Source\PSoC4/CyBLE.c ****             (void)memset(&cyBle_gapc, 0, sizeof(cyBle_gapc));
 208:Generated_Source\PSoC4/CyBLE.c ****         }
 209:Generated_Source\PSoC4/CyBLE.c ****         if(cyBle_serverInfo[CYBLE_SRVI_GATT].range.startHandle == CYBLE_GATT_INVALID_ATTR_HANDLE_VA
 210:Generated_Source\PSoC4/CyBLE.c ****         {
 211:Generated_Source\PSoC4/CyBLE.c ****             (void)memset(&cyBle_gattc, 0, sizeof(cyBle_gattc));
 212:Generated_Source\PSoC4/CyBLE.c ****         }
 213:Generated_Source\PSoC4/CyBLE.c ****     #endif /* CYBLE_GATT_ROLE_CLIENT */
 214:Generated_Source\PSoC4/CyBLE.c ****     
 215:Generated_Source\PSoC4/CyBLE.c **** 	#ifdef CYBLE_ANCS
 216:Generated_Source\PSoC4/CyBLE.c ****         CyBle_AncsInit();
 217:Generated_Source\PSoC4/CyBLE.c ****     #endif /* CYBLE_ANCS */
 218:Generated_Source\PSoC4/CyBLE.c **** 	
 219:Generated_Source\PSoC4/CyBLE.c ****     #ifdef CYBLE_ANS
 220:Generated_Source\PSoC4/CyBLE.c ****         CyBle_AnsInit();
 221:Generated_Source\PSoC4/CyBLE.c ****     #endif /* CYBLE_ANS */
 222:Generated_Source\PSoC4/CyBLE.c ****     
 223:Generated_Source\PSoC4/CyBLE.c ****     #ifdef CYBLE_BAS
 224:Generated_Source\PSoC4/CyBLE.c ****         CyBle_BasInit();
 225:Generated_Source\PSoC4/CyBLE.c ****     #endif /* CYBLE_BAS */
 226:Generated_Source\PSoC4/CyBLE.c ****     
 227:Generated_Source\PSoC4/CyBLE.c ****     #ifdef CYBLE_BCS
 228:Generated_Source\PSoC4/CyBLE.c ****         CyBle_BcsInit();
 229:Generated_Source\PSoC4/CyBLE.c ****     #endif /* CYBLE_BCS */
 230:Generated_Source\PSoC4/CyBLE.c **** 
 231:Generated_Source\PSoC4/CyBLE.c ****     #ifdef CYBLE_BLS
 232:Generated_Source\PSoC4/CyBLE.c ****         CyBle_BlsInit();
 233:Generated_Source\PSoC4/CyBLE.c ****     #endif /* CYBLE_BLS */
 234:Generated_Source\PSoC4/CyBLE.c ****     
 235:Generated_Source\PSoC4/CyBLE.c ****     #ifdef CYBLE_BMS
 236:Generated_Source\PSoC4/CyBLE.c ****         CyBle_BmsInit();
 237:Generated_Source\PSoC4/CyBLE.c ****     #endif /* CYBLE_BMS */
 238:Generated_Source\PSoC4/CyBLE.c ****     
 239:Generated_Source\PSoC4/CyBLE.c ****     #ifdef CYBLE_CGMS
 240:Generated_Source\PSoC4/CyBLE.c ****         CyBle_CgmsInit();
 241:Generated_Source\PSoC4/CyBLE.c ****     #endif /* CYBLE_CGMS */
 242:Generated_Source\PSoC4/CyBLE.c **** 
 243:Generated_Source\PSoC4/CyBLE.c ****     #ifdef CYBLE_CPS
 244:Generated_Source\PSoC4/CyBLE.c ****         CyBle_CpsInit();
 245:Generated_Source\PSoC4/CyBLE.c ****     #endif /* CYBLE_CPS */
 246:Generated_Source\PSoC4/CyBLE.c **** 
 247:Generated_Source\PSoC4/CyBLE.c ****     #ifdef CYBLE_CSCS
 248:Generated_Source\PSoC4/CyBLE.c ****         CyBle_CscsInit();
 249:Generated_Source\PSoC4/CyBLE.c ****     #endif /* CYBLE_CSCS */
 250:Generated_Source\PSoC4/CyBLE.c ****     
 251:Generated_Source\PSoC4/CyBLE.c ****     #ifdef CYBLE_CTS
 252:Generated_Source\PSoC4/CyBLE.c ****         CyBle_CtsInit();
 253:Generated_Source\PSoC4/CyBLE.c ****     #endif /* CYBLE_CTS */
 254:Generated_Source\PSoC4/CyBLE.c **** 
 255:Generated_Source\PSoC4/CyBLE.c ****     #ifdef CYBLE_CUSTOM
 256:Generated_Source\PSoC4/CyBLE.c ****         CyBle_CustomInit();
 257:Generated_Source\PSoC4/CyBLE.c ****     #endif /* CYBLE_CUSTOM */
 258:Generated_Source\PSoC4/CyBLE.c **** 
 259:Generated_Source\PSoC4/CyBLE.c ****     #ifdef CYBLE_DIS
 260:Generated_Source\PSoC4/CyBLE.c ****         CyBle_DisInit();
 261:Generated_Source\PSoC4/CyBLE.c ****     #endif /* CYBLE_DIS */
ARM GAS  C:\Users\Nick\AppData\Local\Temp\ccmuPAvR.s 			page 6


 262:Generated_Source\PSoC4/CyBLE.c **** 
 263:Generated_Source\PSoC4/CyBLE.c ****     #ifdef CYBLE_ESS
 264:Generated_Source\PSoC4/CyBLE.c ****         CyBle_EssInit();
 265:Generated_Source\PSoC4/CyBLE.c ****     #endif /* CYBLE_ESS */
 266:Generated_Source\PSoC4/CyBLE.c ****     
 267:Generated_Source\PSoC4/CyBLE.c ****     #ifdef CYBLE_GLS
 268:Generated_Source\PSoC4/CyBLE.c ****         CyBle_GlsInit();
 269:Generated_Source\PSoC4/CyBLE.c ****     #endif /* CYBLE_GLS */
 270:Generated_Source\PSoC4/CyBLE.c ****     
 271:Generated_Source\PSoC4/CyBLE.c ****     #ifdef CYBLE_HIDS
 272:Generated_Source\PSoC4/CyBLE.c ****         CyBle_HidsInit();
 273:Generated_Source\PSoC4/CyBLE.c ****     #endif /* CYBLE_HIDS */
 274:Generated_Source\PSoC4/CyBLE.c **** 
 275:Generated_Source\PSoC4/CyBLE.c ****     #ifdef CYBLE_HPS
 276:Generated_Source\PSoC4/CyBLE.c ****         CyBle_HpsInit();
 277:Generated_Source\PSoC4/CyBLE.c ****     #endif /* CYBLE_HPS */
 278:Generated_Source\PSoC4/CyBLE.c **** 
 279:Generated_Source\PSoC4/CyBLE.c ****     #ifdef CYBLE_HRS
 280:Generated_Source\PSoC4/CyBLE.c ****         CyBle_HrsInit();
 281:Generated_Source\PSoC4/CyBLE.c ****     #endif /* CYBLE_HRS */
 282:Generated_Source\PSoC4/CyBLE.c ****     
 283:Generated_Source\PSoC4/CyBLE.c ****     #ifdef CYBLE_HTS
 284:Generated_Source\PSoC4/CyBLE.c ****         CyBle_HtsInit();
 285:Generated_Source\PSoC4/CyBLE.c ****     #endif /* CYBLE_RSCS */
 286:Generated_Source\PSoC4/CyBLE.c **** 
 287:Generated_Source\PSoC4/CyBLE.c ****     #ifdef CYBLE_IAS
 288:Generated_Source\PSoC4/CyBLE.c ****         CyBle_IasInit();
 289:Generated_Source\PSoC4/CyBLE.c ****     #endif /* CYBLE_IAS */
 290:Generated_Source\PSoC4/CyBLE.c **** 
 291:Generated_Source\PSoC4/CyBLE.c ****     #ifdef CYBLE_IPS
 292:Generated_Source\PSoC4/CyBLE.c ****         CyBle_IpsInit();
 293:Generated_Source\PSoC4/CyBLE.c ****     #endif /* CYBLE_IPS */
 294:Generated_Source\PSoC4/CyBLE.c ****     
 295:Generated_Source\PSoC4/CyBLE.c ****     #ifdef CYBLE_LLS
 296:Generated_Source\PSoC4/CyBLE.c ****         CyBle_LlsInit();
 297:Generated_Source\PSoC4/CyBLE.c ****     #endif /* CYBLE_LLS */
 298:Generated_Source\PSoC4/CyBLE.c **** 
 299:Generated_Source\PSoC4/CyBLE.c ****     #ifdef CYBLE_LNS
 300:Generated_Source\PSoC4/CyBLE.c ****         CyBle_LnsInit();
 301:Generated_Source\PSoC4/CyBLE.c ****     #endif /* CYBLE_LNS */
 302:Generated_Source\PSoC4/CyBLE.c ****     
 303:Generated_Source\PSoC4/CyBLE.c ****     #ifdef CYBLE_NDCS
 304:Generated_Source\PSoC4/CyBLE.c ****         CyBle_NdcsInit();
 305:Generated_Source\PSoC4/CyBLE.c ****     #endif /* CYBLE_NDCS */
 306:Generated_Source\PSoC4/CyBLE.c ****     
 307:Generated_Source\PSoC4/CyBLE.c ****     #ifdef CYBLE_PASS
 308:Generated_Source\PSoC4/CyBLE.c ****         CyBle_PassInit();
 309:Generated_Source\PSoC4/CyBLE.c ****     #endif /* CYBLE_PASS */
 310:Generated_Source\PSoC4/CyBLE.c ****     
 311:Generated_Source\PSoC4/CyBLE.c ****     #ifdef CYBLE_RSCS
 312:Generated_Source\PSoC4/CyBLE.c ****         CyBle_RscsInit();
 313:Generated_Source\PSoC4/CyBLE.c ****     #endif /* CYBLE_RSCS */
 314:Generated_Source\PSoC4/CyBLE.c **** 
 315:Generated_Source\PSoC4/CyBLE.c ****     #ifdef CYBLE_RTUS
 316:Generated_Source\PSoC4/CyBLE.c ****         CyBle_RtusInit();
 317:Generated_Source\PSoC4/CyBLE.c ****     #endif /* CYBLE_RTUS */
 318:Generated_Source\PSoC4/CyBLE.c **** 
ARM GAS  C:\Users\Nick\AppData\Local\Temp\ccmuPAvR.s 			page 7


 319:Generated_Source\PSoC4/CyBLE.c ****     #ifdef CYBLE_SCPS
 320:Generated_Source\PSoC4/CyBLE.c ****         CyBle_ScpsInit();
 321:Generated_Source\PSoC4/CyBLE.c ****     #endif /* CYBLE_SCPS */
 322:Generated_Source\PSoC4/CyBLE.c ****     
 323:Generated_Source\PSoC4/CyBLE.c ****     #ifdef CYBLE_TPS
 324:Generated_Source\PSoC4/CyBLE.c ****         CyBle_TpsInit();
 325:Generated_Source\PSoC4/CyBLE.c ****     #endif /* CYBLE_TPS */
 326:Generated_Source\PSoC4/CyBLE.c ****     
 327:Generated_Source\PSoC4/CyBLE.c ****     #ifdef CYBLE_UDS
 328:Generated_Source\PSoC4/CyBLE.c ****         CyBle_UdsInit();
 329:Generated_Source\PSoC4/CyBLE.c ****     #endif /* CYBLE_UDS */
 330:Generated_Source\PSoC4/CyBLE.c **** 
 331:Generated_Source\PSoC4/CyBLE.c ****     #ifdef CYBLE_WPTS
 332:Generated_Source\PSoC4/CyBLE.c ****         CyBle_WptsInit();
 333:Generated_Source\PSoC4/CyBLE.c ****     #endif /* CYBLE_WPTS */
 334:Generated_Source\PSoC4/CyBLE.c **** 
 335:Generated_Source\PSoC4/CyBLE.c ****     #ifdef CYBLE_WSS
 336:Generated_Source\PSoC4/CyBLE.c ****         CyBle_WssInit();
 337:Generated_Source\PSoC4/CyBLE.c ****     #endif /* CYBLE_WSS */
 338:Generated_Source\PSoC4/CyBLE.c **** }
 339:Generated_Source\PSoC4/CyBLE.c **** 
 340:Generated_Source\PSoC4/CyBLE.c **** 
 341:Generated_Source\PSoC4/CyBLE.c **** /******************************************************************************
 342:Generated_Source\PSoC4/CyBLE.c **** * Function Name: CyBle_Start
 343:Generated_Source\PSoC4/CyBLE.c **** ***************************************************************************//**
 344:Generated_Source\PSoC4/CyBLE.c **** * 
 345:Generated_Source\PSoC4/CyBLE.c **** *  This function initializes the BLE Stack, which consists of the BLE Stack 
 346:Generated_Source\PSoC4/CyBLE.c **** *  Manager, BLE Controller, and BLE Host modules. It takes care of initializing
 347:Generated_Source\PSoC4/CyBLE.c **** *  the Profile layer, schedulers, Timer and other platform related
 348:Generated_Source\PSoC4/CyBLE.c **** *  resources required for the BLE component. It also registers the callback 
 349:Generated_Source\PSoC4/CyBLE.c **** *  function for BLE events that will be registered in the BLE stack.
 350:Generated_Source\PSoC4/CyBLE.c **** * 
 351:Generated_Source\PSoC4/CyBLE.c **** *  Note that this function does not reset the BLE Stack.
 352:Generated_Source\PSoC4/CyBLE.c **** * 
 353:Generated_Source\PSoC4/CyBLE.c **** *  For HCI-Mode of operation, this function will not initialize the BLE Host 
 354:Generated_Source\PSoC4/CyBLE.c **** *  module.
 355:Generated_Source\PSoC4/CyBLE.c **** * 
 356:Generated_Source\PSoC4/CyBLE.c **** *  Calling this function results in the generation of CYBLE_EVT_STACK_ON event
 357:Generated_Source\PSoC4/CyBLE.c **** *  on successful initialization of the BLE Stack.
 358:Generated_Source\PSoC4/CyBLE.c **** * 
 359:Generated_Source\PSoC4/CyBLE.c **** *  \param callbackFunc: Event callback function to receive events from BLE stack.
 360:Generated_Source\PSoC4/CyBLE.c **** *   CYBLE_CALLBACK_T is a function pointer type.
 361:Generated_Source\PSoC4/CyBLE.c **** * 
 362:Generated_Source\PSoC4/CyBLE.c **** * \return
 363:Generated_Source\PSoC4/CyBLE.c **** *  CYBLE_API_RESULT_T : Return value indicates if the function succeeded or 
 364:Generated_Source\PSoC4/CyBLE.c **** *  failed. Following are the possible error codes.
 365:Generated_Source\PSoC4/CyBLE.c **** * 
 366:Generated_Source\PSoC4/CyBLE.c **** *   <table>
 367:Generated_Source\PSoC4/CyBLE.c **** *  	  <tr>
 368:Generated_Source\PSoC4/CyBLE.c **** *       <th>Error codes</th>
 369:Generated_Source\PSoC4/CyBLE.c **** *       <th>Description</th>
 370:Generated_Source\PSoC4/CyBLE.c **** *     </tr>
 371:Generated_Source\PSoC4/CyBLE.c **** *     <tr>
 372:Generated_Source\PSoC4/CyBLE.c **** *       <td>CYBLE_ERROR_OK</td>
 373:Generated_Source\PSoC4/CyBLE.c **** *       <td>On successful operation.</td>
 374:Generated_Source\PSoC4/CyBLE.c **** *     </tr>
 375:Generated_Source\PSoC4/CyBLE.c **** *     <tr>
ARM GAS  C:\Users\Nick\AppData\Local\Temp\ccmuPAvR.s 			page 8


 376:Generated_Source\PSoC4/CyBLE.c **** *       <td>CYBLE_ERROR_INVALID_PARAMETER</td>
 377:Generated_Source\PSoC4/CyBLE.c **** *       <td>On passing a NULL pointer to the function when the BLE stack is not built in HCI mode. 
 378:Generated_Source\PSoC4/CyBLE.c **** *			CYBLE_ERROR_INVALID_PARAMETER is never returned in HCI mode.</td>
 379:Generated_Source\PSoC4/CyBLE.c **** *     </tr>
 380:Generated_Source\PSoC4/CyBLE.c **** *     <tr>
 381:Generated_Source\PSoC4/CyBLE.c **** *       <td>CYBLE_ERROR_REPEATED_ATTEMPTS</td>
 382:Generated_Source\PSoC4/CyBLE.c **** *       <td>On invoking this function more than once without calling CyBle_Shutdown() 
 383:Generated_Source\PSoC4/CyBLE.c **** *           function between calls to this function.</td>
 384:Generated_Source\PSoC4/CyBLE.c **** *     </tr>
 385:Generated_Source\PSoC4/CyBLE.c **** *     <tr>
 386:Generated_Source\PSoC4/CyBLE.c **** *       <td>CYBLE_ERROR_MEMORY_ALLOCATION_FAILED</td>
 387:Generated_Source\PSoC4/CyBLE.c **** *       <td>There is insufficient memory available.</td>
 388:Generated_Source\PSoC4/CyBLE.c **** *     </tr>
 389:Generated_Source\PSoC4/CyBLE.c **** *   </table>
 390:Generated_Source\PSoC4/CyBLE.c **** * 
 391:Generated_Source\PSoC4/CyBLE.c **** *  \globalvars
 392:Generated_Source\PSoC4/CyBLE.c **** *   The CyBle_initVar variable is used to indicate initial
 393:Generated_Source\PSoC4/CyBLE.c **** *   configuration of this component. The variable is initialized to zero (0u)
 394:Generated_Source\PSoC4/CyBLE.c **** *   and set to one (1u) the first time CyBle_Start() is called. This
 395:Generated_Source\PSoC4/CyBLE.c **** *   allows for component initialization without re-initialization in all
 396:Generated_Source\PSoC4/CyBLE.c **** *   subsequent calls to the CyBle_Start() routine.
 397:Generated_Source\PSoC4/CyBLE.c **** * 
 398:Generated_Source\PSoC4/CyBLE.c **** ******************************************************************************/
 399:Generated_Source\PSoC4/CyBLE.c **** CYBLE_API_RESULT_T CyBle_Start(CYBLE_CALLBACK_T callbackFunc)
 400:Generated_Source\PSoC4/CyBLE.c **** {
 401:Generated_Source\PSoC4/CyBLE.c ****     CYBLE_API_RESULT_T apiResult = CYBLE_ERROR_OK;
 402:Generated_Source\PSoC4/CyBLE.c ****     
 403:Generated_Source\PSoC4/CyBLE.c ****     #if(CYBLE_MODE_PROFILE)
 404:Generated_Source\PSoC4/CyBLE.c ****     
 405:Generated_Source\PSoC4/CyBLE.c ****     CYBLE_STK_APP_DATA_BUFF_T cyBle_stackDataBuff[CYBLE_STACK_APP_MIN_POOL] = 
 406:Generated_Source\PSoC4/CyBLE.c ****     {
 407:Generated_Source\PSoC4/CyBLE.c ****         {CYBLE_GATT_MTU_PLUS_L2CAP_MEM_EXT, CYBLE_GATT_MTU_BUFF_COUNT + CYBLE_GATT_MAX_ATTR_BUFF_CO
 408:Generated_Source\PSoC4/CyBLE.c ****         {CYBLE_L2CAP_PSM_PLUS_L2CAP_MEM_EXT, CYBLE_L2CAP_PSM_COUNT},
 409:Generated_Source\PSoC4/CyBLE.c ****         {CYBLE_L2CAP_CBFC_PLUS_L2CAP_MEM_EXT, 2u * CYBLE_L2CAP_LOGICAL_CHANNEL_COUNT},
 410:Generated_Source\PSoC4/CyBLE.c ****         {CYBLE_L2CAP_MTU_PLUS_L2CAP_MEM_EXT, CYBLE_L2CAP_LOGICAL_CHANNEL_COUNT},
 411:Generated_Source\PSoC4/CyBLE.c ****         {CYBLE_L2CAP_MPS_PLUS_L2CAP_MEM_EXT, CYBLE_L2CAP_LOGICAL_CHANNEL_COUNT * (CYBLE_L2CAP_MTU_M
 412:Generated_Source\PSoC4/CyBLE.c ****     }; 
 413:Generated_Source\PSoC4/CyBLE.c **** 
 414:Generated_Source\PSoC4/CyBLE.c ****     #endif /* CYBLE_MODE_PROFILE */
 415:Generated_Source\PSoC4/CyBLE.c ****     
 416:Generated_Source\PSoC4/CyBLE.c ****     /* If not initialized then initialize all the required hardware and software */
 417:Generated_Source\PSoC4/CyBLE.c ****     if(cyBle_initVar == 0u)
 418:Generated_Source\PSoC4/CyBLE.c ****     {
 419:Generated_Source\PSoC4/CyBLE.c ****         CyBle_Init();
 420:Generated_Source\PSoC4/CyBLE.c ****         cyBle_initVar = 1u;
 421:Generated_Source\PSoC4/CyBLE.c ****     }
 422:Generated_Source\PSoC4/CyBLE.c ****     
 423:Generated_Source\PSoC4/CyBLE.c ****     if(callbackFunc != NULL)
 424:Generated_Source\PSoC4/CyBLE.c ****     {
 425:Generated_Source\PSoC4/CyBLE.c ****         CyBle_ApplCallback = callbackFunc;
 426:Generated_Source\PSoC4/CyBLE.c ****         
 427:Generated_Source\PSoC4/CyBLE.c ****     #if(CYBLE_SHARING_MODE_EXPORT)
 428:Generated_Source\PSoC4/CyBLE.c ****         if(cyBle_stackMemoryRam == NULL)
 429:Generated_Source\PSoC4/CyBLE.c ****         {
 430:Generated_Source\PSoC4/CyBLE.c ****             cyBle_stackMemoryRam = (uint8 *)malloc(CYBLE_STACK_RAM_SIZE);
 431:Generated_Source\PSoC4/CyBLE.c ****             if(cyBle_stackMemoryRam == NULL)
 432:Generated_Source\PSoC4/CyBLE.c ****             {
ARM GAS  C:\Users\Nick\AppData\Local\Temp\ccmuPAvR.s 			page 9


 433:Generated_Source\PSoC4/CyBLE.c ****                 apiResult = CYBLE_ERROR_MEMORY_ALLOCATION_FAILED;
 434:Generated_Source\PSoC4/CyBLE.c ****             }
 435:Generated_Source\PSoC4/CyBLE.c ****         }
 436:Generated_Source\PSoC4/CyBLE.c ****     #endif /* CYBLE_SHARING_MODE_EXPORT */
 437:Generated_Source\PSoC4/CyBLE.c ****         if(apiResult == CYBLE_ERROR_OK)
 438:Generated_Source\PSoC4/CyBLE.c ****         {
 439:Generated_Source\PSoC4/CyBLE.c ****             CYBLE_DLE_CONFIG_PARAM_T dleConfigParams;
 440:Generated_Source\PSoC4/CyBLE.c ****             CYBLE_PRIVACY_1_2_CONFIG_PARAM_T privacyConfigParams;
 441:Generated_Source\PSoC4/CyBLE.c ****             CYBLE_STACK_CONFIG_PARAM_T stackConfig;
 442:Generated_Source\PSoC4/CyBLE.c ****             uint16 featureHeapReq;
 443:Generated_Source\PSoC4/CyBLE.c ****             
 444:Generated_Source\PSoC4/CyBLE.c ****             stackConfig.privacyConfig = &privacyConfigParams;
 445:Generated_Source\PSoC4/CyBLE.c ****             stackConfig.dleConfig = &dleConfigParams;
 446:Generated_Source\PSoC4/CyBLE.c ****             
 447:Generated_Source\PSoC4/CyBLE.c ****             /* Configure default BLE 4.1 features and enabled 4.2 features */
 448:Generated_Source\PSoC4/CyBLE.c ****             stackConfig.feature_mask = CYBLE_DLE_FEATURE | CYBLE_LL_PRIVACY_FEATURE | 
 449:Generated_Source\PSoC4/CyBLE.c ****                                        CYBLE_SECURE_CONN_FEATURE;
 450:Generated_Source\PSoC4/CyBLE.c **** 
 451:Generated_Source\PSoC4/CyBLE.c ****             /* Configure DLE */
 452:Generated_Source\PSoC4/CyBLE.c ****             dleConfigParams.dleMaxTxCapability = CYBLE_LL_MAX_TX_PAYLOAD_SIZE;
 453:Generated_Source\PSoC4/CyBLE.c ****             dleConfigParams.dleMaxRxCapability = CYBLE_LL_MAX_RX_PAYLOAD_SIZE;
 454:Generated_Source\PSoC4/CyBLE.c ****             dleConfigParams.dleNumTxBuffer = CYBLE_LL_DEFAULT_NUM_ACL_TX_PACKETS;
 455:Generated_Source\PSoC4/CyBLE.c ****         #if(CYBLE_DLE_FEATURE_ENABLED)
 456:Generated_Source\PSoC4/CyBLE.c ****             CyBle_EnableDleFeature();              /* Enable DLE code in stack */
 457:Generated_Source\PSoC4/CyBLE.c ****         #endif /* CYBLE_DLE_FEATURE_ENABLED */
 458:Generated_Source\PSoC4/CyBLE.c ****         
 459:Generated_Source\PSoC4/CyBLE.c ****             /* Configure LL Privacy */
 460:Generated_Source\PSoC4/CyBLE.c ****             privacyConfigParams.resolvingListSize = CYBLE_MAX_RESOLVABLE_DEVICES;
 461:Generated_Source\PSoC4/CyBLE.c ****         #if(CYBLE_LL_PRIVACY_FEATURE_ENABLED)
 462:Generated_Source\PSoC4/CyBLE.c ****             CyBle_EnablePrivacyFeature();          /* Enable LL Privacy code in stack */
 463:Generated_Source\PSoC4/CyBLE.c ****         #endif /* CYBLE_LL_PRIVACY_FEATURE_ENABLED */
 464:Generated_Source\PSoC4/CyBLE.c **** 
 465:Generated_Source\PSoC4/CyBLE.c ****             apiResult = CyBle_StackSetFeatureConfig(&stackConfig, &featureHeapReq);
 466:Generated_Source\PSoC4/CyBLE.c ****             }
 467:Generated_Source\PSoC4/CyBLE.c ****     
 468:Generated_Source\PSoC4/CyBLE.c ****         if(apiResult == CYBLE_ERROR_OK)
 469:Generated_Source\PSoC4/CyBLE.c ****         {
 470:Generated_Source\PSoC4/CyBLE.c ****             
 471:Generated_Source\PSoC4/CyBLE.c ****         #if(CYBLE_MODE_PROFILE)
 472:Generated_Source\PSoC4/CyBLE.c ****             #if(CYBLE_BONDING_REQUIREMENT == CYBLE_BONDING_YES)
 473:Generated_Source\PSoC4/CyBLE.c ****                 apiResult = CyBle_StackInit(&CyBle_EventHandler, cyBle_stackMemoryRam, 
 474:Generated_Source\PSoC4/CyBLE.c ****                     CYBLE_STACK_RAM_SIZE - CYBLE_GATT_PREPARE_WRITE_BUFF_LEN, cyBle_stackDataBuff, 
 475:Generated_Source\PSoC4/CyBLE.c ****                     CYBLE_STACK_APP_MIN_POOL, cyBle_flashStorage.stackFlashptr, CYBLE_STACK_FLASH_S
 476:Generated_Source\PSoC4/CyBLE.c ****             #else
 477:Generated_Source\PSoC4/CyBLE.c ****                 apiResult = CyBle_StackInit(&CyBle_EventHandler, cyBle_stackMemoryRam, 
 478:Generated_Source\PSoC4/CyBLE.c ****                     CYBLE_STACK_RAM_SIZE - CYBLE_GATT_PREPARE_WRITE_BUFF_LEN, cyBle_stackDataBuff, 
 479:Generated_Source\PSoC4/CyBLE.c ****                     CYBLE_STACK_APP_MIN_POOL, NULL, 0u);
 480:Generated_Source\PSoC4/CyBLE.c ****             #endif  /* CYBLE_BONDING_REQUIREMENT == CYBLE_BONDING_YES */
 481:Generated_Source\PSoC4/CyBLE.c ****         #else
 482:Generated_Source\PSoC4/CyBLE.c ****             apiResult = CyBle_StackInit(&CyBle_EventHandler, cyBle_stackMemoryRam, CYBLE_STACK_RAM_
 483:Generated_Source\PSoC4/CyBLE.c ****                 NULL, 0u, NULL, 0u);
 484:Generated_Source\PSoC4/CyBLE.c ****         #endif /* CYBLE_MODE_PROFILE */
 485:Generated_Source\PSoC4/CyBLE.c **** 
 486:Generated_Source\PSoC4/CyBLE.c ****             if(apiResult == CYBLE_ERROR_OK)
 487:Generated_Source\PSoC4/CyBLE.c ****             {
 488:Generated_Source\PSoC4/CyBLE.c ****                 CyBle_SetState(CYBLE_STATE_INITIALIZING);
 489:Generated_Source\PSoC4/CyBLE.c ****                 
ARM GAS  C:\Users\Nick\AppData\Local\Temp\ccmuPAvR.s 			page 10


 490:Generated_Source\PSoC4/CyBLE.c ****             #if (CYBLE_GATT_ROLE_CLIENT)
 491:Generated_Source\PSoC4/CyBLE.c ****                 CyBle_SetClientState(CYBLE_CLIENT_STATE_DISCONNECTED);
 492:Generated_Source\PSoC4/CyBLE.c ****             #endif /* CYBLE_GATT_ROLE_CLIENT */
 493:Generated_Source\PSoC4/CyBLE.c ****                 
 494:Generated_Source\PSoC4/CyBLE.c ****             #if(CYBLE_GATT_ROLE_SERVER)
 495:Generated_Source\PSoC4/CyBLE.c ****                 apiResult = CyBle_GattsDbRegister(cyBle_gattDB, CYBLE_GATT_DB_INDEX_COUNT, CYBLE_GA
 496:Generated_Source\PSoC4/CyBLE.c ****             #endif /* CYBLE_GATT_ROLE_SERVER */
 497:Generated_Source\PSoC4/CyBLE.c ****             }
 498:Generated_Source\PSoC4/CyBLE.c ****         }
 499:Generated_Source\PSoC4/CyBLE.c ****     }
 500:Generated_Source\PSoC4/CyBLE.c ****     else
 501:Generated_Source\PSoC4/CyBLE.c ****     {
 502:Generated_Source\PSoC4/CyBLE.c ****         apiResult = CYBLE_ERROR_INVALID_PARAMETER;
 503:Generated_Source\PSoC4/CyBLE.c ****     }
 504:Generated_Source\PSoC4/CyBLE.c **** 
 505:Generated_Source\PSoC4/CyBLE.c ****     return (apiResult);
 506:Generated_Source\PSoC4/CyBLE.c **** }
 507:Generated_Source\PSoC4/CyBLE.c **** 
 508:Generated_Source\PSoC4/CyBLE.c **** 
 509:Generated_Source\PSoC4/CyBLE.c **** /******************************************************************************
 510:Generated_Source\PSoC4/CyBLE.c **** * Function Name: CyBle_Stop
 511:Generated_Source\PSoC4/CyBLE.c **** ***************************************************************************//**
 512:Generated_Source\PSoC4/CyBLE.c **** * 
 513:Generated_Source\PSoC4/CyBLE.c **** *  This function stops any ongoing operation in the BLE Stack and forces the 
 514:Generated_Source\PSoC4/CyBLE.c **** *  BLE Stack to shut down. The only function that can be called after calling
 515:Generated_Source\PSoC4/CyBLE.c **** *  this function is CyBle_Start(). 
 516:Generated_Source\PSoC4/CyBLE.c **** * 
 517:Generated_Source\PSoC4/CyBLE.c **** * \return
 518:Generated_Source\PSoC4/CyBLE.c **** *  None
 519:Generated_Source\PSoC4/CyBLE.c **** * 
 520:Generated_Source\PSoC4/CyBLE.c **** ******************************************************************************/
 521:Generated_Source\PSoC4/CyBLE.c **** void CyBle_Stop(void)
 522:Generated_Source\PSoC4/CyBLE.c **** {
 523:Generated_Source\PSoC4/CyBLE.c ****     CyBle_Shutdown();                         /* Stop all ongoing activities */
 524:Generated_Source\PSoC4/CyBLE.c ****     CyBle_SetState(CYBLE_STATE_STOPPED);
 525:Generated_Source\PSoC4/CyBLE.c ****     #if(CYBLE_SHARING_MODE_EXPORT)
 526:Generated_Source\PSoC4/CyBLE.c ****         if(cyBle_stackMemoryRam != NULL)
 527:Generated_Source\PSoC4/CyBLE.c ****         {
 528:Generated_Source\PSoC4/CyBLE.c ****             free(cyBle_stackMemoryRam);
 529:Generated_Source\PSoC4/CyBLE.c ****         }
 530:Generated_Source\PSoC4/CyBLE.c ****     #endif /* CYBLE_SHARING_MODE_EXPORT */
 531:Generated_Source\PSoC4/CyBLE.c **** }
 532:Generated_Source\PSoC4/CyBLE.c **** 
 533:Generated_Source\PSoC4/CyBLE.c **** 
 534:Generated_Source\PSoC4/CyBLE.c **** #if((CYBLE_GAP_ROLE_PERIPHERAL || CYBLE_GAP_ROLE_CENTRAL) && (CYBLE_BONDING_REQUIREMENT == CYBLE_BO
 535:Generated_Source\PSoC4/CyBLE.c **** 
 536:Generated_Source\PSoC4/CyBLE.c ****     
 537:Generated_Source\PSoC4/CyBLE.c **** /******************************************************************************
 538:Generated_Source\PSoC4/CyBLE.c **** * Function Name: CyBle_StoreBondingData
 539:Generated_Source\PSoC4/CyBLE.c **** ***************************************************************************//**
 540:Generated_Source\PSoC4/CyBLE.c **** * 
 541:Generated_Source\PSoC4/CyBLE.c **** *  This function writes the new bonding data from RAM to the dedicated Flash 
 542:Generated_Source\PSoC4/CyBLE.c **** *  location as defined by the component. It performs data comparing between RAM
 543:Generated_Source\PSoC4/CyBLE.c **** *  and Flash before writing to Flash. If there is no change between RAM and Flash
 544:Generated_Source\PSoC4/CyBLE.c **** *  data, then no write is performed. It writes only one flash row in one call.
 545:Generated_Source\PSoC4/CyBLE.c **** *  Application should keep calling this function till API return CYBLE_ERROR_OK. 
 546:Generated_Source\PSoC4/CyBLE.c **** *  This function is available only when Bonding requirement is selected in
ARM GAS  C:\Users\Nick\AppData\Local\Temp\ccmuPAvR.s 			page 11


 547:Generated_Source\PSoC4/CyBLE.c **** *  Security settings.    
 548:Generated_Source\PSoC4/CyBLE.c **** * 
 549:Generated_Source\PSoC4/CyBLE.c **** *  \param isForceWrite:  If value is set to 0, then stack will check if flash write 
 550:Generated_Source\PSoC4/CyBLE.c **** *                 is permissible. 
 551:Generated_Source\PSoC4/CyBLE.c **** *  
 552:Generated_Source\PSoC4/CyBLE.c **** * \return
 553:Generated_Source\PSoC4/CyBLE.c **** *  Return value is of type CYBLE_API_RESULT_T.
 554:Generated_Source\PSoC4/CyBLE.c **** *
 555:Generated_Source\PSoC4/CyBLE.c **** *   Errors codes                         | Description
 556:Generated_Source\PSoC4/CyBLE.c **** *   ----------------------------------   | ------------------------------------
 557:Generated_Source\PSoC4/CyBLE.c **** *   CYBLE_ERROR_OK                       | On successful operation
 558:Generated_Source\PSoC4/CyBLE.c **** *   CYBLE_ERROR_FLASH_WRITE_NOT_PERMITED | Flash Write is not complete
 559:Generated_Source\PSoC4/CyBLE.c **** *    
 560:Generated_Source\PSoC4/CyBLE.c **** *  \sideeffect
 561:Generated_Source\PSoC4/CyBLE.c **** *   For BLE devices with 128K of Flash memory this API will automatically 
 562:Generated_Source\PSoC4/CyBLE.c **** *   modify the clock settings for the device.
 563:Generated_Source\PSoC4/CyBLE.c **** *   Writing to flash requires changes to be done to the IMO (set to 48 MHz)
 564:Generated_Source\PSoC4/CyBLE.c **** *   and HFCLK (source set to IMO) settings. The configuration is restored before
 565:Generated_Source\PSoC4/CyBLE.c **** *   returning. This will impact the operation of most of the hardware in the
 566:Generated_Source\PSoC4/CyBLE.c **** *   device.
 567:Generated_Source\PSoC4/CyBLE.c **** * 
 568:Generated_Source\PSoC4/CyBLE.c **** *  \globalvars
 569:Generated_Source\PSoC4/CyBLE.c **** *   The cyBle_pendingFlashWrite variable is used to detect status
 570:Generated_Source\PSoC4/CyBLE.c **** *   of pending write to flash operation for stack data and CCCD.
 571:Generated_Source\PSoC4/CyBLE.c **** *   This API automatically clears pending bits after write operation complete.
 572:Generated_Source\PSoC4/CyBLE.c **** *     
 573:Generated_Source\PSoC4/CyBLE.c **** ******************************************************************************/
 574:Generated_Source\PSoC4/CyBLE.c **** CYBLE_API_RESULT_T CyBle_StoreBondingData(uint8 isForceWrite)
 575:Generated_Source\PSoC4/CyBLE.c **** {
 576:Generated_Source\PSoC4/CyBLE.c ****     CYBLE_API_RESULT_T apiResult = CYBLE_ERROR_OK;
 577:Generated_Source\PSoC4/CyBLE.c ****     
 578:Generated_Source\PSoC4/CyBLE.c ****     /* Store Stack data */
 579:Generated_Source\PSoC4/CyBLE.c ****     if((cyBle_pendingFlashWrite & CYBLE_PENDING_STACK_FLASH_WRITE_BIT) != 0u)
 580:Generated_Source\PSoC4/CyBLE.c ****     {
 581:Generated_Source\PSoC4/CyBLE.c ****         apiResult = CyBle_StoreStackData(isForceWrite);
 582:Generated_Source\PSoC4/CyBLE.c ****         if(apiResult == CYBLE_ERROR_OK)
 583:Generated_Source\PSoC4/CyBLE.c ****         {
 584:Generated_Source\PSoC4/CyBLE.c ****             cyBle_pendingFlashWrite &= (uint8)~CYBLE_PENDING_STACK_FLASH_WRITE_BIT;
 585:Generated_Source\PSoC4/CyBLE.c ****             /* Change apiResult if there are more pending data to store */
 586:Generated_Source\PSoC4/CyBLE.c ****             if((cyBle_pendingFlashWrite & CYBLE_PENDING_CCCD_FLASH_WRITE_BIT) != 0u)
 587:Generated_Source\PSoC4/CyBLE.c ****             {
 588:Generated_Source\PSoC4/CyBLE.c ****                 apiResult = CYBLE_ERROR_FLASH_WRITE_NOT_PERMITED;
 589:Generated_Source\PSoC4/CyBLE.c ****             }
 590:Generated_Source\PSoC4/CyBLE.c ****         }
 591:Generated_Source\PSoC4/CyBLE.c ****     }
 592:Generated_Source\PSoC4/CyBLE.c **** #if(CYBLE_GATT_DB_CCCD_COUNT != 0u)
 593:Generated_Source\PSoC4/CyBLE.c ****     /* Store CCCD values */
 594:Generated_Source\PSoC4/CyBLE.c ****     if( ((apiResult == CYBLE_ERROR_OK) || (isForceWrite != 0u)) && 
 595:Generated_Source\PSoC4/CyBLE.c ****         ((cyBle_pendingFlashWrite & CYBLE_PENDING_CCCD_FLASH_WRITE_BIT) != 0u) &&
 596:Generated_Source\PSoC4/CyBLE.c ****         (cyBle_connHandle.bdHandle <= CYBLE_GAP_MAX_BONDED_DEVICE))
 597:Generated_Source\PSoC4/CyBLE.c ****     {
 598:Generated_Source\PSoC4/CyBLE.c ****         apiResult = CyBle_StoreAppData(cyBle_attValuesCCCD, cyBle_flashStorage.attValuesCCCDFlashMe
 599:Generated_Source\PSoC4/CyBLE.c ****                         cyBle_connHandle.bdHandle], CYBLE_GATT_DB_CCCD_COUNT, isForceWrite);
 600:Generated_Source\PSoC4/CyBLE.c ****         if(apiResult == CYBLE_ERROR_OK)
 601:Generated_Source\PSoC4/CyBLE.c ****         {
 602:Generated_Source\PSoC4/CyBLE.c ****             cyBle_pendingFlashWrite &= (uint8)~CYBLE_PENDING_CCCD_FLASH_WRITE_BIT;
 603:Generated_Source\PSoC4/CyBLE.c ****         }
ARM GAS  C:\Users\Nick\AppData\Local\Temp\ccmuPAvR.s 			page 12


 604:Generated_Source\PSoC4/CyBLE.c ****     }
 605:Generated_Source\PSoC4/CyBLE.c ****     /* Clear requested CCCD values */
 606:Generated_Source\PSoC4/CyBLE.c ****     if( ((apiResult == CYBLE_ERROR_OK) || (isForceWrite != 0u)) && 
 607:Generated_Source\PSoC4/CyBLE.c ****         ((cyBle_pendingFlashWrite & CYBLE_PENDING_CCCD_FLASH_CLEAR_MASK) != 0u) )
 608:Generated_Source\PSoC4/CyBLE.c ****     {
 609:Generated_Source\PSoC4/CyBLE.c ****         if((cyBle_pendingFlashWrite & CYBLE_PENDING_CCCD_FLASH_CLEAR_ALL_BIT) != 0u)
 610:Generated_Source\PSoC4/CyBLE.c ****         {
 611:Generated_Source\PSoC4/CyBLE.c ****             /* Remove cccd values for all bonded devices */
 612:Generated_Source\PSoC4/CyBLE.c ****             uint8 defaultValuesCCCD[CYBLE_GAP_MAX_BONDED_DEVICE + 1u][CYBLE_GATT_DB_CCCD_COUNT];
 613:Generated_Source\PSoC4/CyBLE.c ****             
 614:Generated_Source\PSoC4/CyBLE.c ****             (void)memset(defaultValuesCCCD, 0, sizeof(defaultValuesCCCD));
 615:Generated_Source\PSoC4/CyBLE.c **** 
 616:Generated_Source\PSoC4/CyBLE.c ****             apiResult = CyBle_StoreAppData((uint8 *)defaultValuesCCCD, 
 617:Generated_Source\PSoC4/CyBLE.c ****                 (const uint8 *)cyBle_flashStorage.attValuesCCCDFlashMemory, sizeof(defaultValuesCCC
 618:Generated_Source\PSoC4/CyBLE.c ****             if(apiResult == CYBLE_ERROR_OK)
 619:Generated_Source\PSoC4/CyBLE.c ****             {
 620:Generated_Source\PSoC4/CyBLE.c ****                 cyBle_pendingFlashWrite &= (uint8)~CYBLE_PENDING_CCCD_FLASH_CLEAR_ALL_BIT;
 621:Generated_Source\PSoC4/CyBLE.c ****             }
 622:Generated_Source\PSoC4/CyBLE.c ****         }
 623:Generated_Source\PSoC4/CyBLE.c ****         else /* Remove cccd values for particular device */
 624:Generated_Source\PSoC4/CyBLE.c ****         {
 625:Generated_Source\PSoC4/CyBLE.c ****             uint8 defaultValuesCCCD[CYBLE_GATT_DB_CCCD_COUNT] = {0u};
 626:Generated_Source\PSoC4/CyBLE.c ****             
 627:Generated_Source\PSoC4/CyBLE.c ****             apiResult = CyBle_StoreAppData(defaultValuesCCCD, cyBle_flashStorage.attValuesCCCDFlash
 628:Generated_Source\PSoC4/CyBLE.c ****                                     cyBle_pendingFlashClearCccdHandle], CYBLE_GATT_DB_CCCD_COUNT, i
 629:Generated_Source\PSoC4/CyBLE.c ****             if(apiResult == CYBLE_ERROR_OK)
 630:Generated_Source\PSoC4/CyBLE.c ****             {
 631:Generated_Source\PSoC4/CyBLE.c ****                 cyBle_pendingFlashWrite &= (uint8)~CYBLE_PENDING_CCCD_FLASH_CLEAR_BIT;
 632:Generated_Source\PSoC4/CyBLE.c ****             }
 633:Generated_Source\PSoC4/CyBLE.c ****         }
 634:Generated_Source\PSoC4/CyBLE.c ****     }
 635:Generated_Source\PSoC4/CyBLE.c **** #endif /* CYBLE_GATT_DB_CCCD_COUNT != 0u */
 636:Generated_Source\PSoC4/CyBLE.c ****     return(apiResult);
 637:Generated_Source\PSoC4/CyBLE.c **** }
 638:Generated_Source\PSoC4/CyBLE.c **** 
 639:Generated_Source\PSoC4/CyBLE.c **** 
 640:Generated_Source\PSoC4/CyBLE.c **** /******************************************************************************
 641:Generated_Source\PSoC4/CyBLE.c **** * Function Name: CyBle_GapRemoveBondedDevice
 642:Generated_Source\PSoC4/CyBLE.c **** ***************************************************************************//**
 643:Generated_Source\PSoC4/CyBLE.c **** * 
 644:Generated_Source\PSoC4/CyBLE.c **** *  This function marks the device untrusted. It removes the bonding information
 645:Generated_Source\PSoC4/CyBLE.c **** *  of the device including CCCD values. This function removes device from the
 646:Generated_Source\PSoC4/CyBLE.c **** *  white list also when autopopulate white list with bonded devices option is
 647:Generated_Source\PSoC4/CyBLE.c **** *  enabled.
 648:Generated_Source\PSoC4/CyBLE.c **** * 
 649:Generated_Source\PSoC4/CyBLE.c **** *  This function is available only when Bonding requirement is selected in
 650:Generated_Source\PSoC4/CyBLE.c **** *  Security settings.    
 651:Generated_Source\PSoC4/CyBLE.c **** *
 652:Generated_Source\PSoC4/CyBLE.c **** *  \param bdAddr: Pointer to peer device address, of type CYBLE_GAP_BD_ADDR_T.
 653:Generated_Source\PSoC4/CyBLE.c **** *                 If device address is set to 0, then all devices shall be
 654:Generated_Source\PSoC4/CyBLE.c **** *                 removed from trusted list and white list.
 655:Generated_Source\PSoC4/CyBLE.c **** *
 656:Generated_Source\PSoC4/CyBLE.c **** * \return
 657:Generated_Source\PSoC4/CyBLE.c **** *  CYBLE_API_RESULT_T : Return value indicates if the function succeeded or
 658:Generated_Source\PSoC4/CyBLE.c **** *  failed. Following are the possible error codes.
 659:Generated_Source\PSoC4/CyBLE.c **** *
 660:Generated_Source\PSoC4/CyBLE.c **** *   Errors codes                     | Description
ARM GAS  C:\Users\Nick\AppData\Local\Temp\ccmuPAvR.s 			page 13


 661:Generated_Source\PSoC4/CyBLE.c **** *   ---------------------------------| ------------------------------------
 662:Generated_Source\PSoC4/CyBLE.c **** *   CYBLE_ERROR_OK                   | On successful operation.
 663:Generated_Source\PSoC4/CyBLE.c **** *   CYBLE_ERROR_INVALID_PARAMETER    | On specifying NULL as input parameter for 'bdAddr'.
 664:Generated_Source\PSoC4/CyBLE.c **** *   CYBLE_ERROR_INVALID_OPERATION    | Whitelist is already in use or there is pending write to fla
 665:Generated_Source\PSoC4/CyBLE.c **** *   CYBLE_ERROR_NO_DEVICE_ENTITY     | Device does not exist in the bond list.
 666:Generated_Source\PSoC4/CyBLE.c **** *
 667:Generated_Source\PSoC4/CyBLE.c **** *  \globalvars
 668:Generated_Source\PSoC4/CyBLE.c **** *   The bdHandle is set in cyBle_pendingFlashWrite variable to indicate that
 669:Generated_Source\PSoC4/CyBLE.c **** *   data should be stored to flash by CyBle_StoreBondingData afterwards. 
 670:Generated_Source\PSoC4/CyBLE.c **** *     
 671:Generated_Source\PSoC4/CyBLE.c **** ******************************************************************************/
 672:Generated_Source\PSoC4/CyBLE.c **** CYBLE_API_RESULT_T CyBle_GapRemoveBondedDevice(CYBLE_GAP_BD_ADDR_T* bdAddr)
 673:Generated_Source\PSoC4/CyBLE.c **** {
 674:Generated_Source\PSoC4/CyBLE.c ****     CYBLE_API_RESULT_T apiResult = CYBLE_ERROR_OK;
 675:Generated_Source\PSoC4/CyBLE.c ****     
 676:Generated_Source\PSoC4/CyBLE.c ****     if(cyBle_pendingFlashWrite == 0u)
 677:Generated_Source\PSoC4/CyBLE.c ****     {
 678:Generated_Source\PSoC4/CyBLE.c ****         
 679:Generated_Source\PSoC4/CyBLE.c ****     #if(CYBLE_GATT_DB_CCCD_COUNT != 0u)
 680:Generated_Source\PSoC4/CyBLE.c ****         /* Request to clear CCCD values which will be done by CyBle_StoreBondingData API */
 681:Generated_Source\PSoC4/CyBLE.c ****         uint8 bDevHandle;
 682:Generated_Source\PSoC4/CyBLE.c ****         CYBLE_GAP_BD_ADDR_T invalidBdAddr = {{0u,0u,0u,0u,0u,0u}, 0u};
 683:Generated_Source\PSoC4/CyBLE.c **** 
 684:Generated_Source\PSoC4/CyBLE.c ****         if(memcmp(((uint8 *) &(bdAddr->bdAddr)), ((uint8 *) &(invalidBdAddr.bdAddr)), CYBLE_GAP_BD_
 685:Generated_Source\PSoC4/CyBLE.c **** 	    {
 686:Generated_Source\PSoC4/CyBLE.c ****             /* Request to remove all bonded devices by cyBle_StoreBondingData API */
 687:Generated_Source\PSoC4/CyBLE.c ****             cyBle_pendingFlashWrite |= CYBLE_PENDING_CCCD_FLASH_CLEAR_ALL_BIT;
 688:Generated_Source\PSoC4/CyBLE.c ****         }
 689:Generated_Source\PSoC4/CyBLE.c ****         else
 690:Generated_Source\PSoC4/CyBLE.c ****         {
 691:Generated_Source\PSoC4/CyBLE.c ****             /* Get the BD handle from Address */
 692:Generated_Source\PSoC4/CyBLE.c ****             apiResult = CyBle_GapGetPeerBdHandle(&bDevHandle, bdAddr);
 693:Generated_Source\PSoC4/CyBLE.c ****             if(apiResult == CYBLE_ERROR_OK)
 694:Generated_Source\PSoC4/CyBLE.c ****             {
 695:Generated_Source\PSoC4/CyBLE.c ****                 /* Store BD handle to clear cccd values by CyBle_StoreBondingData API */
 696:Generated_Source\PSoC4/CyBLE.c ****                 cyBle_pendingFlashWrite |= CYBLE_PENDING_CCCD_FLASH_CLEAR_BIT;
 697:Generated_Source\PSoC4/CyBLE.c ****                 cyBle_pendingFlashClearCccdHandle = bDevHandle;
 698:Generated_Source\PSoC4/CyBLE.c ****             }
 699:Generated_Source\PSoC4/CyBLE.c ****         }
 700:Generated_Source\PSoC4/CyBLE.c ****         if(apiResult == CYBLE_ERROR_OK)
 701:Generated_Source\PSoC4/CyBLE.c ****         {
 702:Generated_Source\PSoC4/CyBLE.c ****             #if(CYBLE_AUTO_POPULATE_WHITELIST != 0u)
 703:Generated_Source\PSoC4/CyBLE.c ****                 apiResult = CyBle_GapRemoveDeviceFromWhiteList(bdAddr);
 704:Generated_Source\PSoC4/CyBLE.c ****             #else
 705:Generated_Source\PSoC4/CyBLE.c ****                 apiResult = CyBle_GapRemDeviceFromBondList(bdAddr);
 706:Generated_Source\PSoC4/CyBLE.c ****             #endif
 707:Generated_Source\PSoC4/CyBLE.c ****         }
 708:Generated_Source\PSoC4/CyBLE.c ****     #endif /* CYBLE_GATT_DB_CCCD_COUNT != 0u */
 709:Generated_Source\PSoC4/CyBLE.c ****     }
 710:Generated_Source\PSoC4/CyBLE.c ****     else
 711:Generated_Source\PSoC4/CyBLE.c ****     {
 712:Generated_Source\PSoC4/CyBLE.c ****         apiResult = CYBLE_ERROR_INVALID_OPERATION;
 713:Generated_Source\PSoC4/CyBLE.c ****     }
 714:Generated_Source\PSoC4/CyBLE.c ****     
 715:Generated_Source\PSoC4/CyBLE.c ****     return(apiResult);
 716:Generated_Source\PSoC4/CyBLE.c **** }
 717:Generated_Source\PSoC4/CyBLE.c **** 
ARM GAS  C:\Users\Nick\AppData\Local\Temp\ccmuPAvR.s 			page 14


 718:Generated_Source\PSoC4/CyBLE.c **** 
 719:Generated_Source\PSoC4/CyBLE.c **** #endif /* (CYBLE_GAP_ROLE_PERIPHERAL || CYBLE_GAP_ROLE_CENTRAL) && (CYBLE_BONDING_REQUIREMENT == CY
 720:Generated_Source\PSoC4/CyBLE.c **** 
 721:Generated_Source\PSoC4/CyBLE.c **** 
 722:Generated_Source\PSoC4/CyBLE.c **** #if(CYBLE_GAP_ROLE_PERIPHERAL || CYBLE_GAP_ROLE_BROADCASTER)
 723:Generated_Source\PSoC4/CyBLE.c **** 
 724:Generated_Source\PSoC4/CyBLE.c ****     /******************************************************************************
 725:Generated_Source\PSoC4/CyBLE.c ****     *  Function Name: CyBle_GappStartAdvertisement
 726:Generated_Source\PSoC4/CyBLE.c ****     ***************************************************************************//**
 727:Generated_Source\PSoC4/CyBLE.c ****     *     
 728:Generated_Source\PSoC4/CyBLE.c ****     *  This function is used to start the advertisement using the advertisement data 
 729:Generated_Source\PSoC4/CyBLE.c ****     *  set in the component customizer's GUI. After invoking this API, the device 
 730:Generated_Source\PSoC4/CyBLE.c ****     *  will be available for connection by the devices configured for GAP central 
 731:Generated_Source\PSoC4/CyBLE.c ****     *  role. It is only included if the device is configured for GAP Peripheral or 
 732:Generated_Source\PSoC4/CyBLE.c ****     *  GAP Peripheral + Central role.
 733:Generated_Source\PSoC4/CyBLE.c ****     *  
 734:Generated_Source\PSoC4/CyBLE.c ****     *  On start of advertisement, GAP Peripheral receives the
 735:Generated_Source\PSoC4/CyBLE.c ****     *  CYBLE_EVT_GAPP_ADVERTISEMENT_START_STOP event. The following events are 
 736:Generated_Source\PSoC4/CyBLE.c ****     *  possible on invoking this function:
 737:Generated_Source\PSoC4/CyBLE.c ****     *  
 738:Generated_Source\PSoC4/CyBLE.c ****     *  * CYBLE_EVT_GAP_DEVICE_CONNECTED - If the device connects to a GAP Central and 
 739:Generated_Source\PSoC4/CyBLE.c ****     *    Link Layer Privacy is disabled in component customizer.
 740:Generated_Source\PSoC4/CyBLE.c ****     *  * CYBLE_EVT_GAP_ENHANCE_CONN_COMPLETE - If the device connects to a GAP Central and 
 741:Generated_Source\PSoC4/CyBLE.c ****     *    Link Layer Privacy is enabled in component customizer.
 742:Generated_Source\PSoC4/CyBLE.c ****     *  * CYBLE_EVT_TIMEOUT: If no device in GAP Central mode connects to this 
 743:Generated_Source\PSoC4/CyBLE.c ****     *                       device within the specified timeout limit. Stack 
 744:Generated_Source\PSoC4/CyBLE.c ****     *                       automatically initiate stop advertising when Slow 
 745:Generated_Source\PSoC4/CyBLE.c ****     *                       advertising was initiated, or starts Slow advertising
 746:Generated_Source\PSoC4/CyBLE.c ****     *                       after Fast advertising timeout occur.
 747:Generated_Source\PSoC4/CyBLE.c ****     *  * CYBLE_EVT_GAPP_ADVERTISEMENT_START_STOP: If device started or stopped
 748:Generated_Source\PSoC4/CyBLE.c ****     *                                               advertising. Use CyBle_GetState()
 749:Generated_Source\PSoC4/CyBLE.c ****     *                                               to determine the state. Sequential 
 750:Generated_Source\PSoC4/CyBLE.c ****     *                                               advertising could be started when
 751:Generated_Source\PSoC4/CyBLE.c ****     *                                               CYBLE_STATE_DISCONNECTED state is
 752:Generated_Source\PSoC4/CyBLE.c ****     *                                               returned.
 753:Generated_Source\PSoC4/CyBLE.c ****     * 
 754:Generated_Source\PSoC4/CyBLE.c ****     *  \param advertisingIntervalType: Fast or slow advertising interval with timings
 755:Generated_Source\PSoC4/CyBLE.c ****     *                                 entered in Advertising settings section of the
 756:Generated_Source\PSoC4/CyBLE.c ****     *                                 customizer.
 757:Generated_Source\PSoC4/CyBLE.c ****     *  * CYBLE_ADVERTISING_FAST   0x00u
 758:Generated_Source\PSoC4/CyBLE.c ****     *  * CYBLE_ADVERTISING_SLOW   0x01u
 759:Generated_Source\PSoC4/CyBLE.c ****     *  * CYBLE_ADVERTISING_CUSTOM 0x02u
 760:Generated_Source\PSoC4/CyBLE.c ****     * 
 761:Generated_Source\PSoC4/CyBLE.c ****     * \return
 762:Generated_Source\PSoC4/CyBLE.c ****     *  CYBLE_API_RESULT_T : Return value indicates if the function succeeded or
 763:Generated_Source\PSoC4/CyBLE.c ****     *  failed. Following are the possible error codes.
 764:Generated_Source\PSoC4/CyBLE.c ****     * 
 765:Generated_Source\PSoC4/CyBLE.c ****     *   Errors codes                      |  Description
 766:Generated_Source\PSoC4/CyBLE.c ****     *   --------------------------------- |  --------------------------------
 767:Generated_Source\PSoC4/CyBLE.c ****     *   CYBLE_ERROR_OK                    |  On successful operation.
 768:Generated_Source\PSoC4/CyBLE.c ****     *   CYBLE_ERROR_INVALID_PARAMETER     |  On passing an invalid parameter.
 769:Generated_Source\PSoC4/CyBLE.c ****     *   CYBLE_ERROR_INVALID_STATE         |  On calling this API not in Disconnected state.
 770:Generated_Source\PSoC4/CyBLE.c ****     *
 771:Generated_Source\PSoC4/CyBLE.c ****     * 
 772:Generated_Source\PSoC4/CyBLE.c ****     *******************************************************************************/
 773:Generated_Source\PSoC4/CyBLE.c ****     CYBLE_API_RESULT_T CyBle_GappStartAdvertisement(uint8 advertisingIntervalType)
 774:Generated_Source\PSoC4/CyBLE.c ****     {
ARM GAS  C:\Users\Nick\AppData\Local\Temp\ccmuPAvR.s 			page 15


 775:Generated_Source\PSoC4/CyBLE.c ****         CYBLE_API_RESULT_T apiResult;
 776:Generated_Source\PSoC4/CyBLE.c ****         
 777:Generated_Source\PSoC4/CyBLE.c ****         if(advertisingIntervalType > CYBLE_ADVERTISING_CUSTOM)
 778:Generated_Source\PSoC4/CyBLE.c ****         {
 779:Generated_Source\PSoC4/CyBLE.c ****             apiResult = CYBLE_ERROR_INVALID_PARAMETER;
 780:Generated_Source\PSoC4/CyBLE.c ****         }
 781:Generated_Source\PSoC4/CyBLE.c ****         else if((CYBLE_STATE_DISCONNECTED == CyBle_GetState()) && ((cyBle_eventHandlerFlag & CYBLE_
 782:Generated_Source\PSoC4/CyBLE.c ****         {   
 783:Generated_Source\PSoC4/CyBLE.c ****             if(advertisingIntervalType == CYBLE_ADVERTISING_FAST)
 784:Generated_Source\PSoC4/CyBLE.c ****             {
 785:Generated_Source\PSoC4/CyBLE.c ****                 cyBle_discoveryModeInfo.advTo = CYBLE_FAST_ADV_TIMEOUT;
 786:Generated_Source\PSoC4/CyBLE.c ****                 cyBle_discoveryModeInfo.advParam->advIntvMin = CYBLE_FAST_ADV_INT_MIN;
 787:Generated_Source\PSoC4/CyBLE.c ****                 cyBle_discoveryModeInfo.advParam->advIntvMax = CYBLE_FAST_ADV_INT_MAX;
 788:Generated_Source\PSoC4/CyBLE.c ****             }
 789:Generated_Source\PSoC4/CyBLE.c ****             else if(advertisingIntervalType == CYBLE_ADVERTISING_SLOW)
 790:Generated_Source\PSoC4/CyBLE.c ****             {
 791:Generated_Source\PSoC4/CyBLE.c ****                 cyBle_discoveryModeInfo.advTo = CYBLE_SLOW_ADV_TIMEOUT;
 792:Generated_Source\PSoC4/CyBLE.c ****                 cyBle_discoveryModeInfo.advParam->advIntvMin = CYBLE_SLOW_ADV_INT_MIN;
 793:Generated_Source\PSoC4/CyBLE.c ****                 cyBle_discoveryModeInfo.advParam->advIntvMax = CYBLE_SLOW_ADV_INT_MAX;
 794:Generated_Source\PSoC4/CyBLE.c ****             }       
 795:Generated_Source\PSoC4/CyBLE.c ****             else /* Do not update advertising intervals */
 796:Generated_Source\PSoC4/CyBLE.c ****             {
 797:Generated_Source\PSoC4/CyBLE.c ****             }
 798:Generated_Source\PSoC4/CyBLE.c ****             cyBle_advertisingIntervalType = advertisingIntervalType;
 799:Generated_Source\PSoC4/CyBLE.c ****             apiResult = CyBle_GappEnterDiscoveryMode(&cyBle_discoveryModeInfo);
 800:Generated_Source\PSoC4/CyBLE.c ****         
 801:Generated_Source\PSoC4/CyBLE.c ****             if(CYBLE_ERROR_OK == apiResult)
 802:Generated_Source\PSoC4/CyBLE.c ****             {
 803:Generated_Source\PSoC4/CyBLE.c ****                 cyBle_eventHandlerFlag |= CYBLE_START_FLAG;
 804:Generated_Source\PSoC4/CyBLE.c ****             }
 805:Generated_Source\PSoC4/CyBLE.c ****         }
 806:Generated_Source\PSoC4/CyBLE.c ****         else
 807:Generated_Source\PSoC4/CyBLE.c ****         {
 808:Generated_Source\PSoC4/CyBLE.c ****             apiResult = CYBLE_ERROR_INVALID_STATE;
 809:Generated_Source\PSoC4/CyBLE.c ****         }
 810:Generated_Source\PSoC4/CyBLE.c **** 
 811:Generated_Source\PSoC4/CyBLE.c ****         return (apiResult);
 812:Generated_Source\PSoC4/CyBLE.c ****     }
 813:Generated_Source\PSoC4/CyBLE.c **** 
 814:Generated_Source\PSoC4/CyBLE.c ****     
 815:Generated_Source\PSoC4/CyBLE.c ****     /******************************************************************************
 816:Generated_Source\PSoC4/CyBLE.c ****     * Function Name: CyBle_GappStopAdvertisement
 817:Generated_Source\PSoC4/CyBLE.c ****     ***************************************************************************//**
 818:Generated_Source\PSoC4/CyBLE.c ****     * 
 819:Generated_Source\PSoC4/CyBLE.c ****     *   This function can be used to exit from discovery mode. After the execution 
 820:Generated_Source\PSoC4/CyBLE.c ****     *   of this function, there will no longer be any advertisements. On stopping 
 821:Generated_Source\PSoC4/CyBLE.c ****     *   advertising, GAP Peripheral receives CYBLE_EVT_GAPP_ADVERTISEMENT_START_STOP
 822:Generated_Source\PSoC4/CyBLE.c ****     *   event. It is expected that the application layer tracks the function call 
 823:Generated_Source\PSoC4/CyBLE.c ****     *   performed before occurrence of this event as this event can occur on making 
 824:Generated_Source\PSoC4/CyBLE.c ****     *   a call to Cy_BleGappStartAdvertisement(), CyBle_GappEnterDiscoveryMode(), 
 825:Generated_Source\PSoC4/CyBLE.c ****     *   or CyBle_GappStartAdvertisement() functions as well.
 826:Generated_Source\PSoC4/CyBLE.c ****     *   
 827:Generated_Source\PSoC4/CyBLE.c ****     *   The following event occurs on invoking this function:
 828:Generated_Source\PSoC4/CyBLE.c ****     *   * CYBLE_EVT_GAPP_ADVERTISEMENT_START_STOP
 829:Generated_Source\PSoC4/CyBLE.c ****     * 
 830:Generated_Source\PSoC4/CyBLE.c ****     *  \return
 831:Generated_Source\PSoC4/CyBLE.c ****     *   None
ARM GAS  C:\Users\Nick\AppData\Local\Temp\ccmuPAvR.s 			page 16


 832:Generated_Source\PSoC4/CyBLE.c ****     * 
 833:Generated_Source\PSoC4/CyBLE.c ****     *******************************************************************************/
 834:Generated_Source\PSoC4/CyBLE.c ****     void CyBle_GappStopAdvertisement(void)
 835:Generated_Source\PSoC4/CyBLE.c ****     {
 836:Generated_Source\PSoC4/CyBLE.c ****         CyBle_GappExitDiscoveryMode();
 837:Generated_Source\PSoC4/CyBLE.c ****         cyBle_eventHandlerFlag |= CYBLE_STOP_FLAG;
 838:Generated_Source\PSoC4/CyBLE.c ****     }
 839:Generated_Source\PSoC4/CyBLE.c ****     
 840:Generated_Source\PSoC4/CyBLE.c ****     
 841:Generated_Source\PSoC4/CyBLE.c ****     /******************************************************************************
 842:Generated_Source\PSoC4/CyBLE.c ****     * Function Name: CyBle_ChangeAdDeviceAddress
 843:Generated_Source\PSoC4/CyBLE.c ****     ***************************************************************************//**
 844:Generated_Source\PSoC4/CyBLE.c ****     * 
 845:Generated_Source\PSoC4/CyBLE.c ****     *  This API is used to set the Bluetooth device address into the advertisement 
 846:Generated_Source\PSoC4/CyBLE.c ****     *  or scan response data structure.
 847:Generated_Source\PSoC4/CyBLE.c ****     * 
 848:Generated_Source\PSoC4/CyBLE.c ****     *  \param bdAddr: Bluetooth Device address. The variable is of type CYBLE_GAP_BD_ADDR_T
 849:Generated_Source\PSoC4/CyBLE.c ****     *  \param dest: 0 - selects advertisement structure, not zero value selects scan 
 850:Generated_Source\PSoC4/CyBLE.c ****     *               response structure.
 851:Generated_Source\PSoC4/CyBLE.c ****     * 
 852:Generated_Source\PSoC4/CyBLE.c ****     * \return
 853:Generated_Source\PSoC4/CyBLE.c ****     *  None
 854:Generated_Source\PSoC4/CyBLE.c ****     *  
 855:Generated_Source\PSoC4/CyBLE.c ****     *******************************************************************************/
 856:Generated_Source\PSoC4/CyBLE.c ****     void CyBle_ChangeAdDeviceAddress(const CYBLE_GAP_BD_ADDR_T* bdAddr, uint8 dest)
 857:Generated_Source\PSoC4/CyBLE.c ****     {
 858:Generated_Source\PSoC4/CyBLE.c ****         uint8 i;
 859:Generated_Source\PSoC4/CyBLE.c ****         uint8 *destBuffer = NULL;
 860:Generated_Source\PSoC4/CyBLE.c ****         
 861:Generated_Source\PSoC4/CyBLE.c ****         if(dest == 0u)      /* Destination - advertising structure */
 862:Generated_Source\PSoC4/CyBLE.c ****         {
 863:Generated_Source\PSoC4/CyBLE.c ****             #ifdef CYBLE_ADV_PKT_INDEX_BLUETOOTH_DEVICE_ADDRESS
 864:Generated_Source\PSoC4/CyBLE.c ****                 destBuffer = &cyBle_discoveryData.advData[CYBLE_ADV_PKT_INDEX_BLUETOOTH_DEVICE_ADDR
 865:Generated_Source\PSoC4/CyBLE.c ****             #endif /* CYBLE_ADV_PKT_INDEX_BLUETOOTH_DEVICE_ADDRESS */
 866:Generated_Source\PSoC4/CyBLE.c ****         }
 867:Generated_Source\PSoC4/CyBLE.c ****         else                /* Destination - scan response structure */
 868:Generated_Source\PSoC4/CyBLE.c ****         {
 869:Generated_Source\PSoC4/CyBLE.c ****             #ifdef CYBLE_SCN_PKT_INDEX_BLUETOOTH_DEVICE_ADDRESS
 870:Generated_Source\PSoC4/CyBLE.c ****                 destBuffer = &cyBle_scanRspData.scanRspData[CYBLE_SCN_PKT_INDEX_BLUETOOTH_DEVICE_AD
 871:Generated_Source\PSoC4/CyBLE.c ****             #endif /* CYBLE_SCN_PKT_INDEX_BLUETOOTH_DEVICE_ADDRESS */    
 872:Generated_Source\PSoC4/CyBLE.c ****         }
 873:Generated_Source\PSoC4/CyBLE.c ****         
 874:Generated_Source\PSoC4/CyBLE.c ****         if(destBuffer != NULL)
 875:Generated_Source\PSoC4/CyBLE.c ****         {
 876:Generated_Source\PSoC4/CyBLE.c ****             /* Update Device Address type */
 877:Generated_Source\PSoC4/CyBLE.c ****             destBuffer[0u] = bdAddr->type;
 878:Generated_Source\PSoC4/CyBLE.c ****             
 879:Generated_Source\PSoC4/CyBLE.c ****             for(i = 0u; i < CYBLE_GAP_BD_ADDR_SIZE; i++)
 880:Generated_Source\PSoC4/CyBLE.c ****             {
 881:Generated_Source\PSoC4/CyBLE.c ****                 destBuffer[i + 1u] = bdAddr->bdAddr[i];
 882:Generated_Source\PSoC4/CyBLE.c ****             }
 883:Generated_Source\PSoC4/CyBLE.c ****         }
 884:Generated_Source\PSoC4/CyBLE.c ****     }
 885:Generated_Source\PSoC4/CyBLE.c ****   
 886:Generated_Source\PSoC4/CyBLE.c **** #endif /* CYBLE_GAP_ROLE_PERIPHERAL || CYBLE_GAP_ROLE_BROADCASTER */
 887:Generated_Source\PSoC4/CyBLE.c **** 
 888:Generated_Source\PSoC4/CyBLE.c **** 
ARM GAS  C:\Users\Nick\AppData\Local\Temp\ccmuPAvR.s 			page 17


 889:Generated_Source\PSoC4/CyBLE.c **** #if(CYBLE_GAP_ROLE_CENTRAL || CYBLE_GAP_ROLE_OBSERVER)
 890:Generated_Source\PSoC4/CyBLE.c **** 
 891:Generated_Source\PSoC4/CyBLE.c ****     /******************************************************************************
 892:Generated_Source\PSoC4/CyBLE.c ****     * Function Name: CyBle_GapcStartScan
 893:Generated_Source\PSoC4/CyBLE.c ****     ***************************************************************************//**
 894:Generated_Source\PSoC4/CyBLE.c ****     * 
 895:Generated_Source\PSoC4/CyBLE.c ****     *   This function is used for discovering GAP peripheral devices that are 
 896:Generated_Source\PSoC4/CyBLE.c ****     *   available for connection. It performs the scanning routine using the 
 897:Generated_Source\PSoC4/CyBLE.c ****     *   parameters entered in the component's customizer.
 898:Generated_Source\PSoC4/CyBLE.c ****     *   
 899:Generated_Source\PSoC4/CyBLE.c ****     *   As soon as the discovery operation starts, CYBLE_EVT_GAPC_SCAN_START_STOP 
 900:Generated_Source\PSoC4/CyBLE.c ****     *   event is generated. The CYBLE_EVT_GAPC_SCAN_PROGRESS_RESULT event is 
 901:Generated_Source\PSoC4/CyBLE.c ****     *   generated when a GAP peripheral device is located. There are three discovery
 902:Generated_Source\PSoC4/CyBLE.c ****     *   procedures can be selected in the customizer's GUI:
 903:Generated_Source\PSoC4/CyBLE.c ****     *   
 904:Generated_Source\PSoC4/CyBLE.c ****     *   * Observation procedure: A device performing the observer role receives only
 905:Generated_Source\PSoC4/CyBLE.c ****     *                            advertisement data from devices irrespective of 
 906:Generated_Source\PSoC4/CyBLE.c ****     *                            their discoverable mode settings. Advertisement 
 907:Generated_Source\PSoC4/CyBLE.c ****     *                            data received is provided by the event,      
 908:Generated_Source\PSoC4/CyBLE.c ****     *                            CYBLE_EVT_GAPC_SCAN_PROGRESS_RESULT. This procedure
 909:Generated_Source\PSoC4/CyBLE.c ****     *                            requires the scanType sub parameter to be passive
 910:Generated_Source\PSoC4/CyBLE.c ****     *                            scanning. 
 911:Generated_Source\PSoC4/CyBLE.c ****     *   
 912:Generated_Source\PSoC4/CyBLE.c ****     *   * Limited Discovery procedure: A device performing the limited discovery
 913:Generated_Source\PSoC4/CyBLE.c ****     *                                  procedure receives advertisement data and 
 914:Generated_Source\PSoC4/CyBLE.c ****     *                                  scan# response data from devices in the 
 915:Generated_Source\PSoC4/CyBLE.c ****     *                                  limited discoverable mode only. Received data
 916:Generated_Source\PSoC4/CyBLE.c ****     *                                  is provided by the event, 
 917:Generated_Source\PSoC4/CyBLE.c ****     *                                  CYBLE_EVT_GAPC_SCAN_PROGRESS_RESULT. This 
 918:Generated_Source\PSoC4/CyBLE.c ****     *                                  procedure requires the scanType sub-parameter 
 919:Generated_Source\PSoC4/CyBLE.c ****     *                                  to be active scanning.
 920:Generated_Source\PSoC4/CyBLE.c ****     *   
 921:Generated_Source\PSoC4/CyBLE.c ****     *   * General Discovery procedure: A device performing the general discovery 
 922:Generated_Source\PSoC4/CyBLE.c ****     *                                  procedure receives the advertisement data and
 923:Generated_Source\PSoC4/CyBLE.c ****     *                                  scan response data from devices in both 
 924:Generated_Source\PSoC4/CyBLE.c ****     *                                  limited discoverable mode and the general 
 925:Generated_Source\PSoC4/CyBLE.c ****     *                                  discoverable mode. Received data is provided
 926:Generated_Source\PSoC4/CyBLE.c ****     *                                  by the event,
 927:Generated_Source\PSoC4/CyBLE.c ****     *                                  CYBLE_EVT_GAPC_SCAN_PROGRESS_RESULT. This 
 928:Generated_Source\PSoC4/CyBLE.c ****     *                                  procedure requires the scanType sub-parameter
 929:Generated_Source\PSoC4/CyBLE.c ****     *                                  to be active scanning.
 930:Generated_Source\PSoC4/CyBLE.c ****     *   
 931:Generated_Source\PSoC4/CyBLE.c ****     *   Every Advertisement / Scan response packet received results in a new event, 
 932:Generated_Source\PSoC4/CyBLE.c ****     *   CYBLE_EVT_GAPC_SCAN_PROGRESS_RESULT.
 933:Generated_Source\PSoC4/CyBLE.c ****     *   If 'scanTo' sub-parameter is a non-zero value, then upon commencement of 
 934:Generated_Source\PSoC4/CyBLE.c ****     *   discovery procedure and elapsed time = 'scanTo', CYBLE_EVT_TIMEOUT event
 935:Generated_Source\PSoC4/CyBLE.c ****     *   is generated with the event parameter indicating CYBLE_GAP_SCAN_TO.
 936:Generated_Source\PSoC4/CyBLE.c ****     *   Possible generated events are:
 937:Generated_Source\PSoC4/CyBLE.c ****     *   * CYBLE_EVT_GAPC_SCAN_START_STOP: If a device started or stopped scanning. 
 938:Generated_Source\PSoC4/CyBLE.c ****     *                                     Use CyBle_GetState() to determine the 
 939:Generated_Source\PSoC4/CyBLE.c ****     *                                     state. Sequential scanning could be 
 940:Generated_Source\PSoC4/CyBLE.c ****     *                                     started when CYBLE_STATE_DISCONNECTED 
 941:Generated_Source\PSoC4/CyBLE.c ****     *                                     state is returned. 
 942:Generated_Source\PSoC4/CyBLE.c ****     *   * CYBLE_EVT_GAPC_SCAN_PROGRESS_RESULT 
 943:Generated_Source\PSoC4/CyBLE.c ****     *   * CYBLE_EVT_TIMEOUT (CYBLE_GAP_SCAN_TO)
 944:Generated_Source\PSoC4/CyBLE.c ****     * 
 945:Generated_Source\PSoC4/CyBLE.c ****     *   \param scanningIntervalType:  Fast or slow scanning interval with
ARM GAS  C:\Users\Nick\AppData\Local\Temp\ccmuPAvR.s 			page 18


 946:Generated_Source\PSoC4/CyBLE.c ****     *       timings entered in Scan settings section of the customizer.
 947:Generated_Source\PSoC4/CyBLE.c ****     * 	  * CYBLE_SCANNING_FAST   0x00u
 948:Generated_Source\PSoC4/CyBLE.c ****     * 	  * CYBLE_SCANNING_SLOW   0x01u
 949:Generated_Source\PSoC4/CyBLE.c ****     * 	  * CYBLE_SCANNING_CUSTOM 0x02u
 950:Generated_Source\PSoC4/CyBLE.c ****     * 
 951:Generated_Source\PSoC4/CyBLE.c ****     * \return
 952:Generated_Source\PSoC4/CyBLE.c ****     *  CYBLE_API_RESULT_T : Return value indicates if the function succeeded or
 953:Generated_Source\PSoC4/CyBLE.c ****     *  failed. Following are the possible error codes.
 954:Generated_Source\PSoC4/CyBLE.c ****     *
 955:Generated_Source\PSoC4/CyBLE.c ****     *   Errors codes                       | Description
 956:Generated_Source\PSoC4/CyBLE.c ****     *   ---------------------------------- | -----------------------------------
 957:Generated_Source\PSoC4/CyBLE.c ****     *   CYBLE_ERROR_OK                     | On successful operation.
 958:Generated_Source\PSoC4/CyBLE.c ****     *   CYBLE_ERROR_STACK_INTERNAL         | An error occurred in the BLE stack.
 959:Generated_Source\PSoC4/CyBLE.c ****     *   CYBLE_ERROR_INVALID_PARAMETER      | On passing an invalid parameter.
 960:Generated_Source\PSoC4/CyBLE.c ****     *  
 961:Generated_Source\PSoC4/CyBLE.c ****     *******************************************************************************/
 962:Generated_Source\PSoC4/CyBLE.c ****     CYBLE_API_RESULT_T CyBle_GapcStartScan(uint8 scanningIntervalType)
 963:Generated_Source\PSoC4/CyBLE.c ****     {
 964:Generated_Source\PSoC4/CyBLE.c ****         CYBLE_API_RESULT_T apiResult;
 965:Generated_Source\PSoC4/CyBLE.c **** 
 966:Generated_Source\PSoC4/CyBLE.c ****         if(scanningIntervalType > CYBLE_SCANNING_CUSTOM)
 967:Generated_Source\PSoC4/CyBLE.c ****         {
 968:Generated_Source\PSoC4/CyBLE.c ****             apiResult = CYBLE_ERROR_INVALID_PARAMETER;
 969:Generated_Source\PSoC4/CyBLE.c ****         }
 970:Generated_Source\PSoC4/CyBLE.c ****         else
 971:Generated_Source\PSoC4/CyBLE.c ****         {
 972:Generated_Source\PSoC4/CyBLE.c ****             if(scanningIntervalType == CYBLE_SCANNING_FAST)
 973:Generated_Source\PSoC4/CyBLE.c ****             {
 974:Generated_Source\PSoC4/CyBLE.c ****                 cyBle_discoveryInfo.scanTo = CYBLE_FAST_SCAN_TIMEOUT;
 975:Generated_Source\PSoC4/CyBLE.c ****                 cyBle_discoveryInfo.scanIntv = CYBLE_FAST_SCAN_INTERVAL;
 976:Generated_Source\PSoC4/CyBLE.c ****                 cyBle_discoveryInfo.scanWindow = CYBLE_FAST_SCAN_WINDOW;
 977:Generated_Source\PSoC4/CyBLE.c ****             }
 978:Generated_Source\PSoC4/CyBLE.c ****             else if(scanningIntervalType == CYBLE_SCANNING_SLOW)
 979:Generated_Source\PSoC4/CyBLE.c ****             {
 980:Generated_Source\PSoC4/CyBLE.c ****                 cyBle_discoveryInfo.scanTo = CYBLE_SLOW_SCAN_TIMEOUT;
 981:Generated_Source\PSoC4/CyBLE.c ****                 cyBle_discoveryInfo.scanIntv = CYBLE_SLOW_SCAN_INTERVAL;
 982:Generated_Source\PSoC4/CyBLE.c ****                 cyBle_discoveryInfo.scanWindow = CYBLE_SLOW_SCAN_WINDOW;
 983:Generated_Source\PSoC4/CyBLE.c ****             }       
 984:Generated_Source\PSoC4/CyBLE.c ****             else /* Do not update scanning intervals */
 985:Generated_Source\PSoC4/CyBLE.c ****             {
 986:Generated_Source\PSoC4/CyBLE.c ****             }
 987:Generated_Source\PSoC4/CyBLE.c ****             
 988:Generated_Source\PSoC4/CyBLE.c ****             cyBle_scanningIntervalType = scanningIntervalType;
 989:Generated_Source\PSoC4/CyBLE.c ****             apiResult = CyBle_GapcStartDiscovery(&cyBle_discoveryInfo);
 990:Generated_Source\PSoC4/CyBLE.c ****         
 991:Generated_Source\PSoC4/CyBLE.c ****             if(CYBLE_ERROR_OK == apiResult)
 992:Generated_Source\PSoC4/CyBLE.c ****             {
 993:Generated_Source\PSoC4/CyBLE.c ****                 cyBle_eventHandlerFlag |= CYBLE_START_FLAG;
 994:Generated_Source\PSoC4/CyBLE.c ****             }
 995:Generated_Source\PSoC4/CyBLE.c ****         }
 996:Generated_Source\PSoC4/CyBLE.c ****        
 997:Generated_Source\PSoC4/CyBLE.c ****         return (apiResult);
 998:Generated_Source\PSoC4/CyBLE.c ****     }
 999:Generated_Source\PSoC4/CyBLE.c ****     
1000:Generated_Source\PSoC4/CyBLE.c ****     
1001:Generated_Source\PSoC4/CyBLE.c ****     /******************************************************************************
1002:Generated_Source\PSoC4/CyBLE.c ****     * Function Name: CyBle_GapcStopScan
ARM GAS  C:\Users\Nick\AppData\Local\Temp\ccmuPAvR.s 			page 19


1003:Generated_Source\PSoC4/CyBLE.c ****     ***************************************************************************//**
1004:Generated_Source\PSoC4/CyBLE.c ****     * 
1005:Generated_Source\PSoC4/CyBLE.c ****     *   This function used to stop the discovery of devices. On stopping discovery
1006:Generated_Source\PSoC4/CyBLE.c ****     *   operation, CYBLE_EVT_GAPC_SCAN_START_STOP event is generated. Application
1007:Generated_Source\PSoC4/CyBLE.c ****     *   layer needs to keep track of the function call made before receiving this
1008:Generated_Source\PSoC4/CyBLE.c ****     *   event to associate this event with either the start or stop discovery
1009:Generated_Source\PSoC4/CyBLE.c ****     *   function.
1010:Generated_Source\PSoC4/CyBLE.c ****     * 
1011:Generated_Source\PSoC4/CyBLE.c ****     *   Possible events generated are:
1012:Generated_Source\PSoC4/CyBLE.c ****     *    * CYBLE_EVT_GAPC_SCAN_START_STOP
1013:Generated_Source\PSoC4/CyBLE.c ****     * 
1014:Generated_Source\PSoC4/CyBLE.c ****     *  \return
1015:Generated_Source\PSoC4/CyBLE.c ****     *   None
1016:Generated_Source\PSoC4/CyBLE.c ****     * 
1017:Generated_Source\PSoC4/CyBLE.c ****     *******************************************************************************/
1018:Generated_Source\PSoC4/CyBLE.c ****     void CyBle_GapcStopScan(void)
1019:Generated_Source\PSoC4/CyBLE.c ****     {
1020:Generated_Source\PSoC4/CyBLE.c ****         CyBle_GapcStopDiscovery();
1021:Generated_Source\PSoC4/CyBLE.c ****         
1022:Generated_Source\PSoC4/CyBLE.c ****         cyBle_eventHandlerFlag |= CYBLE_STOP_FLAG;
1023:Generated_Source\PSoC4/CyBLE.c ****     }
1024:Generated_Source\PSoC4/CyBLE.c **** 
1025:Generated_Source\PSoC4/CyBLE.c ****     
1026:Generated_Source\PSoC4/CyBLE.c **** #endif /* CYBLE_GAP_ROLE_CENTRAL || CYBLE_GAP_ROLE_OBSERVER */
1027:Generated_Source\PSoC4/CyBLE.c **** 
1028:Generated_Source\PSoC4/CyBLE.c **** 
1029:Generated_Source\PSoC4/CyBLE.c **** #if(CYBLE_GAP_ROLE_CENTRAL)
1030:Generated_Source\PSoC4/CyBLE.c **** 
1031:Generated_Source\PSoC4/CyBLE.c ****     /******************************************************************************
1032:Generated_Source\PSoC4/CyBLE.c ****     * Function Name: CyBle_GapcConnectDevice
1033:Generated_Source\PSoC4/CyBLE.c ****     ***************************************************************************//**
1034:Generated_Source\PSoC4/CyBLE.c ****     * 
1035:Generated_Source\PSoC4/CyBLE.c ****     *  This function is used to send a connection request to the remote device with
1036:Generated_Source\PSoC4/CyBLE.c ****     *  the connection parameters set in the component customizer. This function needs
1037:Generated_Source\PSoC4/CyBLE.c ****     *  to be called only once after the target device is discovered by 
1038:Generated_Source\PSoC4/CyBLE.c ****     *  CyBle_GapcStartScan() and further scanning has stopped. Scanning is 
1039:Generated_Source\PSoC4/CyBLE.c ****     *  successfully stopped on invoking CyBle_GapcStopScan() and then receiving the
1040:Generated_Source\PSoC4/CyBLE.c ****     *  event CYBLE_EVT_GAPC_SCAN_START_STOP with sub-parameter 'success' = 0x01u.
1041:Generated_Source\PSoC4/CyBLE.c ****     *  
1042:Generated_Source\PSoC4/CyBLE.c ****     *  On successful connection, the following events are generated at the GAP 
1043:Generated_Source\PSoC4/CyBLE.c ****     *  Central device (as well as the GAP Peripheral device), in the following order.
1044:Generated_Source\PSoC4/CyBLE.c ****     *  * CYBLE_EVT_GATT_CONNECT_IND
1045:Generated_Source\PSoC4/CyBLE.c ****     *  * CYBLE_EVT_GAP_DEVICE_CONNECTED - If the device connects to a GAP Central and 
1046:Generated_Source\PSoC4/CyBLE.c ****     *    Link Layer Privacy is disabled in component customizer.
1047:Generated_Source\PSoC4/CyBLE.c ****     *  * CYBLE_EVT_GAP_ENHANCE_CONN_COMPLETE - If the device connects to a GAP Central and 
1048:Generated_Source\PSoC4/CyBLE.c ****     *    Link Layer Privacy is enabled in component customizer.
1049:Generated_Source\PSoC4/CyBLE.c ****     *  * CYBLE_EVT_GAP_DEVICE_CONNECTED
1050:Generated_Source\PSoC4/CyBLE.c ****     *  
1051:Generated_Source\PSoC4/CyBLE.c ****     *  A procedure is considered to have timed out if a connection response packet is 
1052:Generated_Source\PSoC4/CyBLE.c ****     *  not received within time set by cyBle_connectingTimeout global variable
1053:Generated_Source\PSoC4/CyBLE.c ****     *  (30 seconds by default). CYBLE_EVT_TIMEOUT event with CYBLE_GENERIC_TO parameter
1054:Generated_Source\PSoC4/CyBLE.c ****     *  will indicate about connection procedure timeout. Connection will automatically
1055:Generated_Source\PSoC4/CyBLE.c ****     *  be canceled and state will be changed to CYBLE_STATE_DISCONNECTED.
1056:Generated_Source\PSoC4/CyBLE.c ****     * 
1057:Generated_Source\PSoC4/CyBLE.c ****     *  \param address: The device address of the remote device to connect to. 
1058:Generated_Source\PSoC4/CyBLE.c ****     *  
1059:Generated_Source\PSoC4/CyBLE.c ****     * \return
ARM GAS  C:\Users\Nick\AppData\Local\Temp\ccmuPAvR.s 			page 20


1060:Generated_Source\PSoC4/CyBLE.c ****     *  CYBLE_API_RESULT_T : Return value indicates if the function succeeded or 
1061:Generated_Source\PSoC4/CyBLE.c ****     *  failed. Following are the possible error codes.
1062:Generated_Source\PSoC4/CyBLE.c ****     *
1063:Generated_Source\PSoC4/CyBLE.c ****     *   Errors codes                       | Description
1064:Generated_Source\PSoC4/CyBLE.c ****     *   ------------                       | -----------
1065:Generated_Source\PSoC4/CyBLE.c ****     *   CYBLE_ERROR_OK                     | On successful operation.
1066:Generated_Source\PSoC4/CyBLE.c ****     *   CYBLE_ERROR_STACK_INTERNAL         | On error occurred in the BLE stack.
1067:Generated_Source\PSoC4/CyBLE.c ****     *   CYBLE_ERROR_INVALID_PARAMETER      | On passing an invalid parameter.
1068:Generated_Source\PSoC4/CyBLE.c ****     *   CYBLE_ERROR_INVALID_STATE          | On calling this API not in Disconnected state.
1069:Generated_Source\PSoC4/CyBLE.c ****     *  
1070:Generated_Source\PSoC4/CyBLE.c ****     ******************************************************************************/
1071:Generated_Source\PSoC4/CyBLE.c ****     CYBLE_API_RESULT_T CyBle_GapcConnectDevice(const CYBLE_GAP_BD_ADDR_T * address)
1072:Generated_Source\PSoC4/CyBLE.c ****     {
1073:Generated_Source\PSoC4/CyBLE.c ****         CYBLE_API_RESULT_T apiResult;
1074:Generated_Source\PSoC4/CyBLE.c ****         uint8 i;
1075:Generated_Source\PSoC4/CyBLE.c **** 
1076:Generated_Source\PSoC4/CyBLE.c ****         if(CyBle_GetState() != CYBLE_STATE_DISCONNECTED)
1077:Generated_Source\PSoC4/CyBLE.c ****         {
1078:Generated_Source\PSoC4/CyBLE.c ****             apiResult = CYBLE_ERROR_INVALID_STATE;
1079:Generated_Source\PSoC4/CyBLE.c ****         }
1080:Generated_Source\PSoC4/CyBLE.c ****         else if(address == NULL)
1081:Generated_Source\PSoC4/CyBLE.c ****         {
1082:Generated_Source\PSoC4/CyBLE.c ****             apiResult = CYBLE_ERROR_INVALID_PARAMETER;
1083:Generated_Source\PSoC4/CyBLE.c ****         }
1084:Generated_Source\PSoC4/CyBLE.c ****         else
1085:Generated_Source\PSoC4/CyBLE.c ****         {
1086:Generated_Source\PSoC4/CyBLE.c ****             for(i = 0u; i < CYBLE_GAP_BD_ADDR_SIZE; i++)
1087:Generated_Source\PSoC4/CyBLE.c ****             {
1088:Generated_Source\PSoC4/CyBLE.c ****                 cyBle_connectionParameters.peerBdAddr[i] = address->bdAddr[i];
1089:Generated_Source\PSoC4/CyBLE.c ****             }
1090:Generated_Source\PSoC4/CyBLE.c ****             cyBle_connectionParameters.peerAddrType = address -> type;
1091:Generated_Source\PSoC4/CyBLE.c ****             apiResult = CyBle_GapcInitConnection(&cyBle_connectionParameters);
1092:Generated_Source\PSoC4/CyBLE.c ****             
1093:Generated_Source\PSoC4/CyBLE.c ****             if(apiResult == CYBLE_ERROR_OK)
1094:Generated_Source\PSoC4/CyBLE.c ****             {
1095:Generated_Source\PSoC4/CyBLE.c ****                 CyBle_SetState(CYBLE_STATE_CONNECTING);
1096:Generated_Source\PSoC4/CyBLE.c ****                 if(cyBle_connectingTimeout != 0u)
1097:Generated_Source\PSoC4/CyBLE.c ****                 {
1098:Generated_Source\PSoC4/CyBLE.c ****                     (void)CyBle_StartTimer(cyBle_connectingTimeout);
1099:Generated_Source\PSoC4/CyBLE.c ****                 }
1100:Generated_Source\PSoC4/CyBLE.c ****             }
1101:Generated_Source\PSoC4/CyBLE.c ****         }
1102:Generated_Source\PSoC4/CyBLE.c ****         return (apiResult);
1103:Generated_Source\PSoC4/CyBLE.c ****     }
1104:Generated_Source\PSoC4/CyBLE.c ****     
1105:Generated_Source\PSoC4/CyBLE.c **** 
1106:Generated_Source\PSoC4/CyBLE.c ****     /******************************************************************************
1107:Generated_Source\PSoC4/CyBLE.c ****     * Function Name: CyBle_GapcCancelDeviceConnection
1108:Generated_Source\PSoC4/CyBLE.c ****     ***************************************************************************//**
1109:Generated_Source\PSoC4/CyBLE.c ****     * 
1110:Generated_Source\PSoC4/CyBLE.c ****     *  This function cancels a previously initiated connection with the remote 
1111:Generated_Source\PSoC4/CyBLE.c ****     *  device. It is a blocking function. No event is generated on calling this 
1112:Generated_Source\PSoC4/CyBLE.c ****     *  function. If the devices are already connected then this function should not
1113:Generated_Source\PSoC4/CyBLE.c ****     *  be used. If you intend to disconnect from an existing connection, the function
1114:Generated_Source\PSoC4/CyBLE.c ****     *  CyBle_GapDisconnect() should be used.
1115:Generated_Source\PSoC4/CyBLE.c ****     * 
1116:Generated_Source\PSoC4/CyBLE.c ****     * \return
ARM GAS  C:\Users\Nick\AppData\Local\Temp\ccmuPAvR.s 			page 21


1117:Generated_Source\PSoC4/CyBLE.c ****     *  CYBLE_API_RESULT_T : Return value indicates if the function succeeded or 
1118:Generated_Source\PSoC4/CyBLE.c ****     *  failed. Following are the possible error codes.
1119:Generated_Source\PSoC4/CyBLE.c ****     *
1120:Generated_Source\PSoC4/CyBLE.c ****     *   Errors codes                       | Description
1121:Generated_Source\PSoC4/CyBLE.c ****     *   ---------------------------------- | --------------------------------------
1122:Generated_Source\PSoC4/CyBLE.c ****     *   CYBLE_ERROR_OK                     | On successful operation.
1123:Generated_Source\PSoC4/CyBLE.c ****     *   CYBLE_ERROR_STACK_INTERNAL         | An error occurred in the BLE stack.
1124:Generated_Source\PSoC4/CyBLE.c ****     *   CYBLE_ERROR_INVALID_STATE          | On calling this API not in Connecting state.
1125:Generated_Source\PSoC4/CyBLE.c ****     *  
1126:Generated_Source\PSoC4/CyBLE.c ****     *******************************************************************************/
1127:Generated_Source\PSoC4/CyBLE.c ****     CYBLE_API_RESULT_T CyBle_GapcCancelDeviceConnection(void)
1128:Generated_Source\PSoC4/CyBLE.c ****     {
1129:Generated_Source\PSoC4/CyBLE.c ****         CYBLE_API_RESULT_T apiResult;
1130:Generated_Source\PSoC4/CyBLE.c ****         
1131:Generated_Source\PSoC4/CyBLE.c ****         if(CyBle_GetState() != CYBLE_STATE_CONNECTING)
1132:Generated_Source\PSoC4/CyBLE.c ****         {
1133:Generated_Source\PSoC4/CyBLE.c ****             apiResult = CYBLE_ERROR_INVALID_STATE;
1134:Generated_Source\PSoC4/CyBLE.c ****         }
1135:Generated_Source\PSoC4/CyBLE.c ****         else 
1136:Generated_Source\PSoC4/CyBLE.c ****         {
1137:Generated_Source\PSoC4/CyBLE.c ****             apiResult = CyBle_GapcCancelConnection();
1138:Generated_Source\PSoC4/CyBLE.c ****             
1139:Generated_Source\PSoC4/CyBLE.c ****             if(cyBle_connectingTimeout != 0u)
1140:Generated_Source\PSoC4/CyBLE.c ****             {
1141:Generated_Source\PSoC4/CyBLE.c ****                 (void)CyBle_StopTimer();
1142:Generated_Source\PSoC4/CyBLE.c ****             }
1143:Generated_Source\PSoC4/CyBLE.c **** 
1144:Generated_Source\PSoC4/CyBLE.c ****             if(apiResult == CYBLE_ERROR_OK)
1145:Generated_Source\PSoC4/CyBLE.c ****             {
1146:Generated_Source\PSoC4/CyBLE.c ****                 CyBle_SetState(CYBLE_STATE_DISCONNECTED);
1147:Generated_Source\PSoC4/CyBLE.c ****             }
1148:Generated_Source\PSoC4/CyBLE.c ****         }
1149:Generated_Source\PSoC4/CyBLE.c ****         return (apiResult);
1150:Generated_Source\PSoC4/CyBLE.c ****     }    
1151:Generated_Source\PSoC4/CyBLE.c **** 
1152:Generated_Source\PSoC4/CyBLE.c ****     
1153:Generated_Source\PSoC4/CyBLE.c **** #endif /* CYBLE_GAP_ROLE_CENTRAL */
1154:Generated_Source\PSoC4/CyBLE.c **** 
1155:Generated_Source\PSoC4/CyBLE.c **** 
1156:Generated_Source\PSoC4/CyBLE.c **** #if(CYBLE_GATT_ROLE_SERVER)
1157:Generated_Source\PSoC4/CyBLE.c **** 
1158:Generated_Source\PSoC4/CyBLE.c **** #if(CYBLE_GAP_ROLE_PERIPHERAL)
1159:Generated_Source\PSoC4/CyBLE.c **** 
1160:Generated_Source\PSoC4/CyBLE.c ****         /******************************************************************************
1161:Generated_Source\PSoC4/CyBLE.c ****         * Function Name: CyBle_ChangeAdLocalName
1162:Generated_Source\PSoC4/CyBLE.c ****         ***************************************************************************//**
1163:Generated_Source\PSoC4/CyBLE.c ****         *  This API is used to set the local device name in the advertisement or scan 
1164:Generated_Source\PSoC4/CyBLE.c ****         *  response data structure.
1165:Generated_Source\PSoC4/CyBLE.c ****         * 
1166:Generated_Source\PSoC4/CyBLE.c ****         *  \param name: The local device name string to be set in advertisement data 
1167:Generated_Source\PSoC4/CyBLE.c ****         *            structure.
1168:Generated_Source\PSoC4/CyBLE.c ****         *  \param dest: 0 - advertisement structure, not zero value selects scan response
1169:Generated_Source\PSoC4/CyBLE.c ****         *              structure.
1170:Generated_Source\PSoC4/CyBLE.c ****         * 
1171:Generated_Source\PSoC4/CyBLE.c ****         * \return
1172:Generated_Source\PSoC4/CyBLE.c ****         *  None
1173:Generated_Source\PSoC4/CyBLE.c ****         *  
ARM GAS  C:\Users\Nick\AppData\Local\Temp\ccmuPAvR.s 			page 22


1174:Generated_Source\PSoC4/CyBLE.c ****         *******************************************************************************/
1175:Generated_Source\PSoC4/CyBLE.c ****         static void CyBle_ChangeAdLocalName(const char8 name[], uint8 dest)
1176:Generated_Source\PSoC4/CyBLE.c ****         {
  25              		.loc 1 1176 0
  26              		.cfi_startproc
  27              	.LVL0:
  28 0000 70B5     		push	{r4, r5, r6, lr}
  29              		.cfi_def_cfa_offset 16
  30              		.cfi_offset 4, -16
  31              		.cfi_offset 5, -12
  32              		.cfi_offset 6, -8
  33              		.cfi_offset 14, -4
  34              	.LVL1:
1177:Generated_Source\PSoC4/CyBLE.c ****             uint8 i;
1178:Generated_Source\PSoC4/CyBLE.c ****             uint8 flag = 0u;
1179:Generated_Source\PSoC4/CyBLE.c ****             uint8 adLength = 0u;
1180:Generated_Source\PSoC4/CyBLE.c ****             uint8 byteCounter = 0u;
1181:Generated_Source\PSoC4/CyBLE.c ****             uint8 *destBuffer;
1182:Generated_Source\PSoC4/CyBLE.c ****             uint8 maxLength;
1183:Generated_Source\PSoC4/CyBLE.c ****             
1184:Generated_Source\PSoC4/CyBLE.c ****             if(dest == 0u)      /* Destination - advertising structure */
  35              		.loc 1 1184 0
  36 0002 0029     		cmp	r1, #0
  37 0004 05D1     		bne	.L2
  38              	.LVL2:
1185:Generated_Source\PSoC4/CyBLE.c ****             {
1186:Generated_Source\PSoC4/CyBLE.c ****                 destBuffer = cyBle_discoveryData.advData;
1187:Generated_Source\PSoC4/CyBLE.c ****                 maxLength = cyBle_discoveryData.advDataLen;
  39              		.loc 1 1187 0
  40 0006 1A4C     		ldr	r4, .L15
  41 0008 E67F     		ldrb	r6, [r4, #31]
  42              	.LVL3:
  43              	.L4:
1188:Generated_Source\PSoC4/CyBLE.c ****             }
1189:Generated_Source\PSoC4/CyBLE.c ****             else                /* Destination - scan response structure */
1190:Generated_Source\PSoC4/CyBLE.c ****             {
1191:Generated_Source\PSoC4/CyBLE.c ****                 destBuffer = cyBle_scanRspData.scanRspData;
1192:Generated_Source\PSoC4/CyBLE.c ****                 maxLength = cyBle_scanRspData.scanRspDataLen;
1193:Generated_Source\PSoC4/CyBLE.c ****             }
1194:Generated_Source\PSoC4/CyBLE.c ****             
1195:Generated_Source\PSoC4/CyBLE.c ****             while((byteCounter < maxLength) && (0u == flag))
1196:Generated_Source\PSoC4/CyBLE.c ****             {
1197:Generated_Source\PSoC4/CyBLE.c ****                 adLength = destBuffer[byteCounter];
1198:Generated_Source\PSoC4/CyBLE.c ****                 
1199:Generated_Source\PSoC4/CyBLE.c ****                 if(0u != adLength)
1200:Generated_Source\PSoC4/CyBLE.c ****                 {
1201:Generated_Source\PSoC4/CyBLE.c ****                     /* Increment byte counter so it can point to AD type */
1202:Generated_Source\PSoC4/CyBLE.c ****                     byteCounter++;
1203:Generated_Source\PSoC4/CyBLE.c ****                     
1204:Generated_Source\PSoC4/CyBLE.c ****                     if((CYBLE_SHORT_LOCAL_NAME == destBuffer[byteCounter]) || 
1205:Generated_Source\PSoC4/CyBLE.c ****                        (CYBLE_COMPLETE_LOCAL_NAME == destBuffer[byteCounter]))
1206:Generated_Source\PSoC4/CyBLE.c ****                     {
1207:Generated_Source\PSoC4/CyBLE.c ****                         /* Start of the Local Name AD type was fount. Set flag and exit the loop. *
1208:Generated_Source\PSoC4/CyBLE.c ****                         flag = 1u;
  44              		.loc 1 1208 0
  45 000a 0023     		mov	r3, #0
  46 000c 0022     		mov	r2, #0
ARM GAS  C:\Users\Nick\AppData\Local\Temp\ccmuPAvR.s 			page 23


  47 000e 0025     		mov	r5, #0
  48 0010 0FE0     		b	.L3
  49              	.LVL4:
  50              	.L2:
1192:Generated_Source\PSoC4/CyBLE.c ****             }
  51              		.loc 1 1192 0
  52 0012 184C     		ldr	r4, .L15+4
  53 0014 E67F     		ldrb	r6, [r4, #31]
  54              	.LVL5:
  55 0016 F8E7     		b	.L4
  56              	.LVL6:
  57              	.L7:
1197:Generated_Source\PSoC4/CyBLE.c ****                 
  58              		.loc 1 1197 0
  59 0018 E25C     		ldrb	r2, [r4, r3]
  60              	.LVL7:
1199:Generated_Source\PSoC4/CyBLE.c ****                 {
  61              		.loc 1 1199 0
  62 001a 002A     		cmp	r2, #0
  63 001c 0DD0     		beq	.L5
1202:Generated_Source\PSoC4/CyBLE.c ****                     
  64              		.loc 1 1202 0
  65 001e 0133     		add	r3, r3, #1
  66              	.LVL8:
  67 0020 DBB2     		uxtb	r3, r3
  68              	.LVL9:
1204:Generated_Source\PSoC4/CyBLE.c ****                        (CYBLE_COMPLETE_LOCAL_NAME == destBuffer[byteCounter]))
  69              		.loc 1 1204 0
  70 0022 E15C     		ldrb	r1, [r4, r3]
  71 0024 0839     		sub	r1, r1, #8
  72 0026 0129     		cmp	r1, #1
  73 0028 02D9     		bls	.L14
1209:Generated_Source\PSoC4/CyBLE.c ****                     }
1210:Generated_Source\PSoC4/CyBLE.c ****                     else
1211:Generated_Source\PSoC4/CyBLE.c ****                     {
1212:Generated_Source\PSoC4/CyBLE.c ****                         byteCounter += adLength;
  74              		.loc 1 1212 0
  75 002a 9B18     		add	r3, r3, r2
  76              	.LVL10:
  77 002c DBB2     		uxtb	r3, r3
  78              	.LVL11:
  79 002e 00E0     		b	.L3
  80              	.L14:
1208:Generated_Source\PSoC4/CyBLE.c ****                     }
  81              		.loc 1 1208 0
  82 0030 0125     		mov	r5, #1
  83              	.LVL12:
  84              	.L3:
1195:Generated_Source\PSoC4/CyBLE.c ****             {
  85              		.loc 1 1195 0
  86 0032 B342     		cmp	r3, r6
  87 0034 01D2     		bcs	.L5
1195:Generated_Source\PSoC4/CyBLE.c ****             {
  88              		.loc 1 1195 0 is_stmt 0 discriminator 1
  89 0036 002D     		cmp	r5, #0
  90 0038 EED0     		beq	.L7
  91              	.L5:
ARM GAS  C:\Users\Nick\AppData\Local\Temp\ccmuPAvR.s 			page 24


1213:Generated_Source\PSoC4/CyBLE.c ****                     }
1214:Generated_Source\PSoC4/CyBLE.c ****                 }
1215:Generated_Source\PSoC4/CyBLE.c ****                 else
1216:Generated_Source\PSoC4/CyBLE.c ****                 {
1217:Generated_Source\PSoC4/CyBLE.c ****                     /* The end of advertisement data structure was encountered though exit the loop
1218:Generated_Source\PSoC4/CyBLE.c ****                     break;
1219:Generated_Source\PSoC4/CyBLE.c ****                 }
1220:Generated_Source\PSoC4/CyBLE.c ****             }
1221:Generated_Source\PSoC4/CyBLE.c ****             
1222:Generated_Source\PSoC4/CyBLE.c ****             if(0u != flag)
  92              		.loc 1 1222 0 is_stmt 1
  93 003a 002D     		cmp	r5, #0
  94 003c 16D0     		beq	.L1
1223:Generated_Source\PSoC4/CyBLE.c ****             {
1224:Generated_Source\PSoC4/CyBLE.c ****                 /* Reuse "adLength" to hold location of the last character of local name in 
1225:Generated_Source\PSoC4/CyBLE.c ****                    AD structure. */
1226:Generated_Source\PSoC4/CyBLE.c ****                 adLength += byteCounter;
  95              		.loc 1 1226 0
  96 003e D218     		add	r2, r2, r3
  97              	.LVL13:
  98 0040 D1B2     		uxtb	r1, r2
  99              	.LVL14:
1227:Generated_Source\PSoC4/CyBLE.c ****                 
1228:Generated_Source\PSoC4/CyBLE.c ****                 /* Increment byte counter to point to start of the local Name string */
1229:Generated_Source\PSoC4/CyBLE.c ****                 byteCounter++;
 100              		.loc 1 1229 0
 101 0042 0133     		add	r3, r3, #1
 102              	.LVL15:
 103 0044 DBB2     		uxtb	r3, r3
 104              	.LVL16:
1230:Generated_Source\PSoC4/CyBLE.c ****                 
1231:Generated_Source\PSoC4/CyBLE.c ****                 for(i = byteCounter; ((i < (adLength)) && (CYBLE_NULL_CHARCTER != name[i - byteCoun
 105              		.loc 1 1231 0
 106 0046 1A1C     		mov	r2, r3
 107 0048 02E0     		b	.L9
 108              	.LVL17:
 109              	.L11:
1232:Generated_Source\PSoC4/CyBLE.c ****                 {
1233:Generated_Source\PSoC4/CyBLE.c ****                     destBuffer[i] = (uint8)name[i - byteCounter];
 110              		.loc 1 1233 0 discriminator 4
 111 004a A554     		strb	r5, [r4, r2]
1231:Generated_Source\PSoC4/CyBLE.c ****                 {
 112              		.loc 1 1231 0 discriminator 4
 113 004c 0132     		add	r2, r2, #1
 114              	.LVL18:
 115 004e D2B2     		uxtb	r2, r2
 116              	.LVL19:
 117              	.L9:
1231:Generated_Source\PSoC4/CyBLE.c ****                 {
 118              		.loc 1 1231 0 is_stmt 0 discriminator 1
 119 0050 8A42     		cmp	r2, r1
 120 0052 09D2     		bcs	.L12
1231:Generated_Source\PSoC4/CyBLE.c ****                 {
 121              		.loc 1 1231 0 discriminator 3
 122 0054 D51A     		sub	r5, r2, r3
 123 0056 455D     		ldrb	r5, [r0, r5]
 124 0058 002D     		cmp	r5, #0
ARM GAS  C:\Users\Nick\AppData\Local\Temp\ccmuPAvR.s 			page 25


 125 005a F6D1     		bne	.L11
 126 005c 04E0     		b	.L12
 127              	.LVL20:
 128              	.L13:
1234:Generated_Source\PSoC4/CyBLE.c ****                 }
1235:Generated_Source\PSoC4/CyBLE.c ****                 
1236:Generated_Source\PSoC4/CyBLE.c ****                 /* This loop handles the case when new local name is shorted than old one.
1237:Generated_Source\PSoC4/CyBLE.c ****                    In this case all remaining characters should be null characters. */
1238:Generated_Source\PSoC4/CyBLE.c ****                 while(adLength > i)
1239:Generated_Source\PSoC4/CyBLE.c ****                 {
1240:Generated_Source\PSoC4/CyBLE.c ****                     /* Terminate string */
1241:Generated_Source\PSoC4/CyBLE.c ****                     destBuffer[i] = (uint8)CYBLE_NULL_CHARCTER;
 129              		.loc 1 1241 0 is_stmt 1
 130 005e A318     		add	r3, r4, r2
 131 0060 0020     		mov	r0, #0
 132 0062 1870     		strb	r0, [r3]
1242:Generated_Source\PSoC4/CyBLE.c ****                     i++;
 133              		.loc 1 1242 0
 134 0064 0132     		add	r2, r2, #1
 135              	.LVL21:
 136 0066 D2B2     		uxtb	r2, r2
 137              	.LVL22:
 138              	.L12:
1238:Generated_Source\PSoC4/CyBLE.c ****                 {
 139              		.loc 1 1238 0
 140 0068 9142     		cmp	r1, r2
 141 006a F8D8     		bhi	.L13
 142              	.LVL23:
 143              	.L1:
1243:Generated_Source\PSoC4/CyBLE.c ****                 }
1244:Generated_Source\PSoC4/CyBLE.c ****             }
1245:Generated_Source\PSoC4/CyBLE.c ****         }
 144              		.loc 1 1245 0
 145              		@ sp needed
 146              	.LVL24:
 147              	.LVL25:
 148 006c 70BD     		pop	{r4, r5, r6, pc}
 149              	.L16:
 150 006e C046     		.align	2
 151              	.L15:
 152 0070 00000000 		.word	.LANCHOR0
 153 0074 00000000 		.word	.LANCHOR1
 154              		.cfi_endproc
 155              	.LFE9:
 156              		.size	CyBle_ChangeAdLocalName, .-CyBle_ChangeAdLocalName
 157              		.section	.text.CyBle_ServiceInit,"ax",%progbits
 158              		.align	2
 159              		.global	CyBle_ServiceInit
 160              		.code	16
 161              		.thumb_func
 162              		.type	CyBle_ServiceInit, %function
 163              	CyBle_ServiceInit:
 164              	.LFB3:
 202:Generated_Source\PSoC4/CyBLE.c ****     #if(CYBLE_GATT_ROLE_CLIENT)
 165              		.loc 1 202 0
 166              		.cfi_startproc
 167 0000 08B5     		push	{r3, lr}
ARM GAS  C:\Users\Nick\AppData\Local\Temp\ccmuPAvR.s 			page 26


 168              		.cfi_def_cfa_offset 8
 169              		.cfi_offset 3, -8
 170              		.cfi_offset 14, -4
 256:Generated_Source\PSoC4/CyBLE.c ****     #endif /* CYBLE_CUSTOM */
 171              		.loc 1 256 0
 172 0002 FFF7FEFF 		bl	CyBle_CustomInit
 173              	.LVL26:
 338:Generated_Source\PSoC4/CyBLE.c **** 
 174              		.loc 1 338 0
 175              		@ sp needed
 176 0006 08BD     		pop	{r3, pc}
 177              		.cfi_endproc
 178              	.LFE3:
 179              		.size	CyBle_ServiceInit, .-CyBle_ServiceInit
 180              		.section	.text.CyBle_Init,"ax",%progbits
 181              		.align	2
 182              		.global	CyBle_Init
 183              		.code	16
 184              		.thumb_func
 185              		.type	CyBle_Init, %function
 186              	CyBle_Init:
 187              	.LFB2:
 153:Generated_Source\PSoC4/CyBLE.c ****     cyBle_eventHandlerFlag = 0u;
 188              		.loc 1 153 0
 189              		.cfi_startproc
 190 0000 08B5     		push	{r3, lr}
 191              		.cfi_def_cfa_offset 8
 192              		.cfi_offset 3, -8
 193              		.cfi_offset 14, -4
 154:Generated_Source\PSoC4/CyBLE.c ****     cyBle_busyStatus = CYBLE_STACK_STATE_FREE;
 194              		.loc 1 154 0
 195 0002 0023     		mov	r3, #0
 196 0004 044A     		ldr	r2, .L19
 197 0006 1370     		strb	r3, [r2]
 155:Generated_Source\PSoC4/CyBLE.c **** 
 198              		.loc 1 155 0
 199 0008 044A     		ldr	r2, .L19+4
 200 000a 1370     		strb	r3, [r2]
 158:Generated_Source\PSoC4/CyBLE.c ****     #endif /* (CYBLE_GAP_ROLE_PERIPHERAL || CYBLE_GAP_ROLE_BROADCASTER)  */
 201              		.loc 1 158 0
 202 000c 044A     		ldr	r2, .L19+8
 203 000e 1370     		strb	r3, [r2]
 181:Generated_Source\PSoC4/CyBLE.c **** 
 204              		.loc 1 181 0
 205 0010 FFF7FEFF 		bl	CyBle_ServiceInit
 206              	.LVL27:
 188:Generated_Source\PSoC4/CyBLE.c **** 
 207              		.loc 1 188 0
 208              		@ sp needed
 209 0014 08BD     		pop	{r3, pc}
 210              	.L20:
 211 0016 C046     		.align	2
 212              	.L19:
 213 0018 00000000 		.word	cyBle_eventHandlerFlag
 214 001c 00000000 		.word	cyBle_busyStatus
 215 0020 00000000 		.word	cyBle_advertisingIntervalType
 216              		.cfi_endproc
ARM GAS  C:\Users\Nick\AppData\Local\Temp\ccmuPAvR.s 			page 27


 217              	.LFE2:
 218              		.size	CyBle_Init, .-CyBle_Init
 219              		.section	.text.CyBle_Start,"ax",%progbits
 220              		.align	2
 221              		.global	CyBle_Start
 222              		.code	16
 223              		.thumb_func
 224              		.type	CyBle_Start, %function
 225              	CyBle_Start:
 226              	.LFB4:
 400:Generated_Source\PSoC4/CyBLE.c ****     CYBLE_API_RESULT_T apiResult = CYBLE_ERROR_OK;
 227              		.loc 1 400 0
 228              		.cfi_startproc
 229              	.LVL28:
 230 0000 10B5     		push	{r4, lr}
 231              		.cfi_def_cfa_offset 8
 232              		.cfi_offset 4, -8
 233              		.cfi_offset 14, -4
 234 0002 90B0     		sub	sp, sp, #64
 235              		.cfi_def_cfa_offset 72
 236 0004 041C     		mov	r4, r0
 237              	.LVL29:
 405:Generated_Source\PSoC4/CyBLE.c ****     {
 238              		.loc 1 405 0
 239 0006 0BA8     		add	r0, sp, #44
 240              	.LVL30:
 241 0008 2049     		ldr	r1, .L25
 242 000a 1422     		mov	r2, #20
 243 000c FFF7FEFF 		bl	memcpy
 244              	.LVL31:
 417:Generated_Source\PSoC4/CyBLE.c ****     {
 245              		.loc 1 417 0
 246 0010 2023     		mov	r3, #32
 247 0012 1F4A     		ldr	r2, .L25+4
 248 0014 D35C     		ldrb	r3, [r2, r3]
 249 0016 002B     		cmp	r3, #0
 250 0018 05D1     		bne	.L22
 419:Generated_Source\PSoC4/CyBLE.c ****         cyBle_initVar = 1u;
 251              		.loc 1 419 0
 252 001a FFF7FEFF 		bl	CyBle_Init
 253              	.LVL32:
 420:Generated_Source\PSoC4/CyBLE.c ****     }
 254              		.loc 1 420 0
 255 001e 0121     		mov	r1, #1
 256 0020 2023     		mov	r3, #32
 257 0022 1B4A     		ldr	r2, .L25+4
 258 0024 D154     		strb	r1, [r2, r3]
 259              	.L22:
 423:Generated_Source\PSoC4/CyBLE.c ****     {
 260              		.loc 1 423 0
 261 0026 002C     		cmp	r4, #0
 262 0028 2CD0     		beq	.L24
 425:Generated_Source\PSoC4/CyBLE.c ****         
 263              		.loc 1 425 0
 264 002a 1A4B     		ldr	r3, .L25+8
 265 002c 1C60     		str	r4, [r3]
 266              	.LBB2:
ARM GAS  C:\Users\Nick\AppData\Local\Temp\ccmuPAvR.s 			page 28


 444:Generated_Source\PSoC4/CyBLE.c ****             stackConfig.dleConfig = &dleConfigParams;
 267              		.loc 1 444 0
 268 002e 08A8     		add	r0, sp, #32
 269 0030 05AA     		add	r2, sp, #20
 270 0032 4260     		str	r2, [r0, #4]
 445:Generated_Source\PSoC4/CyBLE.c ****             
 271              		.loc 1 445 0
 272 0034 06AB     		add	r3, sp, #24
 273 0036 0893     		str	r3, [sp, #32]
 448:Generated_Source\PSoC4/CyBLE.c ****                                        CYBLE_SECURE_CONN_FEATURE;
 274              		.loc 1 448 0
 275 0038 0021     		mov	r1, #0
 276 003a 0181     		strh	r1, [r0, #8]
 452:Generated_Source\PSoC4/CyBLE.c ****             dleConfigParams.dleMaxRxCapability = CYBLE_LL_MAX_RX_PAYLOAD_SIZE;
 277              		.loc 1 452 0
 278 003c 1B31     		add	r1, r1, #27
 279 003e 1980     		strh	r1, [r3]
 453:Generated_Source\PSoC4/CyBLE.c ****             dleConfigParams.dleNumTxBuffer = CYBLE_LL_DEFAULT_NUM_ACL_TX_PACKETS;
 280              		.loc 1 453 0
 281 0040 5980     		strh	r1, [r3, #2]
 454:Generated_Source\PSoC4/CyBLE.c ****         #if(CYBLE_DLE_FEATURE_ENABLED)
 282              		.loc 1 454 0
 283 0042 1739     		sub	r1, r1, #23
 284 0044 1971     		strb	r1, [r3, #4]
 460:Generated_Source\PSoC4/CyBLE.c ****         #if(CYBLE_LL_PRIVACY_FEATURE_ENABLED)
 285              		.loc 1 460 0
 286 0046 0023     		mov	r3, #0
 287 0048 1370     		strb	r3, [r2]
 465:Generated_Source\PSoC4/CyBLE.c ****             }
 288              		.loc 1 465 0
 289 004a 1231     		add	r1, r1, #18
 290 004c 6944     		add	r1, r1, sp
 291 004e FFF7FEFF 		bl	CyBle_StackSetFeatureConfig
 292              	.LVL33:
 293              	.LBE2:
 468:Generated_Source\PSoC4/CyBLE.c ****         {
 294              		.loc 1 468 0
 295 0052 0028     		cmp	r0, #0
 296 0054 17D1     		bne	.L23
 477:Generated_Source\PSoC4/CyBLE.c ****                     CYBLE_STACK_RAM_SIZE - CYBLE_GATT_PREPARE_WRITE_BUFF_LEN, cyBle_stackDataBuff, 
 297              		.loc 1 477 0
 298 0056 0523     		mov	r3, #5
 299 0058 0093     		str	r3, [sp]
 300 005a 0023     		mov	r3, #0
 301 005c 0193     		str	r3, [sp, #4]
 302 005e 0293     		str	r3, [sp, #8]
 303 0060 0D48     		ldr	r0, .L25+12
 304              	.LVL34:
 305 0062 0E49     		ldr	r1, .L25+16
 306 0064 AE22     		mov	r2, #174
 307 0066 1201     		lsl	r2, r2, #4
 308 0068 0BAB     		add	r3, sp, #44
 309 006a FFF7FEFF 		bl	CyBle_StackInit
 310              	.LVL35:
 486:Generated_Source\PSoC4/CyBLE.c ****             {
 311              		.loc 1 486 0
 312 006e 0028     		cmp	r0, #0
ARM GAS  C:\Users\Nick\AppData\Local\Temp\ccmuPAvR.s 			page 29


 313 0070 09D1     		bne	.L23
 488:Generated_Source\PSoC4/CyBLE.c ****                 
 314              		.loc 1 488 0
 315 0072 0122     		mov	r2, #1
 316 0074 0A4B     		ldr	r3, .L25+20
 317 0076 1A70     		strb	r2, [r3]
 495:Generated_Source\PSoC4/CyBLE.c ****             #endif /* CYBLE_GATT_ROLE_SERVER */
 318              		.loc 1 495 0
 319 0078 0A48     		ldr	r0, .L25+24
 320              	.LVL36:
 321 007a 2721     		mov	r1, #39
 322 007c 8F32     		add	r2, r2, #143
 323 007e FFF7FEFF 		bl	CyBle_GattsDbRegister
 324              	.LVL37:
 325 0082 00E0     		b	.L23
 326              	.LVL38:
 327              	.L24:
 502:Generated_Source\PSoC4/CyBLE.c ****     }
 328              		.loc 1 502 0
 329 0084 0120     		mov	r0, #1
 330              	.LVL39:
 331              	.L23:
 506:Generated_Source\PSoC4/CyBLE.c **** 
 332              		.loc 1 506 0
 333 0086 10B0     		add	sp, sp, #64
 334              		@ sp needed
 335              	.LVL40:
 336 0088 10BD     		pop	{r4, pc}
 337              	.L26:
 338 008a C046     		.align	2
 339              	.L25:
 340 008c 00000000 		.word	.LANCHOR2
 341 0090 00000000 		.word	.LANCHOR1
 342 0094 00000000 		.word	CyBle_ApplCallback
 343 0098 00000000 		.word	CyBle_EventHandler
 344 009c 00000000 		.word	.LANCHOR3
 345 00a0 00000000 		.word	cyBle_state
 346 00a4 00000000 		.word	cyBle_gattDB
 347              		.cfi_endproc
 348              	.LFE4:
 349              		.size	CyBle_Start, .-CyBle_Start
 350              		.section	.text.CyBle_Stop,"ax",%progbits
 351              		.align	2
 352              		.global	CyBle_Stop
 353              		.code	16
 354              		.thumb_func
 355              		.type	CyBle_Stop, %function
 356              	CyBle_Stop:
 357              	.LFB5:
 522:Generated_Source\PSoC4/CyBLE.c ****     CyBle_Shutdown();                         /* Stop all ongoing activities */
 358              		.loc 1 522 0
 359              		.cfi_startproc
 360 0000 08B5     		push	{r3, lr}
 361              		.cfi_def_cfa_offset 8
 362              		.cfi_offset 3, -8
 363              		.cfi_offset 14, -4
 523:Generated_Source\PSoC4/CyBLE.c ****     CyBle_SetState(CYBLE_STATE_STOPPED);
ARM GAS  C:\Users\Nick\AppData\Local\Temp\ccmuPAvR.s 			page 30


 364              		.loc 1 523 0
 365 0002 FFF7FEFF 		bl	CyBle_Shutdown
 366              	.LVL41:
 524:Generated_Source\PSoC4/CyBLE.c ****     #if(CYBLE_SHARING_MODE_EXPORT)
 367              		.loc 1 524 0
 368 0006 0022     		mov	r2, #0
 369 0008 014B     		ldr	r3, .L28
 370 000a 1A70     		strb	r2, [r3]
 531:Generated_Source\PSoC4/CyBLE.c **** 
 371              		.loc 1 531 0
 372              		@ sp needed
 373 000c 08BD     		pop	{r3, pc}
 374              	.L29:
 375 000e C046     		.align	2
 376              	.L28:
 377 0010 00000000 		.word	cyBle_state
 378              		.cfi_endproc
 379              	.LFE5:
 380              		.size	CyBle_Stop, .-CyBle_Stop
 381              		.section	.text.CyBle_GappStartAdvertisement,"ax",%progbits
 382              		.align	2
 383              		.global	CyBle_GappStartAdvertisement
 384              		.code	16
 385              		.thumb_func
 386              		.type	CyBle_GappStartAdvertisement, %function
 387              	CyBle_GappStartAdvertisement:
 388              	.LFB6:
 774:Generated_Source\PSoC4/CyBLE.c ****         CYBLE_API_RESULT_T apiResult;
 389              		.loc 1 774 0
 390              		.cfi_startproc
 391              	.LVL42:
 392 0000 08B5     		push	{r3, lr}
 393              		.cfi_def_cfa_offset 8
 394              		.cfi_offset 3, -8
 395              		.cfi_offset 14, -4
 777:Generated_Source\PSoC4/CyBLE.c ****         {
 396              		.loc 1 777 0
 397 0002 0228     		cmp	r0, #2
 398 0004 2ED8     		bhi	.L34
 781:Generated_Source\PSoC4/CyBLE.c ****         {   
 399              		.loc 1 781 0
 400 0006 1B4B     		ldr	r3, .L37
 401 0008 1B78     		ldrb	r3, [r3]
 402 000a 042B     		cmp	r3, #4
 403 000c 2CD1     		bne	.L35
 781:Generated_Source\PSoC4/CyBLE.c ****         {   
 404              		.loc 1 781 0 is_stmt 0 discriminator 1
 405 000e 1A4B     		ldr	r3, .L37+4
 406 0010 1B78     		ldrb	r3, [r3]
 407 0012 5B07     		lsl	r3, r3, #29
 408 0014 2BD4     		bmi	.L36
 783:Generated_Source\PSoC4/CyBLE.c ****             {
 409              		.loc 1 783 0 is_stmt 1
 410 0016 0028     		cmp	r0, #0
 411 0018 09D1     		bne	.L32
 785:Generated_Source\PSoC4/CyBLE.c ****                 cyBle_discoveryModeInfo.advParam->advIntvMin = CYBLE_FAST_ADV_INT_MIN;
 412              		.loc 1 785 0
ARM GAS  C:\Users\Nick\AppData\Local\Temp\ccmuPAvR.s 			page 31


 413 001a 184B     		ldr	r3, .L37+8
 414 001c 0022     		mov	r2, #0
 415 001e 1A86     		strh	r2, [r3, #48]
 786:Generated_Source\PSoC4/CyBLE.c ****                 cyBle_discoveryModeInfo.advParam->advIntvMax = CYBLE_FAST_ADV_INT_MAX;
 416              		.loc 1 786 0
 417 0020 2032     		add	r2, r2, #32
 418 0022 596A     		ldr	r1, [r3, #36]
 419 0024 0A80     		strh	r2, [r1]
 787:Generated_Source\PSoC4/CyBLE.c ****             }
 420              		.loc 1 787 0
 421 0026 5B6A     		ldr	r3, [r3, #36]
 422 0028 1032     		add	r2, r2, #16
 423 002a 5A80     		strh	r2, [r3, #2]
 424 002c 0CE0     		b	.L33
 425              	.L32:
 789:Generated_Source\PSoC4/CyBLE.c ****             {
 426              		.loc 1 789 0
 427 002e 0128     		cmp	r0, #1
 428 0030 0AD1     		bne	.L33
 791:Generated_Source\PSoC4/CyBLE.c ****                 cyBle_discoveryModeInfo.advParam->advIntvMin = CYBLE_SLOW_ADV_INT_MIN;
 429              		.loc 1 791 0
 430 0032 124B     		ldr	r3, .L37+8
 431 0034 9622     		mov	r2, #150
 432 0036 1A86     		strh	r2, [r3, #48]
 792:Generated_Source\PSoC4/CyBLE.c ****                 cyBle_discoveryModeInfo.advParam->advIntvMax = CYBLE_SLOW_ADV_INT_MAX;
 433              		.loc 1 792 0
 434 0038 C822     		mov	r2, #200
 435 003a D200     		lsl	r2, r2, #3
 436 003c 596A     		ldr	r1, [r3, #36]
 437 003e 0A80     		strh	r2, [r1]
 793:Generated_Source\PSoC4/CyBLE.c ****             }       
 438              		.loc 1 793 0
 439 0040 5B6A     		ldr	r3, [r3, #36]
 440 0042 8022     		mov	r2, #128
 441 0044 D201     		lsl	r2, r2, #7
 442 0046 5A80     		strh	r2, [r3, #2]
 443              	.L33:
 798:Generated_Source\PSoC4/CyBLE.c ****             apiResult = CyBle_GappEnterDiscoveryMode(&cyBle_discoveryModeInfo);
 444              		.loc 1 798 0
 445 0048 0D4B     		ldr	r3, .L37+12
 446 004a 1870     		strb	r0, [r3]
 799:Generated_Source\PSoC4/CyBLE.c ****         
 447              		.loc 1 799 0
 448 004c 0B48     		ldr	r0, .L37+8
 449              	.LVL43:
 450 004e 2030     		add	r0, r0, #32
 451 0050 FFF7FEFF 		bl	CyBle_GappEnterDiscoveryMode
 452              	.LVL44:
 801:Generated_Source\PSoC4/CyBLE.c ****             {
 453              		.loc 1 801 0
 454 0054 0028     		cmp	r0, #0
 455 0056 0CD1     		bne	.L31
 803:Generated_Source\PSoC4/CyBLE.c ****             }
 456              		.loc 1 803 0
 457 0058 074A     		ldr	r2, .L37+4
 458 005a 1178     		ldrb	r1, [r2]
 459 005c 0423     		mov	r3, #4
ARM GAS  C:\Users\Nick\AppData\Local\Temp\ccmuPAvR.s 			page 32


 460 005e 0B43     		orr	r3, r1
 461 0060 1370     		strb	r3, [r2]
 462 0062 06E0     		b	.L31
 463              	.LVL45:
 464              	.L34:
 779:Generated_Source\PSoC4/CyBLE.c ****         }
 465              		.loc 1 779 0
 466 0064 0120     		mov	r0, #1
 467              	.LVL46:
 468 0066 04E0     		b	.L31
 469              	.LVL47:
 470              	.L35:
 808:Generated_Source\PSoC4/CyBLE.c ****         }
 471              		.loc 1 808 0
 472 0068 0420     		mov	r0, #4
 473              	.LVL48:
 474 006a FF30     		add	r0, r0, #255
 475 006c 01E0     		b	.L31
 476              	.LVL49:
 477              	.L36:
 478 006e 0420     		mov	r0, #4
 479              	.LVL50:
 480 0070 FF30     		add	r0, r0, #255
 481              	.L31:
 482              	.LVL51:
 812:Generated_Source\PSoC4/CyBLE.c **** 
 483              		.loc 1 812 0
 484              		@ sp needed
 485 0072 08BD     		pop	{r3, pc}
 486              	.L38:
 487              		.align	2
 488              	.L37:
 489 0074 00000000 		.word	cyBle_state
 490 0078 00000000 		.word	cyBle_eventHandlerFlag
 491 007c 00000000 		.word	.LANCHOR0
 492 0080 00000000 		.word	cyBle_advertisingIntervalType
 493              		.cfi_endproc
 494              	.LFE6:
 495              		.size	CyBle_GappStartAdvertisement, .-CyBle_GappStartAdvertisement
 496              		.section	.text.CyBle_GappStopAdvertisement,"ax",%progbits
 497              		.align	2
 498              		.global	CyBle_GappStopAdvertisement
 499              		.code	16
 500              		.thumb_func
 501              		.type	CyBle_GappStopAdvertisement, %function
 502              	CyBle_GappStopAdvertisement:
 503              	.LFB7:
 835:Generated_Source\PSoC4/CyBLE.c ****         CyBle_GappExitDiscoveryMode();
 504              		.loc 1 835 0
 505              		.cfi_startproc
 506 0000 08B5     		push	{r3, lr}
 507              		.cfi_def_cfa_offset 8
 508              		.cfi_offset 3, -8
 509              		.cfi_offset 14, -4
 836:Generated_Source\PSoC4/CyBLE.c ****         cyBle_eventHandlerFlag |= CYBLE_STOP_FLAG;
 510              		.loc 1 836 0
 511 0002 FFF7FEFF 		bl	CyBle_GappExitDiscoveryMode
ARM GAS  C:\Users\Nick\AppData\Local\Temp\ccmuPAvR.s 			page 33


 512              	.LVL52:
 837:Generated_Source\PSoC4/CyBLE.c ****     }
 513              		.loc 1 837 0
 514 0006 034A     		ldr	r2, .L40
 515 0008 1178     		ldrb	r1, [r2]
 516 000a 0823     		mov	r3, #8
 517 000c 0B43     		orr	r3, r1
 518 000e 1370     		strb	r3, [r2]
 838:Generated_Source\PSoC4/CyBLE.c ****     
 519              		.loc 1 838 0
 520              		@ sp needed
 521 0010 08BD     		pop	{r3, pc}
 522              	.L41:
 523 0012 C046     		.align	2
 524              	.L40:
 525 0014 00000000 		.word	cyBle_eventHandlerFlag
 526              		.cfi_endproc
 527              	.LFE7:
 528              		.size	CyBle_GappStopAdvertisement, .-CyBle_GappStopAdvertisement
 529              		.section	.text.CyBle_ChangeAdDeviceAddress,"ax",%progbits
 530              		.align	2
 531              		.global	CyBle_ChangeAdDeviceAddress
 532              		.code	16
 533              		.thumb_func
 534              		.type	CyBle_ChangeAdDeviceAddress, %function
 535              	CyBle_ChangeAdDeviceAddress:
 536              	.LFB8:
 857:Generated_Source\PSoC4/CyBLE.c ****         uint8 i;
 537              		.loc 1 857 0
 538              		.cfi_startproc
 539              	.LVL53:
 884:Generated_Source\PSoC4/CyBLE.c ****   
 540              		.loc 1 884 0
 541              		@ sp needed
 542 0000 7047     		bx	lr
 543              		.cfi_endproc
 544              	.LFE8:
 545              		.size	CyBle_ChangeAdDeviceAddress, .-CyBle_ChangeAdDeviceAddress
 546 0002 C046     		.section	.text.CyBle_GapSetLocalName,"ax",%progbits
 547              		.align	2
 548              		.global	CyBle_GapSetLocalName
 549              		.code	16
 550              		.thumb_func
 551              		.type	CyBle_GapSetLocalName, %function
 552              	CyBle_GapSetLocalName:
 553              	.LFB10:
1246:Generated_Source\PSoC4/CyBLE.c ****         
1247:Generated_Source\PSoC4/CyBLE.c **** #endif /* (CYBLE_GAP_ROLE_PERIPHERAL) */  
1248:Generated_Source\PSoC4/CyBLE.c ****     
1249:Generated_Source\PSoC4/CyBLE.c ****     
1250:Generated_Source\PSoC4/CyBLE.c ****     /******************************************************************************
1251:Generated_Source\PSoC4/CyBLE.c ****     * Function Name: CyBle_GapSetLocalName
1252:Generated_Source\PSoC4/CyBLE.c ****     ***************************************************************************//**
1253:Generated_Source\PSoC4/CyBLE.c ****     *  This API is used to set the local device name - a Characteristic of the 
1254:Generated_Source\PSoC4/CyBLE.c ****     *  GAP Service. If the characteristic length entered in the component customizer
1255:Generated_Source\PSoC4/CyBLE.c ****     *  is shorter than the string specified by the "name" parameter, the local device
1256:Generated_Source\PSoC4/CyBLE.c ****     *  name will be cut to the length specified in the customizer.
ARM GAS  C:\Users\Nick\AppData\Local\Temp\ccmuPAvR.s 			page 34


1257:Generated_Source\PSoC4/CyBLE.c ****     * 
1258:Generated_Source\PSoC4/CyBLE.c ****     *  \param name: The local device name string. The name string to be written as
1259:Generated_Source\PSoC4/CyBLE.c ****     *              the local device name. It represents a UTF-8 encoded User
1260:Generated_Source\PSoC4/CyBLE.c ****     *              Friendly Descriptive Name for the device. The length of the local
1261:Generated_Source\PSoC4/CyBLE.c ****     *              device string is entered into the component customizer and it can
1262:Generated_Source\PSoC4/CyBLE.c ****     *              be set to a value from 0 to 248 bytes. If the name contained in
1263:Generated_Source\PSoC4/CyBLE.c ****     *              the parameter is shorter than the length from the customizer, the
1264:Generated_Source\PSoC4/CyBLE.c ****     *              end of the name is indicated by a NULL octet (0x00).
1265:Generated_Source\PSoC4/CyBLE.c ****     * 
1266:Generated_Source\PSoC4/CyBLE.c ****     * \return
1267:Generated_Source\PSoC4/CyBLE.c ****     *  CYBLE_API_RESULT_T : Return value indicates if the function succeeded or 
1268:Generated_Source\PSoC4/CyBLE.c ****     *  failed. Following are the possible error codes.
1269:Generated_Source\PSoC4/CyBLE.c ****     *
1270:Generated_Source\PSoC4/CyBLE.c ****     *   Errors codes                       | Description
1271:Generated_Source\PSoC4/CyBLE.c ****     *   ------------                       | -----------
1272:Generated_Source\PSoC4/CyBLE.c ****     *   CYBLE_ERROR_OK                     | Function completed successfully.
1273:Generated_Source\PSoC4/CyBLE.c ****     *   CYBLE_ERROR_INVALID_PARAMETER      | On specifying NULL as input parameter
1274:Generated_Source\PSoC4/CyBLE.c ****     *  
1275:Generated_Source\PSoC4/CyBLE.c ****     *******************************************************************************/
1276:Generated_Source\PSoC4/CyBLE.c ****     CYBLE_API_RESULT_T CyBle_GapSetLocalName(const char8 name[])
1277:Generated_Source\PSoC4/CyBLE.c ****     {
 554              		.loc 1 1277 0
 555              		.cfi_startproc
 556              	.LVL54:
 557 0000 10B5     		push	{r4, lr}
 558              		.cfi_def_cfa_offset 8
 559              		.cfi_offset 4, -8
 560              		.cfi_offset 14, -4
 561              	.LVL55:
1278:Generated_Source\PSoC4/CyBLE.c ****         CYBLE_API_RESULT_T apiResult = CYBLE_ERROR_OK;
1279:Generated_Source\PSoC4/CyBLE.c ****         uint8 i;
1280:Generated_Source\PSoC4/CyBLE.c ****         char8 *ptr;
1281:Generated_Source\PSoC4/CyBLE.c ****         uint8 charLen;
1282:Generated_Source\PSoC4/CyBLE.c **** 
1283:Generated_Source\PSoC4/CyBLE.c ****         if(NULL != name)
 562              		.loc 1 1283 0
 563 0002 0028     		cmp	r0, #0
 564 0004 1DD0     		beq	.L49
1284:Generated_Source\PSoC4/CyBLE.c ****         {
1285:Generated_Source\PSoC4/CyBLE.c ****             /* Get the pointer to the Device Name characteristic  */
1286:Generated_Source\PSoC4/CyBLE.c ****             ptr = (char8 *) CYBLE_GATT_DB_ATTR_GET_ATTR_GEN_PTR(CYBLE_GAP_DEVICE_NAME_INDEX + 1u);
 565              		.loc 1 1286 0
 566 0006 104B     		ldr	r3, .L50
 567 0008 9A6B     		ldr	r2, [r3, #56]
 568 000a 5468     		ldr	r4, [r2, #4]
 569              	.LVL56:
1287:Generated_Source\PSoC4/CyBLE.c **** 
1288:Generated_Source\PSoC4/CyBLE.c ****             /* First need to get the maximum length of the characteristic data in the GATT
1289:Generated_Source\PSoC4/CyBLE.c ****                 database to make sure there is enough place for the data. The length
1290:Generated_Source\PSoC4/CyBLE.c ****                 can't be longer than 248, so only the LSB of 16 bit of length is to
1291:Generated_Source\PSoC4/CyBLE.c ****                 be used. */
1292:Generated_Source\PSoC4/CyBLE.c ****             charLen = (uint8)CYBLE_GATT_DB_ATTR_GET_ATTR_GEN_MAX_LEN(CYBLE_GAP_DEVICE_NAME_INDEX + 
 570              		.loc 1 1292 0
 571 000c 998E     		ldrh	r1, [r3, #52]
 572 000e C9B2     		uxtb	r1, r1
 573              	.LVL57:
1293:Generated_Source\PSoC4/CyBLE.c **** 
ARM GAS  C:\Users\Nick\AppData\Local\Temp\ccmuPAvR.s 			page 35


1294:Generated_Source\PSoC4/CyBLE.c ****             /* Copy name into characteristic */
1295:Generated_Source\PSoC4/CyBLE.c ****             for(i = 0u; ((i < charLen) && (CYBLE_NULL_CHARCTER != name[i])); i++)
 574              		.loc 1 1295 0
 575 0010 0023     		mov	r3, #0
 576 0012 02E0     		b	.L45
 577              	.LVL58:
 578              	.L47:
1296:Generated_Source\PSoC4/CyBLE.c ****             {
1297:Generated_Source\PSoC4/CyBLE.c ****                 ptr[i] = name[i];
 579              		.loc 1 1297 0 discriminator 4
 580 0014 E254     		strb	r2, [r4, r3]
1295:Generated_Source\PSoC4/CyBLE.c ****             {
 581              		.loc 1 1295 0 discriminator 4
 582 0016 0133     		add	r3, r3, #1
 583              	.LVL59:
 584 0018 DBB2     		uxtb	r3, r3
 585              	.LVL60:
 586              	.L45:
1295:Generated_Source\PSoC4/CyBLE.c ****             {
 587              		.loc 1 1295 0 is_stmt 0 discriminator 1
 588 001a 8B42     		cmp	r3, r1
 589 001c 02D2     		bcs	.L46
1295:Generated_Source\PSoC4/CyBLE.c ****             {
 590              		.loc 1 1295 0 discriminator 3
 591 001e C25C     		ldrb	r2, [r0, r3]
 592 0020 002A     		cmp	r2, #0
 593 0022 F7D1     		bne	.L47
 594              	.L46:
1298:Generated_Source\PSoC4/CyBLE.c ****             }
1299:Generated_Source\PSoC4/CyBLE.c **** 
1300:Generated_Source\PSoC4/CyBLE.c ****             if(i < charLen)
 595              		.loc 1 1300 0 is_stmt 1
 596 0024 8B42     		cmp	r3, r1
 597 0026 02D2     		bcs	.L48
1301:Generated_Source\PSoC4/CyBLE.c ****             {
1302:Generated_Source\PSoC4/CyBLE.c ****                 /* Terminate string */
1303:Generated_Source\PSoC4/CyBLE.c ****                 ptr[i] = CYBLE_NULL_CHARCTER;
 598              		.loc 1 1303 0
 599 0028 E318     		add	r3, r4, r3
 600              	.LVL61:
 601 002a 0022     		mov	r2, #0
 602 002c 1A70     		strb	r2, [r3]
 603              	.L48:
 604 002e 041C     		mov	r4, r0
 605              	.LVL62:
1304:Generated_Source\PSoC4/CyBLE.c ****             }
1305:Generated_Source\PSoC4/CyBLE.c ****             
1306:Generated_Source\PSoC4/CyBLE.c ****             /* Set new actual length */
1307:Generated_Source\PSoC4/CyBLE.c ****             
1308:Generated_Source\PSoC4/CyBLE.c ****             /* Update device name in advertising and scan response structure */
1309:Generated_Source\PSoC4/CyBLE.c ****             #if(CYBLE_GAP_ROLE_PERIPHERAL)
1310:Generated_Source\PSoC4/CyBLE.c ****                 CyBle_ChangeAdLocalName(name, 0u);
 606              		.loc 1 1310 0
 607 0030 0021     		mov	r1, #0
 608              	.LVL63:
 609 0032 FFF7FEFF 		bl	CyBle_ChangeAdLocalName
 610              	.LVL64:
ARM GAS  C:\Users\Nick\AppData\Local\Temp\ccmuPAvR.s 			page 36


1311:Generated_Source\PSoC4/CyBLE.c ****                 CyBle_ChangeAdLocalName(name, 1u);
 611              		.loc 1 1311 0
 612 0036 201C     		mov	r0, r4
 613 0038 0121     		mov	r1, #1
 614 003a FFF7FEFF 		bl	CyBle_ChangeAdLocalName
 615              	.LVL65:
1278:Generated_Source\PSoC4/CyBLE.c ****         uint8 i;
 616              		.loc 1 1278 0
 617 003e 0020     		mov	r0, #0
 618 0040 00E0     		b	.L44
 619              	.LVL66:
 620              	.L49:
1312:Generated_Source\PSoC4/CyBLE.c ****             #endif /* (CYBLE_GAP_ROLE_PERIPHERAL) */
1313:Generated_Source\PSoC4/CyBLE.c ****         }
1314:Generated_Source\PSoC4/CyBLE.c ****         else
1315:Generated_Source\PSoC4/CyBLE.c ****         {
1316:Generated_Source\PSoC4/CyBLE.c ****             apiResult = CYBLE_ERROR_INVALID_PARAMETER;
 621              		.loc 1 1316 0
 622 0042 0120     		mov	r0, #1
 623              	.LVL67:
 624              	.L44:
1317:Generated_Source\PSoC4/CyBLE.c ****         }
1318:Generated_Source\PSoC4/CyBLE.c ****         
1319:Generated_Source\PSoC4/CyBLE.c ****         return(apiResult);
1320:Generated_Source\PSoC4/CyBLE.c ****     }
 625              		.loc 1 1320 0
 626              		@ sp needed
 627 0044 10BD     		pop	{r4, pc}
 628              	.L51:
 629 0046 C046     		.align	2
 630              	.L50:
 631 0048 00000000 		.word	cyBle_gattDB
 632              		.cfi_endproc
 633              	.LFE10:
 634              		.size	CyBle_GapSetLocalName, .-CyBle_GapSetLocalName
 635              		.section	.text.CyBle_GapGetLocalName,"ax",%progbits
 636              		.align	2
 637              		.global	CyBle_GapGetLocalName
 638              		.code	16
 639              		.thumb_func
 640              		.type	CyBle_GapGetLocalName, %function
 641              	CyBle_GapGetLocalName:
 642              	.LFB11:
1321:Generated_Source\PSoC4/CyBLE.c **** 
1322:Generated_Source\PSoC4/CyBLE.c **** 
1323:Generated_Source\PSoC4/CyBLE.c ****     /******************************************************************************
1324:Generated_Source\PSoC4/CyBLE.c ****     * Function Name: CyBle_GapGetLocalName
1325:Generated_Source\PSoC4/CyBLE.c ****     ***************************************************************************//**
1326:Generated_Source\PSoC4/CyBLE.c ****     *  
1327:Generated_Source\PSoC4/CyBLE.c ****     *  This API is used to read the local device name - a Characteristic of the 
1328:Generated_Source\PSoC4/CyBLE.c ****     *  GAP Service.
1329:Generated_Source\PSoC4/CyBLE.c ****     * 
1330:Generated_Source\PSoC4/CyBLE.c ****     * \param name: The local device name string. Used to read the local name to the
1331:Generated_Source\PSoC4/CyBLE.c ****     *             given string array. It represents a UTF-8 encoded User Friendly 
1332:Generated_Source\PSoC4/CyBLE.c ****     *             Descriptive Name for the device. The length of the local device
1333:Generated_Source\PSoC4/CyBLE.c ****     *             string is entered into the component customizer and it can be set
1334:Generated_Source\PSoC4/CyBLE.c ****     *             to a value from 0 to 248 bytes. If the name contained in the
ARM GAS  C:\Users\Nick\AppData\Local\Temp\ccmuPAvR.s 			page 37


1335:Generated_Source\PSoC4/CyBLE.c ****     *             parameter is shorter than the length from the customizer, the end
1336:Generated_Source\PSoC4/CyBLE.c ****     *             of the name is indicated by a NULL octet (0x00).
1337:Generated_Source\PSoC4/CyBLE.c ****     * 
1338:Generated_Source\PSoC4/CyBLE.c ****     * \return
1339:Generated_Source\PSoC4/CyBLE.c ****     *  CYBLE_API_RESULT_T : Return value indicates if the function succeeded or 
1340:Generated_Source\PSoC4/CyBLE.c ****     *  failed. Following are the possible error codes.
1341:Generated_Source\PSoC4/CyBLE.c ****     *
1342:Generated_Source\PSoC4/CyBLE.c ****     *   Errors codes                       | Description
1343:Generated_Source\PSoC4/CyBLE.c ****     *   ------------                       | -----------
1344:Generated_Source\PSoC4/CyBLE.c ****     *   CYBLE_ERROR_OK                     | Function completed successfully.
1345:Generated_Source\PSoC4/CyBLE.c ****     *   CYBLE_ERROR_INVALID_PARAMETER      | On specifying NULL as input parameter
1346:Generated_Source\PSoC4/CyBLE.c ****     *
1347:Generated_Source\PSoC4/CyBLE.c ****     *******************************************************************************/
1348:Generated_Source\PSoC4/CyBLE.c ****     CYBLE_API_RESULT_T CyBle_GapGetLocalName(char8 name[])
1349:Generated_Source\PSoC4/CyBLE.c ****     {
 643              		.loc 1 1349 0
 644              		.cfi_startproc
 645              	.LVL68:
 646 0000 10B5     		push	{r4, lr}
 647              		.cfi_def_cfa_offset 8
 648              		.cfi_offset 4, -8
 649              		.cfi_offset 14, -4
 650              	.LVL69:
1350:Generated_Source\PSoC4/CyBLE.c ****         CYBLE_API_RESULT_T apiResult = CYBLE_ERROR_OK;
1351:Generated_Source\PSoC4/CyBLE.c ****         uint8 charLen;
1352:Generated_Source\PSoC4/CyBLE.c ****         uint8 i;
1353:Generated_Source\PSoC4/CyBLE.c ****         char8 *ptr;
1354:Generated_Source\PSoC4/CyBLE.c **** 
1355:Generated_Source\PSoC4/CyBLE.c ****         if(NULL != name)
 651              		.loc 1 1355 0
 652 0002 0028     		cmp	r0, #0
 653 0004 12D0     		beq	.L57
1356:Generated_Source\PSoC4/CyBLE.c ****         {
1357:Generated_Source\PSoC4/CyBLE.c ****             /* Get the pointer to the Device Name characteristic  */
1358:Generated_Source\PSoC4/CyBLE.c ****             ptr = (char8 *) CYBLE_GATT_DB_ATTR_GET_ATTR_GEN_PTR(CYBLE_GAP_DEVICE_NAME_INDEX + 1u);
 654              		.loc 1 1358 0
 655 0006 0A4B     		ldr	r3, .L58
 656 0008 9B6B     		ldr	r3, [r3, #56]
 657 000a 5C68     		ldr	r4, [r3, #4]
 658              	.LVL70:
1359:Generated_Source\PSoC4/CyBLE.c **** 
1360:Generated_Source\PSoC4/CyBLE.c ****             /* First need to get the length of the characteristic data in the GATT
1361:Generated_Source\PSoC4/CyBLE.c ****                 database to make sure there is enough place for the data. The length
1362:Generated_Source\PSoC4/CyBLE.c ****                 can't be longer than 248, so only the LSB of 16 bit of length is to
1363:Generated_Source\PSoC4/CyBLE.c ****                 be used. */
1364:Generated_Source\PSoC4/CyBLE.c ****             charLen = (uint8)CYBLE_GATT_DB_ATTR_GET_ATTR_GEN_LEN(CYBLE_GAP_DEVICE_NAME_INDEX + 1u);
 659              		.loc 1 1364 0
 660 000c 1978     		ldrb	r1, [r3]
 661              	.LVL71:
1365:Generated_Source\PSoC4/CyBLE.c **** 
1366:Generated_Source\PSoC4/CyBLE.c ****             /* Copy name from characteristic */
1367:Generated_Source\PSoC4/CyBLE.c ****             for(i = 0u; ((i < charLen) && (CYBLE_NULL_CHARCTER != ptr[i])); i++)
 662              		.loc 1 1367 0
 663 000e 0023     		mov	r3, #0
 664 0010 02E0     		b	.L54
 665              	.LVL72:
 666              	.L56:
ARM GAS  C:\Users\Nick\AppData\Local\Temp\ccmuPAvR.s 			page 38


1368:Generated_Source\PSoC4/CyBLE.c ****             {
1369:Generated_Source\PSoC4/CyBLE.c ****                 name[i] = ptr[i];
 667              		.loc 1 1369 0 discriminator 4
 668 0012 C254     		strb	r2, [r0, r3]
1367:Generated_Source\PSoC4/CyBLE.c ****             {
 669              		.loc 1 1367 0 discriminator 4
 670 0014 0133     		add	r3, r3, #1
 671              	.LVL73:
 672 0016 DBB2     		uxtb	r3, r3
 673              	.LVL74:
 674              	.L54:
1367:Generated_Source\PSoC4/CyBLE.c ****             {
 675              		.loc 1 1367 0 is_stmt 0 discriminator 1
 676 0018 8B42     		cmp	r3, r1
 677 001a 02D2     		bcs	.L55
1367:Generated_Source\PSoC4/CyBLE.c ****             {
 678              		.loc 1 1367 0 discriminator 3
 679 001c E25C     		ldrb	r2, [r4, r3]
 680 001e 002A     		cmp	r2, #0
 681 0020 F7D1     		bne	.L56
 682              	.L55:
1370:Generated_Source\PSoC4/CyBLE.c ****             }
1371:Generated_Source\PSoC4/CyBLE.c **** 
1372:Generated_Source\PSoC4/CyBLE.c ****             /* Terminate string */
1373:Generated_Source\PSoC4/CyBLE.c ****             name[i] = CYBLE_NULL_CHARCTER;
 683              		.loc 1 1373 0 is_stmt 1
 684 0022 C318     		add	r3, r0, r3
 685              	.LVL75:
 686 0024 0022     		mov	r2, #0
 687 0026 1A70     		strb	r2, [r3]
1350:Generated_Source\PSoC4/CyBLE.c ****         uint8 charLen;
 688              		.loc 1 1350 0
 689 0028 0020     		mov	r0, #0
 690              	.LVL76:
 691 002a 00E0     		b	.L53
 692              	.LVL77:
 693              	.L57:
1374:Generated_Source\PSoC4/CyBLE.c ****         }
1375:Generated_Source\PSoC4/CyBLE.c ****         else
1376:Generated_Source\PSoC4/CyBLE.c ****         {
1377:Generated_Source\PSoC4/CyBLE.c ****             apiResult = CYBLE_ERROR_INVALID_PARAMETER;
 694              		.loc 1 1377 0
 695 002c 0120     		mov	r0, #1
 696              	.LVL78:
 697              	.L53:
1378:Generated_Source\PSoC4/CyBLE.c ****         }
1379:Generated_Source\PSoC4/CyBLE.c ****         
1380:Generated_Source\PSoC4/CyBLE.c ****         return(apiResult);
1381:Generated_Source\PSoC4/CyBLE.c ****     }
 698              		.loc 1 1381 0
 699              		@ sp needed
 700 002e 10BD     		pop	{r4, pc}
 701              	.L59:
 702              		.align	2
 703              	.L58:
 704 0030 00000000 		.word	cyBle_gattDB
 705              		.cfi_endproc
ARM GAS  C:\Users\Nick\AppData\Local\Temp\ccmuPAvR.s 			page 39


 706              	.LFE11:
 707              		.size	CyBle_GapGetLocalName, .-CyBle_GapGetLocalName
 708              		.section	.text.CyBle_Get16ByPtr,"ax",%progbits
 709              		.align	2
 710              		.global	CyBle_Get16ByPtr
 711              		.code	16
 712              		.thumb_func
 713              		.type	CyBle_Get16ByPtr, %function
 714              	CyBle_Get16ByPtr:
 715              	.LFB12:
1382:Generated_Source\PSoC4/CyBLE.c **** 
1383:Generated_Source\PSoC4/CyBLE.c **** #endif /* (CYBLE_GATT_ROLE_SERVER) */
1384:Generated_Source\PSoC4/CyBLE.c **** 
1385:Generated_Source\PSoC4/CyBLE.c **** 
1386:Generated_Source\PSoC4/CyBLE.c **** /******************************************************************************
1387:Generated_Source\PSoC4/CyBLE.c **** * Function Name: CyBle_Get16ByPtr
1388:Generated_Source\PSoC4/CyBLE.c **** ***************************************************************************//**
1389:Generated_Source\PSoC4/CyBLE.c **** * 
1390:Generated_Source\PSoC4/CyBLE.c **** *  Returns the two-bytes value by using a pointer to the LSB.
1391:Generated_Source\PSoC4/CyBLE.c **** * 
1392:Generated_Source\PSoC4/CyBLE.c **** *  \param ptr: Pointer to the LSB of two-bytes data (little endian).
1393:Generated_Source\PSoC4/CyBLE.c **** * 
1394:Generated_Source\PSoC4/CyBLE.c **** *  \return
1395:Generated_Source\PSoC4/CyBLE.c **** *  uint16: Two-bytes data.
1396:Generated_Source\PSoC4/CyBLE.c **** * 
1397:Generated_Source\PSoC4/CyBLE.c **** ******************************************************************************/
1398:Generated_Source\PSoC4/CyBLE.c **** uint16 CyBle_Get16ByPtr(const uint8 ptr[])
1399:Generated_Source\PSoC4/CyBLE.c **** {
 716              		.loc 1 1399 0
 717              		.cfi_startproc
 718              	.LVL79:
1400:Generated_Source\PSoC4/CyBLE.c ****     return ((uint16) ptr[0u] | ((uint16) (((uint16) ptr[1u]) << 8u)));
 719              		.loc 1 1400 0
 720 0000 0378     		ldrb	r3, [r0]
 721 0002 4078     		ldrb	r0, [r0, #1]
 722              	.LVL80:
 723 0004 0002     		lsl	r0, r0, #8
 724 0006 1843     		orr	r0, r3
1401:Generated_Source\PSoC4/CyBLE.c **** }
 725              		.loc 1 1401 0
 726              		@ sp needed
 727 0008 7047     		bx	lr
 728              		.cfi_endproc
 729              	.LFE12:
 730              		.size	CyBle_Get16ByPtr, .-CyBle_Get16ByPtr
 731 000a C046     		.section	.text.CyBle_Set16ByPtr,"ax",%progbits
 732              		.align	2
 733              		.global	CyBle_Set16ByPtr
 734              		.code	16
 735              		.thumb_func
 736              		.type	CyBle_Set16ByPtr, %function
 737              	CyBle_Set16ByPtr:
 738              	.LFB13:
1402:Generated_Source\PSoC4/CyBLE.c **** 
1403:Generated_Source\PSoC4/CyBLE.c **** 
1404:Generated_Source\PSoC4/CyBLE.c **** /******************************************************************************
1405:Generated_Source\PSoC4/CyBLE.c **** * Function Name: CyBle_Set16ByPtr
ARM GAS  C:\Users\Nick\AppData\Local\Temp\ccmuPAvR.s 			page 40


1406:Generated_Source\PSoC4/CyBLE.c **** ***************************************************************************//**
1407:Generated_Source\PSoC4/CyBLE.c **** * 
1408:Generated_Source\PSoC4/CyBLE.c **** *  Sets the two-bytes value by using a pointer to the LSB.
1409:Generated_Source\PSoC4/CyBLE.c **** * 
1410:Generated_Source\PSoC4/CyBLE.c **** *  \param ptr:    Pointer to the LSB of two-bytes data (little endian).
1411:Generated_Source\PSoC4/CyBLE.c **** *  \param value:  Two-bytes data to be written.
1412:Generated_Source\PSoC4/CyBLE.c **** * 
1413:Generated_Source\PSoC4/CyBLE.c **** *  \return
1414:Generated_Source\PSoC4/CyBLE.c **** *  None
1415:Generated_Source\PSoC4/CyBLE.c **** * 
1416:Generated_Source\PSoC4/CyBLE.c **** ******************************************************************************/
1417:Generated_Source\PSoC4/CyBLE.c **** void CyBle_Set16ByPtr(uint8 ptr[], uint16 value)
1418:Generated_Source\PSoC4/CyBLE.c **** {
 739              		.loc 1 1418 0
 740              		.cfi_startproc
 741              	.LVL81:
1419:Generated_Source\PSoC4/CyBLE.c ****     ptr[0u] = (uint8) value;
 742              		.loc 1 1419 0
 743 0000 0170     		strb	r1, [r0]
1420:Generated_Source\PSoC4/CyBLE.c ****     ptr[1u] = (uint8) (value >> 8u);
 744              		.loc 1 1420 0
 745 0002 090A     		lsr	r1, r1, #8
 746              	.LVL82:
 747 0004 4170     		strb	r1, [r0, #1]
1421:Generated_Source\PSoC4/CyBLE.c **** }
 748              		.loc 1 1421 0
 749              		@ sp needed
 750 0006 7047     		bx	lr
 751              		.cfi_endproc
 752              	.LFE13:
 753              		.size	CyBle_Set16ByPtr, .-CyBle_Set16ByPtr
 754              		.global	cyBle_sflashDeviceAddress
 755              		.global	cyBle_deviceAddress
 756              		.comm	CyBle_ApplCallback,4,4
 757              		.global	cyBle_discoveryModeInfo
 758              		.global	cyBle_scanRspData
 759              		.global	cyBle_discoveryData
 760              		.global	cyBle_discoveryParam
 761              		.global	cyBle_stackMemoryRam
 762              		.global	cyBle_initVar
 763              		.section	.rodata
 764              		.align	2
 765              		.set	.LANCHOR2,. + 0
 766              	.LC0:
 767 0000 2400     		.short	36
 768 0002 03       		.byte	3
 769 0003 00       		.space	1
 770 0004 3000     		.short	48
 771 0006 01       		.byte	1
 772 0007 00       		.space	1
 773 0008 2800     		.short	40
 774 000a 02       		.byte	2
 775 000b 00       		.space	1
 776 000c 2400     		.short	36
 777 000e 01       		.byte	1
 778 000f 00       		.space	1
 779 0010 2400     		.short	36
ARM GAS  C:\Users\Nick\AppData\Local\Temp\ccmuPAvR.s 			page 41


 780 0012 01       		.byte	1
 781 0013 00       		.space	1
 782              		.data
 783              		.align	2
 784              		.set	.LANCHOR0,. + 0
 785              		.type	cyBle_discoveryData, %object
 786              		.size	cyBle_discoveryData, 32
 787              	cyBle_discoveryData:
 788 0000 02       		.byte	2
 789 0001 01       		.byte	1
 790 0002 06       		.byte	6
 791 0003 04       		.byte	4
 792 0004 09       		.byte	9
 793 0005 4F       		.byte	79
 794 0006 54       		.byte	84
 795 0007 41       		.byte	65
 796 0008 11       		.byte	17
 797 0009 06       		.byte	6
 798 000a F0       		.byte	-16
 799 000b 34       		.byte	52
 800 000c 9B       		.byte	-101
 801 000d 5F       		.byte	95
 802 000e 80       		.byte	-128
 803 000f 00       		.byte	0
 804 0010 00       		.byte	0
 805 0011 80       		.byte	-128
 806 0012 00       		.byte	0
 807 0013 10       		.byte	16
 808 0014 00       		.byte	0
 809 0015 00       		.byte	0
 810 0016 00       		.byte	0
 811 0017 00       		.byte	0
 812 0018 00       		.byte	0
 813 0019 00       		.byte	0
 814 001a 00       		.byte	0
 815 001b 00       		.byte	0
 816 001c 00       		.byte	0
 817 001d 00       		.byte	0
 818 001e 00       		.byte	0
 819 001f 1A       		.byte	26
 820              		.type	cyBle_discoveryModeInfo, %object
 821              		.size	cyBle_discoveryModeInfo, 20
 822              	cyBle_discoveryModeInfo:
 823 0020 02       		.byte	2
 824 0021 000000   		.space	3
 825 0024 00000000 		.word	cyBle_discoveryParam
 826 0028 00000000 		.word	cyBle_discoveryData
 827 002c 00000000 		.word	cyBle_scanRspData
 828 0030 0000     		.short	0
 829 0032 0000     		.space	2
 830              		.type	cyBle_sflashDeviceAddress, %object
 831              		.size	cyBle_sflashDeviceAddress, 4
 832              	cyBle_sflashDeviceAddress:
 833 0034 00F2FF0F 		.word	268431872
 834              		.type	cyBle_deviceAddress, %object
 835              		.size	cyBle_deviceAddress, 7
 836              	cyBle_deviceAddress:
ARM GAS  C:\Users\Nick\AppData\Local\Temp\ccmuPAvR.s 			page 42


 837 0038 00       		.byte	0
 838 0039 00       		.byte	0
 839 003a 00       		.byte	0
 840 003b 50       		.byte	80
 841 003c A0       		.byte	-96
 842 003d 00       		.byte	0
 843 003e 00       		.byte	0
 844 003f 00       		.space	1
 845              		.type	cyBle_discoveryParam, %object
 846              		.size	cyBle_discoveryParam, 16
 847              	cyBle_discoveryParam:
 848 0040 2000     		.short	32
 849 0042 3000     		.short	48
 850 0044 00       		.byte	0
 851 0045 00       		.byte	0
 852 0046 00       		.byte	0
 853 0047 00       		.byte	0
 854 0048 00       		.byte	0
 855 0049 00       		.byte	0
 856 004a 50       		.byte	80
 857 004b A0       		.byte	-96
 858 004c 00       		.byte	0
 859 004d 07       		.byte	7
 860 004e 00       		.byte	0
 861 004f 00       		.space	1
 862              		.section	.noinit,"aw",%progbits
 863              		.align	3
 864              		.set	.LANCHOR3,. + 0
 865              		.type	cyBle_stackMemoryRam, %object
 866              		.size	cyBle_stackMemoryRam, 3056
 867              	cyBle_stackMemoryRam:
 868 0000 00000000 		.space	3056
 868      00000000 
 868      00000000 
 868      00000000 
 868      00000000 
 869              		.bss
 870              		.align	2
 871              		.set	.LANCHOR1,. + 0
 872              		.type	cyBle_scanRspData, %object
 873              		.size	cyBle_scanRspData, 32
 874              	cyBle_scanRspData:
 875 0000 00000000 		.space	32
 875      00000000 
 875      00000000 
 875      00000000 
 875      00000000 
 876              		.type	cyBle_initVar, %object
 877              		.size	cyBle_initVar, 1
 878              	cyBle_initVar:
 879 0020 00       		.space	1
 880 0021 000000   		.text
 881              	.Letext0:
 882              		.file 2 "Generated_Source\\PSoC4\\cytypes.h"
 883              		.file 3 "Generated_Source\\PSoC4\\CyBLE_Stack.h"
 884              		.file 4 "Generated_Source\\PSoC4\\CyBLE_StackGap.h"
 885              		.file 5 "Generated_Source\\PSoC4\\CyBLE_StackGattDb.h"
ARM GAS  C:\Users\Nick\AppData\Local\Temp\ccmuPAvR.s 			page 43


 886              		.file 6 "Generated_Source\\PSoC4\\CyBLE.h"
 887              		.file 7 "Generated_Source\\PSoC4\\CyBLE_eventHandler.h"
 888              		.file 8 "Generated_Source\\PSoC4\\CyBLE_gatt.h"
 889              		.file 9 "Generated_Source\\PSoC4\\CyBLE_custom.h"