ARM GAS  C:\Users\Nick\AppData\Local\Temp\ccu7ppaJ.s 			page 1


   1              		.cpu cortex-m0
   2              		.fpu softvfp
   3              		.eabi_attribute 20, 1
   4              		.eabi_attribute 21, 1
   5              		.eabi_attribute 23, 3
   6              		.eabi_attribute 24, 1
   7              		.eabi_attribute 25, 1
   8              		.eabi_attribute 26, 1
   9              		.eabi_attribute 30, 1
  10              		.eabi_attribute 34, 0
  11              		.eabi_attribute 18, 4
  12              		.code	16
  13              		.file	"Debug.c"
  14              		.text
  15              	.Ltext0:
  16              		.cfi_sections	.debug_frame
  17              		.section	.text._write,"ax",%progbits
  18              		.align	2
  19              		.global	_write
  20              		.code	16
  21              		.thumb_func
  22              		.type	_write, %function
  23              	_write:
  24              	.LFB37:
  25              		.file 1 "Debug.c"
   1:Debug.c       **** /*******************************************************************************
   2:Debug.c       **** * File Name: Debug.c
   3:Debug.c       **** *
   4:Debug.c       **** * Version: 1.30
   5:Debug.c       **** *
   6:Debug.c       **** * Description:
   7:Debug.c       **** *  This file contains functions for printf functionality.
   8:Debug.c       **** *
   9:Debug.c       **** * Hardware Dependency:
  10:Debug.c       **** *  CY8CKIT-042 BLE
  11:Debug.c       **** *
  12:Debug.c       **** ********************************************************************************
  13:Debug.c       **** * Copyright 2014-2015, Cypress Semiconductor Corporation. All rights reserved.
  14:Debug.c       **** * This software is owned by Cypress Semiconductor Corporation and is protected
  15:Debug.c       **** * by and subject to worldwide patent and copyright laws and treaties.
  16:Debug.c       **** * Therefore, you may use this software only as provided in the license agreement
  17:Debug.c       **** * accompanying the software package from which you obtained this software.
  18:Debug.c       **** * CYPRESS AND ITS SUPPLIERS MAKE NO WARRANTY OF ANY KIND, EXPRESS OR IMPLIED,
  19:Debug.c       **** * WITH REGARD TO THIS SOFTWARE, INCLUDING, BUT NOT LIMITED TO, NONINFRINGEMENT,
  20:Debug.c       **** * IMPLIED WARRANTIES OF MERCHANTABILITY AND FITNESS FOR A PARTICULAR PURPOSE.
  21:Debug.c       **** *******************************************************************************/
  22:Debug.c       **** 
  23:Debug.c       **** #include "cytypes.h"
  24:Debug.c       **** #include "debug.h"
  25:Debug.c       **** #include "project.h"
  26:Debug.c       **** 
  27:Debug.c       **** #if (DEBUG_UART_ENABLED == YES)
  28:Debug.c       **** 
  29:Debug.c       ****     #if defined(__ARMCC_VERSION)
  30:Debug.c       **** 
  31:Debug.c       ****         /* For MDK/RVDS compiler revise fputc() for the printf() */
  32:Debug.c       ****         struct __FILE
ARM GAS  C:\Users\Nick\AppData\Local\Temp\ccu7ppaJ.s 			page 2


  33:Debug.c       ****         {
  34:Debug.c       ****             int handle;
  35:Debug.c       ****         };
  36:Debug.c       **** 
  37:Debug.c       ****         enum
  38:Debug.c       ****         {
  39:Debug.c       ****             STDIN_HANDLE,
  40:Debug.c       ****             STDOUT_HANDLE,
  41:Debug.c       ****             STDERR_HANDLE
  42:Debug.c       ****         } ;
  43:Debug.c       **** 
  44:Debug.c       ****         FILE __stdin = {STDIN_HANDLE};
  45:Debug.c       ****         FILE __stdout = {STDOUT_HANDLE};
  46:Debug.c       ****         FILE __stderr = {STDERR_HANDLE};
  47:Debug.c       **** 
  48:Debug.c       ****         int fputc(int ch, FILE *file)
  49:Debug.c       ****         {
  50:Debug.c       ****             int ret = EOF;
  51:Debug.c       **** 
  52:Debug.c       ****             switch( file->handle )
  53:Debug.c       ****             {
  54:Debug.c       ****                 case STDOUT_HANDLE:
  55:Debug.c       ****                     UART_PutChar(ch);
  56:Debug.c       ****                     ret = ch ;
  57:Debug.c       ****                     break ;
  58:Debug.c       **** 
  59:Debug.c       ****                 case STDERR_HANDLE:
  60:Debug.c       ****                     ret = ch ;
  61:Debug.c       ****                     break ;
  62:Debug.c       **** 
  63:Debug.c       ****                 default:
  64:Debug.c       ****                     file = file;
  65:Debug.c       ****                     break ;
  66:Debug.c       ****             }
  67:Debug.c       ****             return ret ;
  68:Debug.c       ****         }
  69:Debug.c       **** 
  70:Debug.c       **** #elif defined (__ICCARM__)      /* IAR */
  71:Debug.c       **** 
  72:Debug.c       **** /* For IAR compiler revise __write() function for printf functionality */
  73:Debug.c       **** size_t __write(int handle, const unsigned char * buffer, size_t size)
  74:Debug.c       **** {
  75:Debug.c       ****     size_t nChars = 0;
  76:Debug.c       **** 
  77:Debug.c       ****     if (buffer == 0)
  78:Debug.c       ****     {
  79:Debug.c       ****         /*
  80:Debug.c       ****          * This means that we should flush internal buffers.  Since we
  81:Debug.c       ****          * don't we just return.  (Remember, "handle" == -1 means that all
  82:Debug.c       ****          * handles should be flushed.)
  83:Debug.c       ****          */
  84:Debug.c       ****         return (0);
  85:Debug.c       ****     }
  86:Debug.c       **** 
  87:Debug.c       ****     for (/* Empty */; size != 0; --size)
  88:Debug.c       ****     {
  89:Debug.c       ****         UART_PutChar(*buffer++);
ARM GAS  C:\Users\Nick\AppData\Local\Temp\ccu7ppaJ.s 			page 3


  90:Debug.c       ****         ++nChars;
  91:Debug.c       ****     }
  92:Debug.c       **** 
  93:Debug.c       ****     return (nChars);
  94:Debug.c       **** }
  95:Debug.c       **** 
  96:Debug.c       **** #else  /* (__GNUC__)  GCC */
  97:Debug.c       **** 
  98:Debug.c       ****         /* For GCC compiler revise _write() for the printf */
  99:Debug.c       ****         int _write(int file, char *ptr, int len)
 100:Debug.c       ****         {
  26              		.loc 1 100 0
  27              		.cfi_startproc
  28              	.LVL0:
  29 0000 70B5     		push	{r4, r5, r6, lr}
  30              		.cfi_def_cfa_offset 16
  31              		.cfi_offset 4, -16
  32              		.cfi_offset 5, -12
  33              		.cfi_offset 6, -8
  34              		.cfi_offset 14, -4
  35 0002 161C     		mov	r6, r2
  36              	.LVL1:
 101:Debug.c       ****             int i;
 102:Debug.c       ****             file = file;
 103:Debug.c       ****             for (i = 0; i < len; i++)
  37              		.loc 1 103 0
  38 0004 0024     		mov	r4, #0
  39 0006 05E0     		b	.L2
  40              	.LVL2:
  41              	.L3:
 104:Debug.c       ****             {
 105:Debug.c       ****                 UART_PutChar(*ptr++);
  42              		.loc 1 105 0 discriminator 3
  43 0008 4D1C     		add	r5, r1, #1
  44              	.LVL3:
  45 000a 0878     		ldrb	r0, [r1]
  46 000c FFF7FEFF 		bl	UART_PutChar
  47              	.LVL4:
 103:Debug.c       ****             {
  48              		.loc 1 103 0 discriminator 3
  49 0010 0134     		add	r4, r4, #1
  50              	.LVL5:
  51              		.loc 1 105 0 discriminator 3
  52 0012 291C     		mov	r1, r5
  53              	.LVL6:
  54              	.L2:
 103:Debug.c       ****             {
  55              		.loc 1 103 0 discriminator 1
  56 0014 B442     		cmp	r4, r6
  57 0016 F7DB     		blt	.L3
 106:Debug.c       ****             }
 107:Debug.c       ****             return len;
 108:Debug.c       ****         }
  58              		.loc 1 108 0
  59 0018 301C     		mov	r0, r6
  60              		@ sp needed
  61              	.LVL7:
ARM GAS  C:\Users\Nick\AppData\Local\Temp\ccu7ppaJ.s 			page 4


  62              	.LVL8:
  63 001a 70BD     		pop	{r4, r5, r6, pc}
  64              		.cfi_endproc
  65              	.LFE37:
  66              		.size	_write, .-_write
  67              		.text
  68              	.Letext0:
  69              		.file 2 "Generated_Source\\PSoC4/cytypes.h"
  70              		.file 3 "Generated_Source\\PSoC4/UART.h"