ARM GAS  C:\Users\Nick\AppData\Local\Temp\ccOdxH6U.s 			page 1


   1              		.cpu cortex-m0
   2              		.fpu softvfp
   3              		.eabi_attribute 20, 1
   4              		.eabi_attribute 21, 1
   5              		.eabi_attribute 23, 3
   6              		.eabi_attribute 24, 1
   7              		.eabi_attribute 25, 1
   8              		.eabi_attribute 26, 1
   9              		.eabi_attribute 30, 1
  10              		.eabi_attribute 34, 0
  11              		.eabi_attribute 18, 4
  12              		.code	16
  13              		.file	"OTAOptional.c"
  14              		.text
  15              	.Ltext0:
  16              		.cfi_sections	.debug_frame
  17              		.section	.text.WDT_Start,"ax",%progbits
  18              		.align	2
  19              		.global	WDT_Start
  20              		.code	16
  21              		.thumb_func
  22              		.type	WDT_Start, %function
  23              	WDT_Start:
  24              	.LFB37:
  25              		.file 1 "OTAOptional.c"
   1:OTAOptional.c **** /*******************************************************************************
   2:OTAOptional.c **** * File Name: OTAOptional.c
   3:OTAOptional.c **** *
   4:OTAOptional.c **** * Version: 1.30
   5:OTAOptional.c **** *
   6:OTAOptional.c **** * Description:
   7:OTAOptional.c **** *  Provides an API that implement optional functionality of OTA.
   8:OTAOptional.c **** *
   9:OTAOptional.c **** * Hardware Dependency:
  10:OTAOptional.c **** *  CY8CKIT-042 BLE
  11:OTAOptional.c **** *
  12:OTAOptional.c **** ********************************************************************************
  13:OTAOptional.c **** * Copyright 2014-2015, Cypress Semiconductor Corporation. All rights reserved.
  14:OTAOptional.c **** * This software is owned by Cypress Semiconductor Corporation and is protected
  15:OTAOptional.c **** * by and subject to worldwide patent and copyright laws and treaties.
  16:OTAOptional.c **** * Therefore, you may use this software only as provided in the license agreement
  17:OTAOptional.c **** * accompanying the software package from which you obtained this software.
  18:OTAOptional.c **** * CYPRESS AND ITS SUPPLIERS MAKE NO WARRANTY OF ANY KIND, EXPRESS OR IMPLIED,
  19:OTAOptional.c **** * WITH REGARD TO THIS SOFTWARE, INCLUDING, BUT NOT LIMITED TO, NONINFRINGEMENT,
  20:OTAOptional.c **** * IMPLIED WARRANTIES OF MERCHANTABILITY AND FITNESS FOR A PARTICULAR PURPOSE.
  21:OTAOptional.c **** *******************************************************************************/
  22:OTAOptional.c **** #include "OTAOptional.h"
  23:OTAOptional.c **** 
  24:OTAOptional.c **** 
  25:OTAOptional.c **** /*******************************************************************************
  26:OTAOptional.c **** * Function Name: WDT_Start
  27:OTAOptional.c **** ********************************************************************************
  28:OTAOptional.c **** *
  29:OTAOptional.c **** * Summary:
  30:OTAOptional.c **** *  Configures WDT to trigger an interrupt.
  31:OTAOptional.c **** *
  32:OTAOptional.c **** *******************************************************************************/
ARM GAS  C:\Users\Nick\AppData\Local\Temp\ccOdxH6U.s 			page 2


  33:OTAOptional.c **** void WDT_Start(void)
  34:OTAOptional.c **** {
  26              		.loc 1 34 0
  27              		.cfi_startproc
  28 0000 08B5     		push	{r3, lr}
  29              		.cfi_def_cfa_offset 8
  30              		.cfi_offset 3, -8
  31              		.cfi_offset 14, -4
  35:OTAOptional.c ****     /* Unlock the WDT registers for modification */
  36:OTAOptional.c ****     CySysWdtUnlock(); 
  32              		.loc 1 36 0
  33 0002 FFF7FEFF 		bl	CySysWdtUnlock
  34              	.LVL0:
  37:OTAOptional.c ****     /* Setup ISR */
  38:OTAOptional.c ****     WDT_Interrupt_StartEx(&Timer_Interrupt);
  35              		.loc 1 38 0
  36 0006 0C48     		ldr	r0, .L2
  37 0008 FFF7FEFF 		bl	WDT_Interrupt_StartEx
  38              	.LVL1:
  39:OTAOptional.c ****     /* Write the mode to generate interrupt on match */
  40:OTAOptional.c ****     CySysWdtWriteMode(WDT_COUNTER, CY_SYS_WDT_MODE_INT);
  39              		.loc 1 40 0
  40 000c 0120     		mov	r0, #1
  41 000e 0121     		mov	r1, #1
  42 0010 FFF7FEFF 		bl	CySysWdtSetMode
  43              	.LVL2:
  41:OTAOptional.c ****     /* Configure the WDT counter clear on a match setting */
  42:OTAOptional.c ****     CySysWdtWriteClearOnMatch(WDT_COUNTER, WDT_COUNTER_ENABLE);
  44              		.loc 1 42 0
  45 0014 0120     		mov	r0, #1
  46 0016 0121     		mov	r1, #1
  47 0018 FFF7FEFF 		bl	CySysWdtSetClearOnMatch
  48              	.LVL3:
  43:OTAOptional.c ****     /* Configure the WDT counter match comparison value */
  44:OTAOptional.c ****     CySysWdtWriteMatch(WDT_COUNTER, WDT_TIMEOUT);
  49              		.loc 1 44 0
  50 001c 0120     		mov	r0, #1
  51 001e 2021     		mov	r1, #32
  52 0020 FFF7FEFF 		bl	CySysWdtSetMatch
  53              	.LVL4:
  45:OTAOptional.c ****     /* Reset WDT counter */
  46:OTAOptional.c ****     CySysWdtResetCounters(WDT_COUNTER);
  54              		.loc 1 46 0
  55 0024 0120     		mov	r0, #1
  56 0026 FFF7FEFF 		bl	CySysWdtResetCounters
  57              	.LVL5:
  47:OTAOptional.c ****     /* Enable the specified WDT counter */
  48:OTAOptional.c ****     CySysWdtEnable(WDT_COUNTER_MASK);
  58              		.loc 1 48 0
  59 002a 8020     		mov	r0, #128
  60 002c 4000     		lsl	r0, r0, #1
  61 002e FFF7FEFF 		bl	CySysWdtEnable
  62              	.LVL6:
  49:OTAOptional.c ****     /* Lock out configuration changes to the Watchdog timer registers */
  50:OTAOptional.c ****     CySysWdtLock();    
  63              		.loc 1 50 0
  64 0032 FFF7FEFF 		bl	CySysWdtLock
ARM GAS  C:\Users\Nick\AppData\Local\Temp\ccOdxH6U.s 			page 3


  65              	.LVL7:
  51:OTAOptional.c **** }
  66              		.loc 1 51 0
  67              		@ sp needed
  68 0036 08BD     		pop	{r3, pc}
  69              	.L3:
  70              		.align	2
  71              	.L2:
  72 0038 00000000 		.word	Timer_Interrupt
  73              		.cfi_endproc
  74              	.LFE37:
  75              		.size	WDT_Start, .-WDT_Start
  76              		.section	.text.WDT_Stop,"ax",%progbits
  77              		.align	2
  78              		.global	WDT_Stop
  79              		.code	16
  80              		.thumb_func
  81              		.type	WDT_Stop, %function
  82              	WDT_Stop:
  83              	.LFB38:
  52:OTAOptional.c **** 
  53:OTAOptional.c **** 
  54:OTAOptional.c **** /*******************************************************************************
  55:OTAOptional.c **** * Function Name: WDT_Stop
  56:OTAOptional.c **** ********************************************************************************
  57:OTAOptional.c **** *
  58:OTAOptional.c **** * Summary:
  59:OTAOptional.c **** *  This API stops the WDT timer.
  60:OTAOptional.c **** *
  61:OTAOptional.c **** *******************************************************************************/
  62:OTAOptional.c **** void WDT_Stop(void)
  63:OTAOptional.c **** {
  84              		.loc 1 63 0
  85              		.cfi_startproc
  86 0000 08B5     		push	{r3, lr}
  87              		.cfi_def_cfa_offset 8
  88              		.cfi_offset 3, -8
  89              		.cfi_offset 14, -4
  64:OTAOptional.c ****     /* Unlock the WDT registers for modification */
  65:OTAOptional.c ****     CySysWdtUnlock(); 
  90              		.loc 1 65 0
  91 0002 FFF7FEFF 		bl	CySysWdtUnlock
  92              	.LVL8:
  66:OTAOptional.c ****     /* Disable the specified WDT counter */
  67:OTAOptional.c ****     CySysWdtDisable(WDT_COUNTER_MASK);
  93              		.loc 1 67 0
  94 0006 8020     		mov	r0, #128
  95 0008 4000     		lsl	r0, r0, #1
  96 000a FFF7FEFF 		bl	CySysWdtDisable
  97              	.LVL9:
  68:OTAOptional.c ****     /* Locks out configuration changes to the Watchdog timer registers */
  69:OTAOptional.c ****     CySysWdtLock();    
  98              		.loc 1 69 0
  99 000e FFF7FEFF 		bl	CySysWdtLock
 100              	.LVL10:
  70:OTAOptional.c **** }
 101              		.loc 1 70 0
ARM GAS  C:\Users\Nick\AppData\Local\Temp\ccOdxH6U.s 			page 4


 102              		@ sp needed
 103 0012 08BD     		pop	{r3, pc}
 104              		.cfi_endproc
 105              	.LFE38:
 106              		.size	WDT_Stop, .-WDT_Stop
 107              		.section	.text.HandleLeds,"ax",%progbits
 108              		.align	2
 109              		.global	HandleLeds
 110              		.code	16
 111              		.thumb_func
 112              		.type	HandleLeds, %function
 113              	HandleLeds:
 114              	.LFB40:
  71:OTAOptional.c **** 
  72:OTAOptional.c **** 
  73:OTAOptional.c **** /*******************************************************************************
  74:OTAOptional.c **** * Function Name: Timer_Interrupt
  75:OTAOptional.c **** ********************************************************************************
  76:OTAOptional.c **** *
  77:OTAOptional.c **** * Summary:
  78:OTAOptional.c **** *  Handles the Interrupt Service Routine for the WDT timer.
  79:OTAOptional.c **** *
  80:OTAOptional.c **** *******************************************************************************/
  81:OTAOptional.c **** CY_ISR(Timer_Interrupt)
  82:OTAOptional.c **** {
  83:OTAOptional.c ****     if(CySysWdtGetInterruptSource() & WDT_INTERRUPT_SOURCE)
  84:OTAOptional.c ****     {
  85:OTAOptional.c ****         HandleLeds();
  86:OTAOptional.c ****         
  87:OTAOptional.c ****         /* Clears interrupt request  */
  88:OTAOptional.c ****         CySysWdtClearInterrupt(WDT_INTERRUPT_SOURCE);
  89:OTAOptional.c ****     }
  90:OTAOptional.c **** }
  91:OTAOptional.c **** 
  92:OTAOptional.c **** 
  93:OTAOptional.c **** /*******************************************************************************
  94:OTAOptional.c **** * Function Name: HandleLeds()
  95:OTAOptional.c **** ********************************************************************************
  96:OTAOptional.c **** *
  97:OTAOptional.c **** * Summary:
  98:OTAOptional.c **** *   This function handles LEDs operation depending on the project operation
  99:OTAOptional.c **** *   mode.
 100:OTAOptional.c **** *
 101:OTAOptional.c **** * Parameters:
 102:OTAOptional.c **** *   None
 103:OTAOptional.c **** *
 104:OTAOptional.c **** * Return:
 105:OTAOptional.c **** *   None
 106:OTAOptional.c **** *
 107:OTAOptional.c **** *******************************************************************************/
 108:OTAOptional.c **** void HandleLeds(void)
 109:OTAOptional.c **** {
 115              		.loc 1 109 0
 116              		.cfi_startproc
 117 0000 08B5     		push	{r3, lr}
 118              		.cfi_def_cfa_offset 8
 119              		.cfi_offset 3, -8
ARM GAS  C:\Users\Nick\AppData\Local\Temp\ccOdxH6U.s 			page 5


 120              		.cfi_offset 14, -4
 110:OTAOptional.c ****     static uint32 ledTimer = LED_TIMEOUT;
 111:OTAOptional.c ****     static uint8 advLed = LED_OFF;
 112:OTAOptional.c **** 
 113:OTAOptional.c ****    /* Blink blue LED to indicate that the device advertises */
 114:OTAOptional.c ****     if(connHandle.bdHandle == 0u)
 121              		.loc 1 114 0
 122 0002 0D4B     		ldr	r3, .L8
 123 0004 1B78     		ldrb	r3, [r3]
 124 0006 002B     		cmp	r3, #0
 125 0008 12D1     		bne	.L6
 115:OTAOptional.c ****     {
 116:OTAOptional.c ****         if(--ledTimer == 0u)
 126              		.loc 1 116 0
 127 000a 0C4A     		ldr	r2, .L8+4
 128 000c 1368     		ldr	r3, [r2]
 129 000e 013B     		sub	r3, r3, #1
 130 0010 1360     		str	r3, [r2]
 131 0012 002B     		cmp	r3, #0
 132 0014 0FD1     		bne	.L5
 117:OTAOptional.c ****         {
 118:OTAOptional.c ****             ledTimer = LED_TIMEOUT;
 133              		.loc 1 118 0
 134 0016 FA23     		mov	r3, #250
 135 0018 9B00     		lsl	r3, r3, #2
 136 001a 1360     		str	r3, [r2]
 119:OTAOptional.c ****             advLed ^= LED_OFF;
 137              		.loc 1 119 0
 138 001c 1079     		ldrb	r0, [r2, #4]
 139 001e 0123     		mov	r3, #1
 140 0020 5840     		eor	r0, r3
 141 0022 1071     		strb	r0, [r2, #4]
 120:OTAOptional.c ****             Bootloading_LED_Write(advLed);
 142              		.loc 1 120 0
 143 0024 FFF7FEFF 		bl	Bootloading_LED_Write
 144              	.LVL11:
 121:OTAOptional.c ****             CyDelay(1u);
 145              		.loc 1 121 0
 146 0028 0120     		mov	r0, #1
 147 002a FFF7FEFF 		bl	CyDelay
 148              	.LVL12:
 149 002e 02E0     		b	.L5
 150              	.L6:
 122:OTAOptional.c ****         }
 123:OTAOptional.c ****     }
 124:OTAOptional.c ****     else
 125:OTAOptional.c ****     {
 126:OTAOptional.c ****         Bootloading_LED_Write(LED_ON);
 151              		.loc 1 126 0
 152 0030 0020     		mov	r0, #0
 153 0032 FFF7FEFF 		bl	Bootloading_LED_Write
 154              	.LVL13:
 155              	.L5:
 127:OTAOptional.c ****     }
 128:OTAOptional.c **** }
 156              		.loc 1 128 0
 157              		@ sp needed
ARM GAS  C:\Users\Nick\AppData\Local\Temp\ccOdxH6U.s 			page 6


 158 0036 08BD     		pop	{r3, pc}
 159              	.L9:
 160              		.align	2
 161              	.L8:
 162 0038 00000000 		.word	connHandle
 163 003c 00000000 		.word	.LANCHOR0
 164              		.cfi_endproc
 165              	.LFE40:
 166              		.size	HandleLeds, .-HandleLeds
 167              		.section	.text.Timer_Interrupt,"ax",%progbits
 168              		.align	2
 169              		.global	Timer_Interrupt
 170              		.code	16
 171              		.thumb_func
 172              		.type	Timer_Interrupt, %function
 173              	Timer_Interrupt:
 174              	.LFB39:
  82:OTAOptional.c ****     if(CySysWdtGetInterruptSource() & WDT_INTERRUPT_SOURCE)
 175              		.loc 1 82 0
 176              		.cfi_startproc
 177 0000 08B5     		push	{r3, lr}
 178              		.cfi_def_cfa_offset 8
 179              		.cfi_offset 3, -8
 180              		.cfi_offset 14, -4
  83:OTAOptional.c ****     {
 181              		.loc 1 83 0
 182 0002 FFF7FEFF 		bl	CySysWdtGetInterruptSource
 183              	.LVL14:
 184 0006 4305     		lsl	r3, r0, #21
 185 0008 05D5     		bpl	.L10
  85:OTAOptional.c ****         
 186              		.loc 1 85 0
 187 000a FFF7FEFF 		bl	HandleLeds
 188              	.LVL15:
  88:OTAOptional.c ****     }
 189              		.loc 1 88 0
 190 000e 8020     		mov	r0, #128
 191 0010 C000     		lsl	r0, r0, #3
 192 0012 FFF7FEFF 		bl	CySysWdtClearInterrupt
 193              	.LVL16:
 194              	.L10:
  90:OTAOptional.c **** 
 195              		.loc 1 90 0
 196              		@ sp needed
 197 0016 08BD     		pop	{r3, pc}
 198              		.cfi_endproc
 199              	.LFE39:
 200              		.size	Timer_Interrupt, .-Timer_Interrupt
 201              		.data
 202              		.align	2
 203              		.set	.LANCHOR0,. + 0
 204              		.type	ledTimer.6861, %object
 205              		.size	ledTimer.6861, 4
 206              	ledTimer.6861:
 207 0000 E8030000 		.word	1000
 208              		.type	advLed.6862, %object
 209              		.size	advLed.6862, 1
ARM GAS  C:\Users\Nick\AppData\Local\Temp\ccOdxH6U.s 			page 7


 210              	advLed.6862:
 211 0004 01       		.byte	1
 212 0005 000000   		.text
 213              	.Letext0:
 214              		.file 2 "Generated_Source\\PSoC4/cytypes.h"
 215              		.file 3 "Generated_Source\\PSoC4/CyBLE_StackGatt.h"
 216              		.file 4 "Generated_Source\\PSoC4/WDT_Interrupt.h"
 217              		.file 5 "Generated_Source\\PSoC4/CyLFClk.h"
 218              		.file 6 "Generated_Source\\PSoC4/Bootloading_LED.h"
 219              		.file 7 "Generated_Source\\PSoC4/CyLib.h"
 220              		.file 8 "OTAOptional.h"