ARM GAS  C:\Users\Nick\AppData\Local\Temp\cc6ZAR9j.s 			page 1


   1              		.cpu cortex-m0
   2              		.fpu softvfp
   3              		.eabi_attribute 20, 1
   4              		.eabi_attribute 21, 1
   5              		.eabi_attribute 23, 3
   6              		.eabi_attribute 24, 1
   7              		.eabi_attribute 25, 1
   8              		.eabi_attribute 26, 1
   9              		.eabi_attribute 30, 1
  10              		.eabi_attribute 34, 0
  11              		.eabi_attribute 18, 4
  12              		.code	16
  13              		.file	"ADC_SAR_Seq_1.c"
  14              		.text
  15              	.Ltext0:
  16              		.cfi_sections	.debug_frame
  17              		.global	__aeabi_idiv
  18              		.section	.text.ADC_SAR_Seq_1_Init,"ax",%progbits
  19              		.align	2
  20              		.global	ADC_SAR_Seq_1_Init
  21              		.code	16
  22              		.thumb_func
  23              		.type	ADC_SAR_Seq_1_Init, %function
  24              	ADC_SAR_Seq_1_Init:
  25              	.LFB3:
  26              		.file 1 "Generated_Source\\PSoC4\\ADC_SAR_Seq_1.c"
   1:Generated_Source\PSoC4/ADC_SAR_Seq_1.c **** /*******************************************************************************
   2:Generated_Source\PSoC4/ADC_SAR_Seq_1.c **** * File Name: ADC_SAR_Seq_1.c
   3:Generated_Source\PSoC4/ADC_SAR_Seq_1.c **** * Version 2.40
   4:Generated_Source\PSoC4/ADC_SAR_Seq_1.c **** *
   5:Generated_Source\PSoC4/ADC_SAR_Seq_1.c **** * Description:
   6:Generated_Source\PSoC4/ADC_SAR_Seq_1.c **** *  This file provides the source code to the API for the Sequencing Successive
   7:Generated_Source\PSoC4/ADC_SAR_Seq_1.c **** *  Approximation ADC Component Component.
   8:Generated_Source\PSoC4/ADC_SAR_Seq_1.c **** *
   9:Generated_Source\PSoC4/ADC_SAR_Seq_1.c **** * Note:
  10:Generated_Source\PSoC4/ADC_SAR_Seq_1.c **** *
  11:Generated_Source\PSoC4/ADC_SAR_Seq_1.c **** ********************************************************************************
  12:Generated_Source\PSoC4/ADC_SAR_Seq_1.c **** * Copyright 2008-2015, Cypress Semiconductor Corporation.  All rights reserved.
  13:Generated_Source\PSoC4/ADC_SAR_Seq_1.c **** * You may use this file only in accordance with the license, terms, conditions,
  14:Generated_Source\PSoC4/ADC_SAR_Seq_1.c **** * disclaimers, and limitations in the end user license agreement accompanying
  15:Generated_Source\PSoC4/ADC_SAR_Seq_1.c **** * the software package with which this file was provided.
  16:Generated_Source\PSoC4/ADC_SAR_Seq_1.c **** *******************************************************************************/
  17:Generated_Source\PSoC4/ADC_SAR_Seq_1.c **** 
  18:Generated_Source\PSoC4/ADC_SAR_Seq_1.c **** #include "ADC_SAR_Seq_1.h"
  19:Generated_Source\PSoC4/ADC_SAR_Seq_1.c **** 
  20:Generated_Source\PSoC4/ADC_SAR_Seq_1.c **** 
  21:Generated_Source\PSoC4/ADC_SAR_Seq_1.c **** /***************************************
  22:Generated_Source\PSoC4/ADC_SAR_Seq_1.c **** * Global data allocation
  23:Generated_Source\PSoC4/ADC_SAR_Seq_1.c **** ***************************************/
  24:Generated_Source\PSoC4/ADC_SAR_Seq_1.c **** uint8 ADC_SAR_Seq_1_initVar = 0u;
  25:Generated_Source\PSoC4/ADC_SAR_Seq_1.c **** volatile int16 ADC_SAR_Seq_1_offset[ADC_SAR_Seq_1_TOTAL_CHANNELS_NUM];
  26:Generated_Source\PSoC4/ADC_SAR_Seq_1.c **** volatile int32 ADC_SAR_Seq_1_countsPer10Volt[ADC_SAR_Seq_1_TOTAL_CHANNELS_NUM];   /* Gain compensat
  27:Generated_Source\PSoC4/ADC_SAR_Seq_1.c **** 
  28:Generated_Source\PSoC4/ADC_SAR_Seq_1.c **** 
  29:Generated_Source\PSoC4/ADC_SAR_Seq_1.c **** /***************************************
  30:Generated_Source\PSoC4/ADC_SAR_Seq_1.c **** * Local data allocation
  31:Generated_Source\PSoC4/ADC_SAR_Seq_1.c **** ***************************************/
ARM GAS  C:\Users\Nick\AppData\Local\Temp\cc6ZAR9j.s 			page 2


  32:Generated_Source\PSoC4/ADC_SAR_Seq_1.c **** /* Channels configuration generated by customiser */
  33:Generated_Source\PSoC4/ADC_SAR_Seq_1.c **** static const uint32 CYCODE ADC_SAR_Seq_1_channelsConfig[] = { 0x00000000u, 0x00000000u, 0x00000000u
  34:Generated_Source\PSoC4/ADC_SAR_Seq_1.c **** 
  35:Generated_Source\PSoC4/ADC_SAR_Seq_1.c **** 
  36:Generated_Source\PSoC4/ADC_SAR_Seq_1.c **** /*******************************************************************************
  37:Generated_Source\PSoC4/ADC_SAR_Seq_1.c **** * Function Name: ADC_SAR_Seq_1_Start
  38:Generated_Source\PSoC4/ADC_SAR_Seq_1.c **** ********************************************************************************
  39:Generated_Source\PSoC4/ADC_SAR_Seq_1.c **** *
  40:Generated_Source\PSoC4/ADC_SAR_Seq_1.c **** * Summary:
  41:Generated_Source\PSoC4/ADC_SAR_Seq_1.c **** *  Performs all required initialization for this component
  42:Generated_Source\PSoC4/ADC_SAR_Seq_1.c **** *  and enables the power. The power will be set to the appropriate
  43:Generated_Source\PSoC4/ADC_SAR_Seq_1.c **** *  power based on the clock frequency.
  44:Generated_Source\PSoC4/ADC_SAR_Seq_1.c **** *
  45:Generated_Source\PSoC4/ADC_SAR_Seq_1.c **** * Parameters:
  46:Generated_Source\PSoC4/ADC_SAR_Seq_1.c **** *  None.
  47:Generated_Source\PSoC4/ADC_SAR_Seq_1.c **** *
  48:Generated_Source\PSoC4/ADC_SAR_Seq_1.c **** * Return:
  49:Generated_Source\PSoC4/ADC_SAR_Seq_1.c **** *  None.
  50:Generated_Source\PSoC4/ADC_SAR_Seq_1.c **** *
  51:Generated_Source\PSoC4/ADC_SAR_Seq_1.c **** * Global variables:
  52:Generated_Source\PSoC4/ADC_SAR_Seq_1.c **** *  The ADC_SAR_Seq_1_initVar variable is used to indicate when/if initial
  53:Generated_Source\PSoC4/ADC_SAR_Seq_1.c **** *  configuration of this component has happened. The variable is initialized to
  54:Generated_Source\PSoC4/ADC_SAR_Seq_1.c **** *  zero and set to 1 the first time ADC_Start() is called. This allows for
  55:Generated_Source\PSoC4/ADC_SAR_Seq_1.c **** *  component Re-Start without re-initialization in all subsequent calls to the
  56:Generated_Source\PSoC4/ADC_SAR_Seq_1.c **** *  ADC_SAR_Seq_1_Start() routine.
  57:Generated_Source\PSoC4/ADC_SAR_Seq_1.c **** *  If re-initialization of the component is required the variable should be set
  58:Generated_Source\PSoC4/ADC_SAR_Seq_1.c **** *  to zero before call of ADC_SAR_Seq_1_Start() routine, or the user may call
  59:Generated_Source\PSoC4/ADC_SAR_Seq_1.c **** *  ADC_SAR_Seq_1_Init() and ADC_SAR_Seq_1_Enable() as done in the
  60:Generated_Source\PSoC4/ADC_SAR_Seq_1.c **** *  ADC_SAR_Seq_1_Start() routine.
  61:Generated_Source\PSoC4/ADC_SAR_Seq_1.c **** *
  62:Generated_Source\PSoC4/ADC_SAR_Seq_1.c **** *******************************************************************************/
  63:Generated_Source\PSoC4/ADC_SAR_Seq_1.c **** void ADC_SAR_Seq_1_Start(void)
  64:Generated_Source\PSoC4/ADC_SAR_Seq_1.c **** {
  65:Generated_Source\PSoC4/ADC_SAR_Seq_1.c ****     /* If not Initialized then initialize all required hardware and software */
  66:Generated_Source\PSoC4/ADC_SAR_Seq_1.c ****     if(ADC_SAR_Seq_1_initVar == 0u)
  67:Generated_Source\PSoC4/ADC_SAR_Seq_1.c ****     {
  68:Generated_Source\PSoC4/ADC_SAR_Seq_1.c ****         ADC_SAR_Seq_1_Init();
  69:Generated_Source\PSoC4/ADC_SAR_Seq_1.c ****         ADC_SAR_Seq_1_initVar = 1u;
  70:Generated_Source\PSoC4/ADC_SAR_Seq_1.c ****     }
  71:Generated_Source\PSoC4/ADC_SAR_Seq_1.c ****     ADC_SAR_Seq_1_Enable();
  72:Generated_Source\PSoC4/ADC_SAR_Seq_1.c **** }
  73:Generated_Source\PSoC4/ADC_SAR_Seq_1.c **** 
  74:Generated_Source\PSoC4/ADC_SAR_Seq_1.c **** 
  75:Generated_Source\PSoC4/ADC_SAR_Seq_1.c **** /*******************************************************************************
  76:Generated_Source\PSoC4/ADC_SAR_Seq_1.c **** * Function Name: ADC_SAR_Seq_1_Init
  77:Generated_Source\PSoC4/ADC_SAR_Seq_1.c **** ********************************************************************************
  78:Generated_Source\PSoC4/ADC_SAR_Seq_1.c **** *
  79:Generated_Source\PSoC4/ADC_SAR_Seq_1.c **** * Summary:
  80:Generated_Source\PSoC4/ADC_SAR_Seq_1.c **** *  Initialize component's parameters to the parameters set by user in the
  81:Generated_Source\PSoC4/ADC_SAR_Seq_1.c **** *  customizer of the component placed onto schematic. Usually called in
  82:Generated_Source\PSoC4/ADC_SAR_Seq_1.c **** *  ADC_SAR_Seq_1_Start().
  83:Generated_Source\PSoC4/ADC_SAR_Seq_1.c **** *
  84:Generated_Source\PSoC4/ADC_SAR_Seq_1.c **** * Parameters:
  85:Generated_Source\PSoC4/ADC_SAR_Seq_1.c **** *  None.
  86:Generated_Source\PSoC4/ADC_SAR_Seq_1.c **** *
  87:Generated_Source\PSoC4/ADC_SAR_Seq_1.c **** * Return:
  88:Generated_Source\PSoC4/ADC_SAR_Seq_1.c **** *  None.
ARM GAS  C:\Users\Nick\AppData\Local\Temp\cc6ZAR9j.s 			page 3


  89:Generated_Source\PSoC4/ADC_SAR_Seq_1.c **** *
  90:Generated_Source\PSoC4/ADC_SAR_Seq_1.c **** * Global variables:
  91:Generated_Source\PSoC4/ADC_SAR_Seq_1.c **** *  The ADC_SAR_Seq_1_offset variable is initialized.
  92:Generated_Source\PSoC4/ADC_SAR_Seq_1.c **** *
  93:Generated_Source\PSoC4/ADC_SAR_Seq_1.c **** *******************************************************************************/
  94:Generated_Source\PSoC4/ADC_SAR_Seq_1.c **** void ADC_SAR_Seq_1_Init(void)
  95:Generated_Source\PSoC4/ADC_SAR_Seq_1.c **** {
  27              		.loc 1 95 0
  28              		.cfi_startproc
  29 0000 10B5     		push	{r4, lr}
  30              		.cfi_def_cfa_offset 8
  31              		.cfi_offset 4, -8
  32              		.cfi_offset 14, -4
  96:Generated_Source\PSoC4/ADC_SAR_Seq_1.c ****     uint32 chNum;
  97:Generated_Source\PSoC4/ADC_SAR_Seq_1.c ****     uint32 tmpRegVal;
  98:Generated_Source\PSoC4/ADC_SAR_Seq_1.c ****     int32 counts;
  99:Generated_Source\PSoC4/ADC_SAR_Seq_1.c **** 
 100:Generated_Source\PSoC4/ADC_SAR_Seq_1.c ****     #if(ADC_SAR_Seq_1_TOTAL_CHANNELS_NUM > 1u)
 101:Generated_Source\PSoC4/ADC_SAR_Seq_1.c ****         static const uint8 CYCODE ADC_SAR_Seq_1_InputsPlacement[] =
 102:Generated_Source\PSoC4/ADC_SAR_Seq_1.c ****         {
 103:Generated_Source\PSoC4/ADC_SAR_Seq_1.c ****             (uint8)(ADC_SAR_Seq_1_cy_psoc4_sarmux_8__CH_0_PORT << 4u) |
 104:Generated_Source\PSoC4/ADC_SAR_Seq_1.c ****             (uint8)ADC_SAR_Seq_1_cy_psoc4_sarmux_8__CH_0_PIN
 105:Generated_Source\PSoC4/ADC_SAR_Seq_1.c ****             ,(uint8)(ADC_SAR_Seq_1_cy_psoc4_sarmux_8__CH_1_PORT << 4u) |
 106:Generated_Source\PSoC4/ADC_SAR_Seq_1.c ****              (uint8)ADC_SAR_Seq_1_cy_psoc4_sarmux_8__CH_1_PIN
 107:Generated_Source\PSoC4/ADC_SAR_Seq_1.c ****             #if(ADC_SAR_Seq_1_TOTAL_CHANNELS_NUM > 2u)
 108:Generated_Source\PSoC4/ADC_SAR_Seq_1.c ****                 ,(uint8)(ADC_SAR_Seq_1_cy_psoc4_sarmux_8__CH_2_PORT << 4u) |
 109:Generated_Source\PSoC4/ADC_SAR_Seq_1.c ****                  (uint8)ADC_SAR_Seq_1_cy_psoc4_sarmux_8__CH_2_PIN
 110:Generated_Source\PSoC4/ADC_SAR_Seq_1.c ****             #endif /* End ADC_SAR_Seq_1_TOTAL_CHANNELS_NUM > 2u */
 111:Generated_Source\PSoC4/ADC_SAR_Seq_1.c ****             #if(ADC_SAR_Seq_1_TOTAL_CHANNELS_NUM > 3u)
 112:Generated_Source\PSoC4/ADC_SAR_Seq_1.c ****                 ,(uint8)(ADC_SAR_Seq_1_cy_psoc4_sarmux_8__CH_3_PORT << 4u) |
 113:Generated_Source\PSoC4/ADC_SAR_Seq_1.c ****                  (uint8)ADC_SAR_Seq_1_cy_psoc4_sarmux_8__CH_3_PIN
 114:Generated_Source\PSoC4/ADC_SAR_Seq_1.c ****             #endif /* End ADC_SAR_Seq_1_TOTAL_CHANNELS_NUM > 3u */
 115:Generated_Source\PSoC4/ADC_SAR_Seq_1.c ****             #if(ADC_SAR_Seq_1_TOTAL_CHANNELS_NUM > 4u)
 116:Generated_Source\PSoC4/ADC_SAR_Seq_1.c ****                 ,(uint8)(ADC_SAR_Seq_1_cy_psoc4_sarmux_8__CH_4_PORT << 4u) |
 117:Generated_Source\PSoC4/ADC_SAR_Seq_1.c ****                  (uint8)ADC_SAR_Seq_1_cy_psoc4_sarmux_8__CH_4_PIN
 118:Generated_Source\PSoC4/ADC_SAR_Seq_1.c ****             #endif /* End ADC_SAR_Seq_1_TOTAL_CHANNELS_NUM > 4u */
 119:Generated_Source\PSoC4/ADC_SAR_Seq_1.c ****             #if(ADC_SAR_Seq_1_TOTAL_CHANNELS_NUM > 5u)
 120:Generated_Source\PSoC4/ADC_SAR_Seq_1.c ****                 ,(uint8)(ADC_SAR_Seq_1_cy_psoc4_sarmux_8__CH_5_PORT << 4u) |
 121:Generated_Source\PSoC4/ADC_SAR_Seq_1.c ****                  (uint8)ADC_SAR_Seq_1_cy_psoc4_sarmux_8__CH_5_PIN
 122:Generated_Source\PSoC4/ADC_SAR_Seq_1.c ****             #endif /* End ADC_SAR_Seq_1_TOTAL_CHANNELS_NUM > 5u */
 123:Generated_Source\PSoC4/ADC_SAR_Seq_1.c ****             #if(ADC_SAR_Seq_1_TOTAL_CHANNELS_NUM > 6u)
 124:Generated_Source\PSoC4/ADC_SAR_Seq_1.c ****                 ,(uint8)(ADC_SAR_Seq_1_cy_psoc4_sarmux_8__CH_6_PORT << 4u) |
 125:Generated_Source\PSoC4/ADC_SAR_Seq_1.c ****                  (uint8)ADC_SAR_Seq_1_cy_psoc4_sarmux_8__CH_6_PIN
 126:Generated_Source\PSoC4/ADC_SAR_Seq_1.c ****             #endif /* End ADC_SAR_Seq_1_TOTAL_CHANNELS_NUM > 6u */
 127:Generated_Source\PSoC4/ADC_SAR_Seq_1.c ****             #if(ADC_SAR_Seq_1_TOTAL_CHANNELS_NUM > 7u)
 128:Generated_Source\PSoC4/ADC_SAR_Seq_1.c ****                 ,(uint8)(ADC_SAR_Seq_1_cy_psoc4_sarmux_8__CH_7_PORT << 4u) |
 129:Generated_Source\PSoC4/ADC_SAR_Seq_1.c ****                  (uint8)ADC_SAR_Seq_1_cy_psoc4_sarmux_8__CH_7_PIN
 130:Generated_Source\PSoC4/ADC_SAR_Seq_1.c ****             #endif /* End ADC_SAR_Seq_1_TOTAL_CHANNELS_NUM > 7u */
 131:Generated_Source\PSoC4/ADC_SAR_Seq_1.c ****             #if(ADC_SAR_Seq_1_TOTAL_CHANNELS_NUM > 8u)
 132:Generated_Source\PSoC4/ADC_SAR_Seq_1.c ****                 ,(uint8)(ADC_SAR_Seq_1_cy_psoc4_sarmux_8__CH_8_PORT << 4u) |
 133:Generated_Source\PSoC4/ADC_SAR_Seq_1.c ****                  (uint8)ADC_SAR_Seq_1_cy_psoc4_sarmux_8__CH_8_PIN
 134:Generated_Source\PSoC4/ADC_SAR_Seq_1.c ****             #endif /* End ADC_SAR_Seq_1_TOTAL_CHANNELS_NUM > 8u */
 135:Generated_Source\PSoC4/ADC_SAR_Seq_1.c ****             #if(ADC_SAR_Seq_1_TOTAL_CHANNELS_NUM > 9u)
 136:Generated_Source\PSoC4/ADC_SAR_Seq_1.c ****                 ,(uint8)(ADC_SAR_Seq_1_cy_psoc4_sarmux_8__CH_9_PORT << 4u) |
 137:Generated_Source\PSoC4/ADC_SAR_Seq_1.c ****                  (uint8)ADC_SAR_Seq_1_cy_psoc4_sarmux_8__CH_9_PIN
 138:Generated_Source\PSoC4/ADC_SAR_Seq_1.c ****             #endif /* End ADC_SAR_Seq_1_TOTAL_CHANNELS_NUM > 9u */
 139:Generated_Source\PSoC4/ADC_SAR_Seq_1.c ****             #if(ADC_SAR_Seq_1_TOTAL_CHANNELS_NUM > 10u)
ARM GAS  C:\Users\Nick\AppData\Local\Temp\cc6ZAR9j.s 			page 4


 140:Generated_Source\PSoC4/ADC_SAR_Seq_1.c ****                 ,(uint8)(ADC_SAR_Seq_1_cy_psoc4_sarmux_8__CH_10_PORT << 4u) |
 141:Generated_Source\PSoC4/ADC_SAR_Seq_1.c ****                  (uint8)ADC_SAR_Seq_1_cy_psoc4_sarmux_8__CH_10_PIN
 142:Generated_Source\PSoC4/ADC_SAR_Seq_1.c ****             #endif /* End ADC_SAR_Seq_1_TOTAL_CHANNELS_NUM > 10u */
 143:Generated_Source\PSoC4/ADC_SAR_Seq_1.c ****             #if(ADC_SAR_Seq_1_TOTAL_CHANNELS_NUM > 11u)
 144:Generated_Source\PSoC4/ADC_SAR_Seq_1.c ****                 ,(uint8)(ADC_SAR_Seq_1_cy_psoc4_sarmux_8__CH_11_PORT << 4u) |
 145:Generated_Source\PSoC4/ADC_SAR_Seq_1.c ****                  (uint8)ADC_SAR_Seq_1_cy_psoc4_sarmux_8__CH_11_PIN
 146:Generated_Source\PSoC4/ADC_SAR_Seq_1.c ****             #endif /* End ADC_SAR_Seq_1_TOTAL_CHANNELS_NUM > 11u */
 147:Generated_Source\PSoC4/ADC_SAR_Seq_1.c ****             #if(ADC_SAR_Seq_1_TOTAL_CHANNELS_NUM > 12u)
 148:Generated_Source\PSoC4/ADC_SAR_Seq_1.c ****                 ,(uint8)(ADC_SAR_Seq_1_cy_psoc4_sarmux_8__CH_12_PORT << 4u) |
 149:Generated_Source\PSoC4/ADC_SAR_Seq_1.c ****                  (uint8)ADC_SAR_Seq_1_cy_psoc4_sarmux_8__CH_12_PIN
 150:Generated_Source\PSoC4/ADC_SAR_Seq_1.c ****             #endif /* End ADC_SAR_Seq_1_TOTAL_CHANNELS_NUM > 12u */
 151:Generated_Source\PSoC4/ADC_SAR_Seq_1.c ****             #if(ADC_SAR_Seq_1_TOTAL_CHANNELS_NUM > 13u)
 152:Generated_Source\PSoC4/ADC_SAR_Seq_1.c ****                 ,(uint8)(ADC_SAR_Seq_1_cy_psoc4_sarmux_8__CH_13_PORT << 4u) |
 153:Generated_Source\PSoC4/ADC_SAR_Seq_1.c ****                  (uint8)ADC_SAR_Seq_1_cy_psoc4_sarmux_8__CH_13_PIN
 154:Generated_Source\PSoC4/ADC_SAR_Seq_1.c ****             #endif /* End ADC_SAR_Seq_1_TOTAL_CHANNELS_NUM > 13u */
 155:Generated_Source\PSoC4/ADC_SAR_Seq_1.c ****             #if(ADC_SAR_Seq_1_TOTAL_CHANNELS_NUM > 14u)
 156:Generated_Source\PSoC4/ADC_SAR_Seq_1.c ****                 ,(uint8)(ADC_SAR_Seq_1_cy_psoc4_sarmux_8__CH_14_PORT << 4u) |
 157:Generated_Source\PSoC4/ADC_SAR_Seq_1.c ****                  (uint8)ADC_SAR_Seq_1_cy_psoc4_sarmux_8__CH_14_PIN
 158:Generated_Source\PSoC4/ADC_SAR_Seq_1.c ****             #endif /* End ADC_SAR_Seq_1_TOTAL_CHANNELS_NUM > 14u */
 159:Generated_Source\PSoC4/ADC_SAR_Seq_1.c ****             #if(ADC_SAR_Seq_1_TOTAL_CHANNELS_NUM > 15u)
 160:Generated_Source\PSoC4/ADC_SAR_Seq_1.c ****                 ,(uint8)(ADC_SAR_Seq_1_cy_psoc4_sarmux_8__CH_15_PORT << 4u) |
 161:Generated_Source\PSoC4/ADC_SAR_Seq_1.c ****                  (uint8)ADC_SAR_Seq_1_cy_psoc4_sarmux_8__CH_15_PIN
 162:Generated_Source\PSoC4/ADC_SAR_Seq_1.c ****             #endif /* End ADC_SAR_Seq_1_TOTAL_CHANNELS_NUM > 15u */
 163:Generated_Source\PSoC4/ADC_SAR_Seq_1.c ****             #if(ADC_SAR_Seq_1_TOTAL_CHANNELS_NUM > 16u)
 164:Generated_Source\PSoC4/ADC_SAR_Seq_1.c ****                 ,(uint8)(ADC_SAR_Seq_1_cy_psoc4_sarmux_8__CH_16_PORT << 4u) |
 165:Generated_Source\PSoC4/ADC_SAR_Seq_1.c ****                  (uint8)ADC_SAR_Seq_1_cy_psoc4_sarmux_8__CH_16_PIN
 166:Generated_Source\PSoC4/ADC_SAR_Seq_1.c ****             #endif /* End ADC_SAR_Seq_1_TOTAL_CHANNELS_NUM > 16u */
 167:Generated_Source\PSoC4/ADC_SAR_Seq_1.c ****         };
 168:Generated_Source\PSoC4/ADC_SAR_Seq_1.c ****     #endif /* End ADC_SAR_Seq_1_TOTAL_CHANNELS_NUM > 1u */
 169:Generated_Source\PSoC4/ADC_SAR_Seq_1.c **** 
 170:Generated_Source\PSoC4/ADC_SAR_Seq_1.c ****     #if(ADC_SAR_Seq_1_IRQ_REMOVE == 0u)
 171:Generated_Source\PSoC4/ADC_SAR_Seq_1.c ****         /* Start and set interrupt vector */
 172:Generated_Source\PSoC4/ADC_SAR_Seq_1.c ****         CyIntSetPriority(ADC_SAR_Seq_1_INTC_NUMBER, ADC_SAR_Seq_1_INTC_PRIOR_NUMBER);
  33              		.loc 1 172 0
  34 0002 0F20     		mov	r0, #15
  35 0004 0321     		mov	r1, #3
  36 0006 FFF7FEFF 		bl	CyIntSetPriority
  37              	.LVL0:
 173:Generated_Source\PSoC4/ADC_SAR_Seq_1.c ****         (void)CyIntSetVector(ADC_SAR_Seq_1_INTC_NUMBER, &ADC_SAR_Seq_1_ISR);
  38              		.loc 1 173 0
  39 000a 0F20     		mov	r0, #15
  40 000c 4249     		ldr	r1, .L12
  41 000e FFF7FEFF 		bl	CyIntSetVector
  42              	.LVL1:
 174:Generated_Source\PSoC4/ADC_SAR_Seq_1.c ****     #endif   /* End ADC_SAR_Seq_1_IRQ_REMOVE */
 175:Generated_Source\PSoC4/ADC_SAR_Seq_1.c **** 
 176:Generated_Source\PSoC4/ADC_SAR_Seq_1.c ****     /* Init SAR and MUX registers */
 177:Generated_Source\PSoC4/ADC_SAR_Seq_1.c ****     ADC_SAR_Seq_1_SAR_CHAN_EN_REG = ADC_SAR_Seq_1_DEFAULT_EN_CHANNELS;
  43              		.loc 1 177 0
  44 0012 0F22     		mov	r2, #15
  45 0014 414B     		ldr	r3, .L12+4
  46 0016 1A60     		str	r2, [r3]
 178:Generated_Source\PSoC4/ADC_SAR_Seq_1.c ****     ADC_SAR_Seq_1_SAR_CTRL_REG |= ADC_SAR_Seq_1_DEFAULT_CTRL_REG_CFG | 
 179:Generated_Source\PSoC4/ADC_SAR_Seq_1.c ****         /* Enable the SAR internal pump when global pump is enabled */
 180:Generated_Source\PSoC4/ADC_SAR_Seq_1.c ****         (((ADC_SAR_Seq_1_PUMP_CTRL_REG & ADC_SAR_Seq_1_PUMP_CTRL_ENABLED) != 0u) ? 
  47              		.loc 1 180 0
  48 0018 414B     		ldr	r3, .L12+8
ARM GAS  C:\Users\Nick\AppData\Local\Temp\cc6ZAR9j.s 			page 5


  49 001a 1B68     		ldr	r3, [r3]
 178:Generated_Source\PSoC4/ADC_SAR_Seq_1.c ****     ADC_SAR_Seq_1_SAR_CTRL_REG |= ADC_SAR_Seq_1_DEFAULT_CTRL_REG_CFG | 
  50              		.loc 1 178 0
  51 001c 002B     		cmp	r3, #0
  52 001e 01DA     		bge	.L10
  53 0020 4049     		ldr	r1, .L12+12
  54 0022 00E0     		b	.L2
  55              	.L10:
  56 0024 4049     		ldr	r1, .L12+16
  57              	.L2:
 178:Generated_Source\PSoC4/ADC_SAR_Seq_1.c ****     ADC_SAR_Seq_1_SAR_CTRL_REG |= ADC_SAR_Seq_1_DEFAULT_CTRL_REG_CFG | 
  58              		.loc 1 178 0 is_stmt 0 discriminator 4
  59 0026 414A     		ldr	r2, .L12+20
  60 0028 1368     		ldr	r3, [r2]
  61 002a 0B43     		orr	r3, r1
  62 002c 1360     		str	r3, [r2]
 181:Generated_Source\PSoC4/ADC_SAR_Seq_1.c ****         ADC_SAR_Seq_1_BOOSTPUMP_EN : 0u);
 182:Generated_Source\PSoC4/ADC_SAR_Seq_1.c ****     ADC_SAR_Seq_1_SAR_SAMPLE_CTRL_REG = ADC_SAR_Seq_1_DEFAULT_SAMPLE_CTRL_REG_CFG;
  63              		.loc 1 182 0 is_stmt 1 discriminator 4
  64 002e 404A     		ldr	r2, .L12+24
  65 0030 404B     		ldr	r3, .L12+28
  66 0032 1A60     		str	r2, [r3]
 183:Generated_Source\PSoC4/ADC_SAR_Seq_1.c ****     ADC_SAR_Seq_1_SAR_RANGE_THRES_REG = ADC_SAR_Seq_1_DEFAULT_RANGE_THRES_REG_CFG;
  67              		.loc 1 183 0 discriminator 4
  68 0034 404A     		ldr	r2, .L12+32
  69 0036 414B     		ldr	r3, .L12+36
  70 0038 1A60     		str	r2, [r3]
 184:Generated_Source\PSoC4/ADC_SAR_Seq_1.c ****     ADC_SAR_Seq_1_SAR_RANGE_COND_REG  = ADC_SAR_Seq_1_COMPARE_MODE;
  71              		.loc 1 184 0 discriminator 4
  72 003a 0023     		mov	r3, #0
  73 003c 404A     		ldr	r2, .L12+40
  74 003e 1360     		str	r3, [r2]
 185:Generated_Source\PSoC4/ADC_SAR_Seq_1.c ****     ADC_SAR_Seq_1_SAR_SAMPLE_TIME01_REG = ADC_SAR_Seq_1_DEFAULT_SAMPLE_TIME01_REG_CFG;
  75              		.loc 1 185 0 discriminator 4
  76 0040 404A     		ldr	r2, .L12+44
  77 0042 4149     		ldr	r1, .L12+48
  78 0044 0A60     		str	r2, [r1]
 186:Generated_Source\PSoC4/ADC_SAR_Seq_1.c ****     ADC_SAR_Seq_1_SAR_SAMPLE_TIME23_REG = ADC_SAR_Seq_1_DEFAULT_SAMPLE_TIME23_REG_CFG;
  79              		.loc 1 186 0 discriminator 4
  80 0046 4149     		ldr	r1, .L12+52
  81 0048 0A60     		str	r2, [r1]
 187:Generated_Source\PSoC4/ADC_SAR_Seq_1.c ****     
 188:Generated_Source\PSoC4/ADC_SAR_Seq_1.c ****     /* Connect Vm to VSSA when even one channel is single-ended or multiple channels configured */
 189:Generated_Source\PSoC4/ADC_SAR_Seq_1.c ****     #if(ADC_SAR_Seq_1_DEFAULT_MUX_SWITCH0 != 0u)
 190:Generated_Source\PSoC4/ADC_SAR_Seq_1.c ****         ADC_SAR_Seq_1_MUX_SWITCH0_REG |= ADC_SAR_Seq_1_DEFAULT_MUX_SWITCH0;
  82              		.loc 1 190 0 discriminator 4
  83 004a 414A     		ldr	r2, .L12+56
  84 004c 1168     		ldr	r1, [r2]
  85 004e 8020     		mov	r0, #128
  86 0050 4002     		lsl	r0, r0, #9
  87 0052 0143     		orr	r1, r0
  88 0054 1160     		str	r1, [r2]
 191:Generated_Source\PSoC4/ADC_SAR_Seq_1.c ****         /* Set MUX_HW_CTRL_VSSA in MUX_SWITCH_HW_CTRL when multiple channels enabled */
 192:Generated_Source\PSoC4/ADC_SAR_Seq_1.c ****         #if(ADC_SAR_Seq_1_TOTAL_CHANNELS_NUM > 1u)
 193:Generated_Source\PSoC4/ADC_SAR_Seq_1.c ****             ADC_SAR_Seq_1_MUX_SWITCH_HW_CTRL_REG |= ADC_SAR_Seq_1_DEFAULT_MUX_SWITCH0;
  89              		.loc 1 193 0 discriminator 4
  90 0056 3F49     		ldr	r1, .L12+60
ARM GAS  C:\Users\Nick\AppData\Local\Temp\cc6ZAR9j.s 			page 6


  91 0058 0A68     		ldr	r2, [r1]
  92 005a 0243     		orr	r2, r0
  93 005c 0A60     		str	r2, [r1]
 194:Generated_Source\PSoC4/ADC_SAR_Seq_1.c ****         #endif /* ADC_SAR_Seq_1_TOTAL_CHANNELS_NUM > 1u */
 195:Generated_Source\PSoC4/ADC_SAR_Seq_1.c ****     #endif /*ADC_SAR_Seq_1_CHANNELS_MODE !=0 */
 196:Generated_Source\PSoC4/ADC_SAR_Seq_1.c **** 
 197:Generated_Source\PSoC4/ADC_SAR_Seq_1.c ****     ADC_SAR_Seq_1_SAR_SATURATE_INTR_MASK_REG = 0u;
  94              		.loc 1 197 0 discriminator 4
  95 005e 3E4A     		ldr	r2, .L12+64
  96 0060 1360     		str	r3, [r2]
 198:Generated_Source\PSoC4/ADC_SAR_Seq_1.c ****     ADC_SAR_Seq_1_SAR_RANGE_INTR_MASK_REG = 0u;
  97              		.loc 1 198 0 discriminator 4
  98 0062 3E4A     		ldr	r2, .L12+68
  99 0064 1360     		str	r3, [r2]
 199:Generated_Source\PSoC4/ADC_SAR_Seq_1.c ****     ADC_SAR_Seq_1_SAR_INTR_MASK_REG = ADC_SAR_Seq_1_SAR_INTR_MASK;
 100              		.loc 1 199 0 discriminator 4
 101 0066 0122     		mov	r2, #1
 102 0068 3D4B     		ldr	r3, .L12+72
 103 006a 1A60     		str	r2, [r3]
 200:Generated_Source\PSoC4/ADC_SAR_Seq_1.c **** 
 201:Generated_Source\PSoC4/ADC_SAR_Seq_1.c ****     #if(ADC_SAR_Seq_1_CY_SAR_IP_VER == ADC_SAR_Seq_1_CY_SAR_IP_VER0)
 202:Generated_Source\PSoC4/ADC_SAR_Seq_1.c ****         ADC_SAR_Seq_1_ANA_TRIM_REG = ADC_SAR_Seq_1_TRIM_COEF;
 203:Generated_Source\PSoC4/ADC_SAR_Seq_1.c ****     #endif /* (ADC_SAR_Seq_1_CY_SAR_IP_VER == ADC_SAR_Seq_1_CY_SAR_IP_VER0) */
 204:Generated_Source\PSoC4/ADC_SAR_Seq_1.c **** 
 205:Generated_Source\PSoC4/ADC_SAR_Seq_1.c ****     /* Read and modify default configuration based on characterization */
 206:Generated_Source\PSoC4/ADC_SAR_Seq_1.c ****     tmpRegVal = ADC_SAR_Seq_1_SAR_DFT_CTRL_REG;
 104              		.loc 1 206 0 discriminator 4
 105 006c 3D4A     		ldr	r2, .L12+76
 106 006e 1168     		ldr	r1, [r2]
 107              	.LVL2:
 207:Generated_Source\PSoC4/ADC_SAR_Seq_1.c ****     tmpRegVal &= (uint32)~ADC_SAR_Seq_1_DCEN;
 208:Generated_Source\PSoC4/ADC_SAR_Seq_1.c ****     
 209:Generated_Source\PSoC4/ADC_SAR_Seq_1.c ****     #if(ADC_SAR_Seq_1_CY_SAR_IP_VER == ADC_SAR_Seq_1_CY_SAR_IP_VER0)
 210:Generated_Source\PSoC4/ADC_SAR_Seq_1.c ****         #if(ADC_SAR_Seq_1_NOMINAL_CLOCK_FREQ > (ADC_SAR_Seq_1_MAX_FREQUENCY / 2))
 211:Generated_Source\PSoC4/ADC_SAR_Seq_1.c ****             tmpRegVal |= ADC_SAR_Seq_1_SEL_CSEL_DFT_CHAR;
 212:Generated_Source\PSoC4/ADC_SAR_Seq_1.c ****         #else  /* clock speed < 9 Mhz */
 213:Generated_Source\PSoC4/ADC_SAR_Seq_1.c ****             tmpRegVal |= ADC_SAR_Seq_1_DLY_INC;
 214:Generated_Source\PSoC4/ADC_SAR_Seq_1.c ****         #endif /* clock speed > 9 Mhz */
 215:Generated_Source\PSoC4/ADC_SAR_Seq_1.c ****     #else
 216:Generated_Source\PSoC4/ADC_SAR_Seq_1.c ****         #if ((ADC_SAR_Seq_1_DEFAULT_VREF_SEL == ADC_SAR_Seq_1__INTERNAL1024) || \
 217:Generated_Source\PSoC4/ADC_SAR_Seq_1.c ****              (ADC_SAR_Seq_1_DEFAULT_VREF_SEL == ADC_SAR_Seq_1__INTERNALVREF))
 218:Generated_Source\PSoC4/ADC_SAR_Seq_1.c ****             tmpRegVal |= ADC_SAR_Seq_1_DLY_INC;
 219:Generated_Source\PSoC4/ADC_SAR_Seq_1.c ****         #else
 220:Generated_Source\PSoC4/ADC_SAR_Seq_1.c ****             tmpRegVal |= ADC_SAR_Seq_1_DCEN;
 221:Generated_Source\PSoC4/ADC_SAR_Seq_1.c ****             tmpRegVal &= (uint32)~ADC_SAR_Seq_1_DLY_INC;
 108              		.loc 1 221 0 discriminator 4
 109 0070 3D4B     		ldr	r3, .L12+80
 110 0072 0B40     		and	r3, r1
 111 0074 8021     		mov	r1, #128
 112              	.LVL3:
 113 0076 8905     		lsl	r1, r1, #22
 114 0078 0B43     		orr	r3, r1
 115              	.LVL4:
 222:Generated_Source\PSoC4/ADC_SAR_Seq_1.c ****         #endif /* ((ADC_SAR_Seq_1_DEFAULT_VREF_SEL == ADC_SAR_Seq_1__INTERNAL1024) || \
 223:Generated_Source\PSoC4/ADC_SAR_Seq_1.c ****                    (ADC_SAR_Seq_1_DEFAULT_VREF_SEL == ADC_SAR_Seq_1__INTERNALVREF)) */
 224:Generated_Source\PSoC4/ADC_SAR_Seq_1.c ****     #endif /* (ADC_SAR_Seq_1_CY_SAR_IP_VER == ADC_SAR_Seq_1_CY_SAR_IP_VER0) */
 225:Generated_Source\PSoC4/ADC_SAR_Seq_1.c ****     
ARM GAS  C:\Users\Nick\AppData\Local\Temp\cc6ZAR9j.s 			page 7


 226:Generated_Source\PSoC4/ADC_SAR_Seq_1.c ****     ADC_SAR_Seq_1_SAR_DFT_CTRL_REG = tmpRegVal;
 116              		.loc 1 226 0 discriminator 4
 117 007a 1360     		str	r3, [r2]
 118              	.LVL5:
 227:Generated_Source\PSoC4/ADC_SAR_Seq_1.c **** 
 228:Generated_Source\PSoC4/ADC_SAR_Seq_1.c ****     #if(ADC_SAR_Seq_1_MAX_RESOLUTION != ADC_SAR_Seq_1_RESOLUTION_12)
 229:Generated_Source\PSoC4/ADC_SAR_Seq_1.c ****         ADC_SAR_Seq_1_WOUNDING_REG = ADC_SAR_Seq_1_ALT_WOUNDING;
 230:Generated_Source\PSoC4/ADC_SAR_Seq_1.c ****     #endif /* ADC_SAR_Seq_1_MAX_RESOLUTION != ADC_SAR_Seq_1_RESOLUTION_12 */
 231:Generated_Source\PSoC4/ADC_SAR_Seq_1.c **** 
 232:Generated_Source\PSoC4/ADC_SAR_Seq_1.c ****     for(chNum = 0u; chNum < ADC_SAR_Seq_1_TOTAL_CHANNELS_NUM; chNum++)
 119              		.loc 1 232 0 discriminator 4
 120 007c 0024     		mov	r4, #0
 121 007e 47E0     		b	.L3
 122              	.LVL6:
 123              	.L9:
 233:Generated_Source\PSoC4/ADC_SAR_Seq_1.c ****     {
 234:Generated_Source\PSoC4/ADC_SAR_Seq_1.c ****         tmpRegVal = (ADC_SAR_Seq_1_channelsConfig[chNum] & ADC_SAR_Seq_1_CHANNEL_CONFIG_MASK);
 124              		.loc 1 234 0
 125 0080 3A49     		ldr	r1, .L12+84
 126 0082 A200     		lsl	r2, r4, #2
 127 0084 5058     		ldr	r0, [r2, r1]
 128 0086 DC23     		mov	r3, #220
 129 0088 9B01     		lsl	r3, r3, #6
 130 008a 0340     		and	r3, r0
 131              	.LVL7:
 235:Generated_Source\PSoC4/ADC_SAR_Seq_1.c ****         #if(ADC_SAR_Seq_1_TOTAL_CHANNELS_NUM > 1u)
 236:Generated_Source\PSoC4/ADC_SAR_Seq_1.c ****             tmpRegVal |= ADC_SAR_Seq_1_InputsPlacement[chNum];
 132              		.loc 1 236 0
 133 008c 0919     		add	r1, r1, r4
 134 008e 097C     		ldrb	r1, [r1, #16]
 135 0090 0B43     		orr	r3, r1
 136              	.LVL8:
 237:Generated_Source\PSoC4/ADC_SAR_Seq_1.c ****         #endif /* End ADC_SAR_Seq_1_TOTAL_CHANNELS_NUM > 1u */
 238:Generated_Source\PSoC4/ADC_SAR_Seq_1.c ****         
 239:Generated_Source\PSoC4/ADC_SAR_Seq_1.c ****         
 240:Generated_Source\PSoC4/ADC_SAR_Seq_1.c ****         /* When the part is limited to 10-bit then the SUB_RESOLUTION bit
 241:Generated_Source\PSoC4/ADC_SAR_Seq_1.c ****         *  will be ignored and the RESOLUTION bit selects between 10-bit
 242:Generated_Source\PSoC4/ADC_SAR_Seq_1.c ****         *  (0) and 8-bit (1) resolution.
 243:Generated_Source\PSoC4/ADC_SAR_Seq_1.c ****         */
 244:Generated_Source\PSoC4/ADC_SAR_Seq_1.c ****         #if((ADC_SAR_Seq_1_MAX_RESOLUTION != ADC_SAR_Seq_1_RESOLUTION_12) && \
 245:Generated_Source\PSoC4/ADC_SAR_Seq_1.c ****             (ADC_SAR_Seq_1_ALT_WOUNDING == ADC_SAR_Seq_1_WOUNDING_10BIT))
 246:Generated_Source\PSoC4/ADC_SAR_Seq_1.c ****             tmpRegVal &= (uint32)(~ADC_SAR_Seq_1_ALT_RESOLUTION_ON);
 247:Generated_Source\PSoC4/ADC_SAR_Seq_1.c ****         #endif /* ADC_SAR_Seq_1_MAX_RESOLUTION != ADC_SAR_Seq_1_RESOLUTION_12 */
 248:Generated_Source\PSoC4/ADC_SAR_Seq_1.c **** 
 249:Generated_Source\PSoC4/ADC_SAR_Seq_1.c ****         #if(ADC_SAR_Seq_1_INJ_CHANNEL_ENABLED)
 250:Generated_Source\PSoC4/ADC_SAR_Seq_1.c ****         if(chNum < ADC_SAR_Seq_1_SEQUENCED_CHANNELS_NUM)
 251:Generated_Source\PSoC4/ADC_SAR_Seq_1.c ****         #endif /* ADC_SAR_Seq_1_INJ_CHANNEL_ENABLED */
 252:Generated_Source\PSoC4/ADC_SAR_Seq_1.c ****         {
 253:Generated_Source\PSoC4/ADC_SAR_Seq_1.c ****             CY_SET_REG32((reg32 *)(ADC_SAR_Seq_1_SAR_CHAN_CONFIG_IND + (uint32)(chNum << 2)), tmpRe
 137              		.loc 1 253 0
 138 0092 3749     		ldr	r1, .L12+88
 139 0094 8C46     		mov	ip, r1
 140 0096 6244     		add	r2, r2, ip
 141 0098 1360     		str	r3, [r2]
 254:Generated_Source\PSoC4/ADC_SAR_Seq_1.c **** 
 255:Generated_Source\PSoC4/ADC_SAR_Seq_1.c ****             if((ADC_SAR_Seq_1_channelsConfig[chNum] & ADC_SAR_Seq_1_IS_SATURATE_EN_MASK) != 0u)
 142              		.loc 1 255 0
ARM GAS  C:\Users\Nick\AppData\Local\Temp\cc6ZAR9j.s 			page 8


 143 009a C307     		lsl	r3, r0, #31
 144 009c 08D5     		bpl	.L4
 145              	.LVL9:
 256:Generated_Source\PSoC4/ADC_SAR_Seq_1.c ****             {
 257:Generated_Source\PSoC4/ADC_SAR_Seq_1.c ****                 ADC_SAR_Seq_1_SAR_SATURATE_INTR_MASK_REG |= (uint16)((uint16)1 << chNum);
 146              		.loc 1 257 0
 147 009e 2E49     		ldr	r1, .L12+64
 148 00a0 0868     		ldr	r0, [r1]
 149 00a2 8022     		mov	r2, #128
 150              	.LVL10:
 151 00a4 5202     		lsl	r2, r2, #9
 152 00a6 131C     		mov	r3, r2
 153 00a8 A340     		lsl	r3, r3, r4
 154 00aa 1B0C     		lsr	r3, r3, #16
 155 00ac 0343     		orr	r3, r0
 156 00ae 0B60     		str	r3, [r1]
 157              	.LVL11:
 158              	.L4:
 258:Generated_Source\PSoC4/ADC_SAR_Seq_1.c ****             }
 259:Generated_Source\PSoC4/ADC_SAR_Seq_1.c **** 
 260:Generated_Source\PSoC4/ADC_SAR_Seq_1.c ****             if((ADC_SAR_Seq_1_channelsConfig[chNum] & ADC_SAR_Seq_1_IS_RANGE_CTRL_EN_MASK) != 0u)
 159              		.loc 1 260 0
 160 00b0 A300     		lsl	r3, r4, #2
 161 00b2 2E4A     		ldr	r2, .L12+84
 162              	.LVL12:
 163 00b4 9B58     		ldr	r3, [r3, r2]
 164 00b6 9B07     		lsl	r3, r3, #30
 165 00b8 08D5     		bpl	.L5
 261:Generated_Source\PSoC4/ADC_SAR_Seq_1.c ****             {
 262:Generated_Source\PSoC4/ADC_SAR_Seq_1.c ****                 ADC_SAR_Seq_1_SAR_RANGE_INTR_MASK_REG |= (uint16)((uint16)1 << chNum);
 166              		.loc 1 262 0
 167 00ba 2849     		ldr	r1, .L12+68
 168 00bc 0868     		ldr	r0, [r1]
 169 00be 8022     		mov	r2, #128
 170              	.LVL13:
 171 00c0 5202     		lsl	r2, r2, #9
 172 00c2 131C     		mov	r3, r2
 173 00c4 A340     		lsl	r3, r3, r4
 174 00c6 1B0C     		lsr	r3, r3, #16
 175 00c8 0343     		orr	r3, r0
 176 00ca 0B60     		str	r3, [r1]
 177              	.L5:
 263:Generated_Source\PSoC4/ADC_SAR_Seq_1.c ****             }
 264:Generated_Source\PSoC4/ADC_SAR_Seq_1.c ****         }
 265:Generated_Source\PSoC4/ADC_SAR_Seq_1.c ****         #if(ADC_SAR_Seq_1_INJ_CHANNEL_ENABLED)
 266:Generated_Source\PSoC4/ADC_SAR_Seq_1.c ****             else
 267:Generated_Source\PSoC4/ADC_SAR_Seq_1.c ****             {
 268:Generated_Source\PSoC4/ADC_SAR_Seq_1.c ****                 CY_SET_REG32(ADC_SAR_Seq_1_SAR_INJ_CHAN_CONFIG_PTR, tmpRegVal | ADC_SAR_Seq_1_INJ_T
 269:Generated_Source\PSoC4/ADC_SAR_Seq_1.c **** 
 270:Generated_Source\PSoC4/ADC_SAR_Seq_1.c ****                 if((ADC_SAR_Seq_1_channelsConfig[chNum] & ADC_SAR_Seq_1_IS_SATURATE_EN_MASK) != 0u)
 271:Generated_Source\PSoC4/ADC_SAR_Seq_1.c ****                 {
 272:Generated_Source\PSoC4/ADC_SAR_Seq_1.c ****                     ADC_SAR_Seq_1_SAR_INTR_MASK_REG |= ADC_SAR_Seq_1_INJ_SATURATE_MASK;
 273:Generated_Source\PSoC4/ADC_SAR_Seq_1.c ****                 }
 274:Generated_Source\PSoC4/ADC_SAR_Seq_1.c **** 
 275:Generated_Source\PSoC4/ADC_SAR_Seq_1.c ****                 if((ADC_SAR_Seq_1_channelsConfig[chNum] & ADC_SAR_Seq_1_IS_RANGE_CTRL_EN_MASK) != 0
 276:Generated_Source\PSoC4/ADC_SAR_Seq_1.c ****                 {
 277:Generated_Source\PSoC4/ADC_SAR_Seq_1.c ****                     ADC_SAR_Seq_1_SAR_INTR_MASK_REG |= ADC_SAR_Seq_1_INJ_RANGE_MASK;
ARM GAS  C:\Users\Nick\AppData\Local\Temp\cc6ZAR9j.s 			page 9


 278:Generated_Source\PSoC4/ADC_SAR_Seq_1.c ****                 }
 279:Generated_Source\PSoC4/ADC_SAR_Seq_1.c ****             }
 280:Generated_Source\PSoC4/ADC_SAR_Seq_1.c ****         #endif /* ADC_SAR_Seq_1_INJ_CHANNEL_ENABLED */
 281:Generated_Source\PSoC4/ADC_SAR_Seq_1.c **** 
 282:Generated_Source\PSoC4/ADC_SAR_Seq_1.c ****         if((ADC_SAR_Seq_1_channelsConfig[chNum] & ADC_SAR_Seq_1_ALT_RESOLUTION_ON) != 0u)
 178              		.loc 1 282 0
 179 00cc A300     		lsl	r3, r4, #2
 180 00ce 274A     		ldr	r2, .L12+84
 181              	.LVL14:
 182 00d0 9B58     		ldr	r3, [r3, r2]
 183 00d2 9A05     		lsl	r2, r3, #22
 184 00d4 02D5     		bpl	.L11
 185              	.LVL15:
 283:Generated_Source\PSoC4/ADC_SAR_Seq_1.c ****         {
 284:Generated_Source\PSoC4/ADC_SAR_Seq_1.c ****                counts = (int32)ADC_SAR_Seq_1_DEFAULT_MAX_WRK_ALT;
 186              		.loc 1 284 0
 187 00d6 8020     		mov	r0, #128
 188 00d8 4000     		lsl	r0, r0, #1
 189 00da 01E0     		b	.L6
 190              	.L11:
 285:Generated_Source\PSoC4/ADC_SAR_Seq_1.c ****         }
 286:Generated_Source\PSoC4/ADC_SAR_Seq_1.c ****         else
 287:Generated_Source\PSoC4/ADC_SAR_Seq_1.c ****         {
 288:Generated_Source\PSoC4/ADC_SAR_Seq_1.c ****                counts = (int32)ADC_SAR_Seq_1_SAR_WRK_MAX_12BIT;
 191              		.loc 1 288 0
 192 00dc 8020     		mov	r0, #128
 193 00de 4001     		lsl	r0, r0, #5
 194              	.L6:
 195              	.LVL16:
 289:Generated_Source\PSoC4/ADC_SAR_Seq_1.c ****         }
 290:Generated_Source\PSoC4/ADC_SAR_Seq_1.c **** 
 291:Generated_Source\PSoC4/ADC_SAR_Seq_1.c ****         if((ADC_SAR_Seq_1_channelsConfig[chNum] & ADC_SAR_Seq_1_DIFFERENTIAL_EN) == 0u)
 196              		.loc 1 291 0
 197 00e0 DB05     		lsl	r3, r3, #23
 198 00e2 04D4     		bmi	.L7
 292:Generated_Source\PSoC4/ADC_SAR_Seq_1.c ****         {
 293:Generated_Source\PSoC4/ADC_SAR_Seq_1.c ****             #if((ADC_SAR_Seq_1_DEFAULT_SE_RESULT_FORMAT_SEL == ADC_SAR_Seq_1__FSIGNED) && \
 294:Generated_Source\PSoC4/ADC_SAR_Seq_1.c ****                 (ADC_SAR_Seq_1_DEFAULT_NEG_INPUT_SEL == ADC_SAR_Seq_1__VREF))
 295:Generated_Source\PSoC4/ADC_SAR_Seq_1.c ****                 /* Set offset to the minus half scale to convert results to unsigned format */
 296:Generated_Source\PSoC4/ADC_SAR_Seq_1.c ****                 ADC_SAR_Seq_1_offset[chNum] = (int16)(counts / -2);
 297:Generated_Source\PSoC4/ADC_SAR_Seq_1.c ****             #else
 298:Generated_Source\PSoC4/ADC_SAR_Seq_1.c ****                 ADC_SAR_Seq_1_offset[chNum] = 0;
 199              		.loc 1 298 0
 200 00e4 6300     		lsl	r3, r4, #1
 201 00e6 0021     		mov	r1, #0
 202 00e8 224A     		ldr	r2, .L12+92
 203 00ea 9952     		strh	r1, [r3, r2]
 204 00ec 03E0     		b	.L8
 205              	.L7:
 299:Generated_Source\PSoC4/ADC_SAR_Seq_1.c ****             #endif /* end DEFAULT_SE_RESULT_FORMAT_SEL == ADC_SAR_Seq_1__FSIGNED */
 300:Generated_Source\PSoC4/ADC_SAR_Seq_1.c ****         }
 301:Generated_Source\PSoC4/ADC_SAR_Seq_1.c ****         else    /* Differential channel */
 302:Generated_Source\PSoC4/ADC_SAR_Seq_1.c ****         {
 303:Generated_Source\PSoC4/ADC_SAR_Seq_1.c ****             #if(ADC_SAR_Seq_1_DEFAULT_DIFF_RESULT_FORMAT_SEL == ADC_SAR_Seq_1__FUNSIGNED)
 304:Generated_Source\PSoC4/ADC_SAR_Seq_1.c ****                 /* Set offset to the half scale to convert results to signed format */
 305:Generated_Source\PSoC4/ADC_SAR_Seq_1.c ****                 ADC_SAR_Seq_1_offset[chNum] = (int16)(counts / 2);
 306:Generated_Source\PSoC4/ADC_SAR_Seq_1.c ****             #else
ARM GAS  C:\Users\Nick\AppData\Local\Temp\cc6ZAR9j.s 			page 10


 307:Generated_Source\PSoC4/ADC_SAR_Seq_1.c ****                 ADC_SAR_Seq_1_offset[chNum] = 0;
 206              		.loc 1 307 0
 207 00ee 6300     		lsl	r3, r4, #1
 208 00f0 0021     		mov	r1, #0
 209 00f2 204A     		ldr	r2, .L12+92
 210 00f4 9952     		strh	r1, [r3, r2]
 211              	.L8:
 308:Generated_Source\PSoC4/ADC_SAR_Seq_1.c ****             #endif /* end ADC_SAR_Seq_1_DEFAULT_DIFF_RESULT_FORMAT_SEL == ADC_SAR_Seq_1__FUNSIGNED 
 309:Generated_Source\PSoC4/ADC_SAR_Seq_1.c ****         }
 310:Generated_Source\PSoC4/ADC_SAR_Seq_1.c ****         /* Calculate gain in counts per 10 volts with rounding */
 311:Generated_Source\PSoC4/ADC_SAR_Seq_1.c ****         ADC_SAR_Seq_1_countsPer10Volt[chNum] = (int16)(((counts * ADC_SAR_Seq_1_10MV_COUNTS) +
 212              		.loc 1 311 0 discriminator 2
 213 00f6 204B     		ldr	r3, .L12+96
 214 00f8 5843     		mul	r0, r3
 215              	.LVL17:
 216 00fa 204B     		ldr	r3, .L12+100
 217 00fc 9C46     		mov	ip, r3
 218 00fe 6044     		add	r0, r0, ip
 312:Generated_Source\PSoC4/ADC_SAR_Seq_1.c ****                             ADC_SAR_Seq_1_DEFAULT_VREF_MV_VALUE) / (ADC_SAR_Seq_1_DEFAULT_VREF_MV_V
 219              		.loc 1 312 0 discriminator 2
 220 0100 1F49     		ldr	r1, .L12+104
 221 0102 FFF7FEFF 		bl	__aeabi_idiv
 222              	.LVL18:
 311:Generated_Source\PSoC4/ADC_SAR_Seq_1.c ****                             ADC_SAR_Seq_1_DEFAULT_VREF_MV_VALUE) / (ADC_SAR_Seq_1_DEFAULT_VREF_MV_V
 223              		.loc 1 311 0 discriminator 2
 224 0106 00B2     		sxth	r0, r0
 225 0108 A200     		lsl	r2, r4, #2
 226 010a 1E4B     		ldr	r3, .L12+108
 227 010c D050     		str	r0, [r2, r3]
 232:Generated_Source\PSoC4/ADC_SAR_Seq_1.c ****     {
 228              		.loc 1 232 0 discriminator 2
 229 010e 0134     		add	r4, r4, #1
 230              	.LVL19:
 231              	.L3:
 232:Generated_Source\PSoC4/ADC_SAR_Seq_1.c ****     {
 232              		.loc 1 232 0 is_stmt 0 discriminator 1
 233 0110 032C     		cmp	r4, #3
 234 0112 B5D9     		bls	.L9
 313:Generated_Source\PSoC4/ADC_SAR_Seq_1.c ****     }
 314:Generated_Source\PSoC4/ADC_SAR_Seq_1.c **** }
 235              		.loc 1 314 0 is_stmt 1
 236              		@ sp needed
 237              	.LVL20:
 238 0114 10BD     		pop	{r4, pc}
 239              	.L13:
 240 0116 C046     		.align	2
 241              	.L12:
 242 0118 00000000 		.word	ADC_SAR_Seq_1_ISR
 243 011c 20003A40 		.word	1077542944
 244 0120 80033A40 		.word	1077543808
 245 0124 70201013 		.word	319823984
 246 0128 70200013 		.word	318775408
 247 012c 00003A40 		.word	1077542912
 248 0130 8C000080 		.word	-2147483508
 249 0134 04003A40 		.word	1077542916
 250 0138 0000FF07 		.word	134152192
 251 013c 18003A40 		.word	1077542936
ARM GAS  C:\Users\Nick\AppData\Local\Temp\cc6ZAR9j.s 			page 11


 252 0140 1C003A40 		.word	1077542940
 253 0144 04000400 		.word	262148
 254 0148 10003A40 		.word	1077542928
 255 014c 14003A40 		.word	1077542932
 256 0150 00033A40 		.word	1077543680
 257 0154 40033A40 		.word	1077543744
 258 0158 28023A40 		.word	1077543464
 259 015c 38023A40 		.word	1077543480
 260 0160 18023A40 		.word	1077543448
 261 0164 30003A40 		.word	1077542960
 262 0168 FEFFFFDF 		.word	-536870914
 263 016c 00000000 		.word	.LANCHOR0
 264 0170 80003A40 		.word	1077543040
 265 0174 00000000 		.word	ADC_SAR_Seq_1_offset
 266 0178 10270000 		.word	10000
 267 017c E40C0000 		.word	3300
 268 0180 C8190000 		.word	6600
 269 0184 00000000 		.word	ADC_SAR_Seq_1_countsPer10Volt
 270              		.cfi_endproc
 271              	.LFE3:
 272              		.size	ADC_SAR_Seq_1_Init, .-ADC_SAR_Seq_1_Init
 273              		.section	.text.ADC_SAR_Seq_1_Enable,"ax",%progbits
 274              		.align	2
 275              		.global	ADC_SAR_Seq_1_Enable
 276              		.code	16
 277              		.thumb_func
 278              		.type	ADC_SAR_Seq_1_Enable, %function
 279              	ADC_SAR_Seq_1_Enable:
 280              	.LFB4:
 315:Generated_Source\PSoC4/ADC_SAR_Seq_1.c **** 
 316:Generated_Source\PSoC4/ADC_SAR_Seq_1.c **** /*******************************************************************************
 317:Generated_Source\PSoC4/ADC_SAR_Seq_1.c **** * Function Name: ADC_SAR_1_Enable
 318:Generated_Source\PSoC4/ADC_SAR_Seq_1.c **** ********************************************************************************
 319:Generated_Source\PSoC4/ADC_SAR_Seq_1.c **** *
 320:Generated_Source\PSoC4/ADC_SAR_Seq_1.c **** * Summary:
 321:Generated_Source\PSoC4/ADC_SAR_Seq_1.c **** *  Enables the clock and analog power for SAR ADC.
 322:Generated_Source\PSoC4/ADC_SAR_Seq_1.c **** *
 323:Generated_Source\PSoC4/ADC_SAR_Seq_1.c **** * Parameters:
 324:Generated_Source\PSoC4/ADC_SAR_Seq_1.c **** *  None.
 325:Generated_Source\PSoC4/ADC_SAR_Seq_1.c **** *
 326:Generated_Source\PSoC4/ADC_SAR_Seq_1.c **** * Return:
 327:Generated_Source\PSoC4/ADC_SAR_Seq_1.c **** *  None.
 328:Generated_Source\PSoC4/ADC_SAR_Seq_1.c **** *
 329:Generated_Source\PSoC4/ADC_SAR_Seq_1.c **** *******************************************************************************/
 330:Generated_Source\PSoC4/ADC_SAR_Seq_1.c **** void ADC_SAR_Seq_1_Enable(void)
 331:Generated_Source\PSoC4/ADC_SAR_Seq_1.c **** {
 281              		.loc 1 331 0
 282              		.cfi_startproc
 283 0000 08B5     		push	{r3, lr}
 284              		.cfi_def_cfa_offset 8
 285              		.cfi_offset 3, -8
 286              		.cfi_offset 14, -4
 332:Generated_Source\PSoC4/ADC_SAR_Seq_1.c ****     if (0u == (ADC_SAR_Seq_1_SAR_CTRL_REG & ADC_SAR_Seq_1_ENABLE))
 287              		.loc 1 332 0
 288 0002 094B     		ldr	r3, .L17
 289 0004 1B68     		ldr	r3, [r3]
 290 0006 002B     		cmp	r3, #0
ARM GAS  C:\Users\Nick\AppData\Local\Temp\cc6ZAR9j.s 			page 12


 291 0008 0CDB     		blt	.L14
 292              	.L16:
 333:Generated_Source\PSoC4/ADC_SAR_Seq_1.c ****     {
 334:Generated_Source\PSoC4/ADC_SAR_Seq_1.c ****         #if(ADC_SAR_Seq_1_CY_SAR_IP_VER != ADC_SAR_Seq_1_CY_SAR_IP_VER0)
 335:Generated_Source\PSoC4/ADC_SAR_Seq_1.c **** 
 336:Generated_Source\PSoC4/ADC_SAR_Seq_1.c ****             while (0u != (ADC_SAR_Seq_1_SAR_STATUS_REG & ADC_SAR_Seq_1_STATUS_BUSY))
 293              		.loc 1 336 0 discriminator 1
 294 000a 084B     		ldr	r3, .L17+4
 295 000c 1B68     		ldr	r3, [r3]
 296 000e 002B     		cmp	r3, #0
 297 0010 FBDB     		blt	.L16
 337:Generated_Source\PSoC4/ADC_SAR_Seq_1.c ****             {
 338:Generated_Source\PSoC4/ADC_SAR_Seq_1.c ****                 /* wait for SAR to go idle to avoid deadlock */
 339:Generated_Source\PSoC4/ADC_SAR_Seq_1.c ****             }
 340:Generated_Source\PSoC4/ADC_SAR_Seq_1.c ****         #endif /* (ADC_SAR_Seq_1_CY_SAR_IP_VER != ADC_SAR_Seq_1_CY_SAR_IP_VER0) */
 341:Generated_Source\PSoC4/ADC_SAR_Seq_1.c ****         
 342:Generated_Source\PSoC4/ADC_SAR_Seq_1.c ****         ADC_SAR_Seq_1_SAR_CTRL_REG |= ADC_SAR_Seq_1_ENABLE;
 298              		.loc 1 342 0
 299 0012 054A     		ldr	r2, .L17
 300 0014 1368     		ldr	r3, [r2]
 301 0016 8021     		mov	r1, #128
 302 0018 0906     		lsl	r1, r1, #24
 303 001a 0B43     		orr	r3, r1
 304 001c 1360     		str	r3, [r2]
 343:Generated_Source\PSoC4/ADC_SAR_Seq_1.c ****         
 344:Generated_Source\PSoC4/ADC_SAR_Seq_1.c ****         /* The block is ready to use 10 us after the enable signal is set high. */
 345:Generated_Source\PSoC4/ADC_SAR_Seq_1.c ****         CyDelayUs(ADC_SAR_Seq_1_10US_DELAY);         
 305              		.loc 1 345 0
 306 001e 0A20     		mov	r0, #10
 307 0020 FFF7FEFF 		bl	CyDelayUs
 308              	.LVL21:
 309              	.L14:
 346:Generated_Source\PSoC4/ADC_SAR_Seq_1.c ****     }
 347:Generated_Source\PSoC4/ADC_SAR_Seq_1.c **** }
 310              		.loc 1 347 0
 311              		@ sp needed
 312 0024 08BD     		pop	{r3, pc}
 313              	.L18:
 314 0026 C046     		.align	2
 315              	.L17:
 316 0028 00003A40 		.word	1077542912
 317 002c 08023A40 		.word	1077543432
 318              		.cfi_endproc
 319              	.LFE4:
 320              		.size	ADC_SAR_Seq_1_Enable, .-ADC_SAR_Seq_1_Enable
 321              		.section	.text.ADC_SAR_Seq_1_Start,"ax",%progbits
 322              		.align	2
 323              		.global	ADC_SAR_Seq_1_Start
 324              		.code	16
 325              		.thumb_func
 326              		.type	ADC_SAR_Seq_1_Start, %function
 327              	ADC_SAR_Seq_1_Start:
 328              	.LFB2:
  64:Generated_Source\PSoC4/ADC_SAR_Seq_1.c ****     /* If not Initialized then initialize all required hardware and software */
 329              		.loc 1 64 0
 330              		.cfi_startproc
 331 0000 08B5     		push	{r3, lr}
ARM GAS  C:\Users\Nick\AppData\Local\Temp\cc6ZAR9j.s 			page 13


 332              		.cfi_def_cfa_offset 8
 333              		.cfi_offset 3, -8
 334              		.cfi_offset 14, -4
  66:Generated_Source\PSoC4/ADC_SAR_Seq_1.c ****     {
 335              		.loc 1 66 0
 336 0002 064B     		ldr	r3, .L21
 337 0004 1B78     		ldrb	r3, [r3]
 338 0006 002B     		cmp	r3, #0
 339 0008 04D1     		bne	.L20
  68:Generated_Source\PSoC4/ADC_SAR_Seq_1.c ****         ADC_SAR_Seq_1_initVar = 1u;
 340              		.loc 1 68 0
 341 000a FFF7FEFF 		bl	ADC_SAR_Seq_1_Init
 342              	.LVL22:
  69:Generated_Source\PSoC4/ADC_SAR_Seq_1.c ****     }
 343              		.loc 1 69 0
 344 000e 0122     		mov	r2, #1
 345 0010 024B     		ldr	r3, .L21
 346 0012 1A70     		strb	r2, [r3]
 347              	.L20:
  71:Generated_Source\PSoC4/ADC_SAR_Seq_1.c **** }
 348              		.loc 1 71 0
 349 0014 FFF7FEFF 		bl	ADC_SAR_Seq_1_Enable
 350              	.LVL23:
  72:Generated_Source\PSoC4/ADC_SAR_Seq_1.c **** 
 351              		.loc 1 72 0
 352              		@ sp needed
 353 0018 08BD     		pop	{r3, pc}
 354              	.L22:
 355 001a C046     		.align	2
 356              	.L21:
 357 001c 00000000 		.word	.LANCHOR1
 358              		.cfi_endproc
 359              	.LFE2:
 360              		.size	ADC_SAR_Seq_1_Start, .-ADC_SAR_Seq_1_Start
 361              		.section	.text.ADC_SAR_Seq_1_Stop,"ax",%progbits
 362              		.align	2
 363              		.global	ADC_SAR_Seq_1_Stop
 364              		.code	16
 365              		.thumb_func
 366              		.type	ADC_SAR_Seq_1_Stop, %function
 367              	ADC_SAR_Seq_1_Stop:
 368              	.LFB5:
 348:Generated_Source\PSoC4/ADC_SAR_Seq_1.c **** 
 349:Generated_Source\PSoC4/ADC_SAR_Seq_1.c **** 
 350:Generated_Source\PSoC4/ADC_SAR_Seq_1.c **** /*******************************************************************************
 351:Generated_Source\PSoC4/ADC_SAR_Seq_1.c **** * Function Name: ADC_SAR_Seq_1_Stop
 352:Generated_Source\PSoC4/ADC_SAR_Seq_1.c **** ********************************************************************************
 353:Generated_Source\PSoC4/ADC_SAR_Seq_1.c **** *
 354:Generated_Source\PSoC4/ADC_SAR_Seq_1.c **** * Summary:
 355:Generated_Source\PSoC4/ADC_SAR_Seq_1.c **** *  This function stops ADC conversions and puts the ADC into its lowest power
 356:Generated_Source\PSoC4/ADC_SAR_Seq_1.c **** *  mode.
 357:Generated_Source\PSoC4/ADC_SAR_Seq_1.c **** *
 358:Generated_Source\PSoC4/ADC_SAR_Seq_1.c **** * Parameters:
 359:Generated_Source\PSoC4/ADC_SAR_Seq_1.c **** *  None.
 360:Generated_Source\PSoC4/ADC_SAR_Seq_1.c **** *
 361:Generated_Source\PSoC4/ADC_SAR_Seq_1.c **** * Return:
 362:Generated_Source\PSoC4/ADC_SAR_Seq_1.c **** *  None.
ARM GAS  C:\Users\Nick\AppData\Local\Temp\cc6ZAR9j.s 			page 14


 363:Generated_Source\PSoC4/ADC_SAR_Seq_1.c **** *
 364:Generated_Source\PSoC4/ADC_SAR_Seq_1.c **** *******************************************************************************/
 365:Generated_Source\PSoC4/ADC_SAR_Seq_1.c **** void ADC_SAR_Seq_1_Stop(void)
 366:Generated_Source\PSoC4/ADC_SAR_Seq_1.c **** {
 369              		.loc 1 366 0
 370              		.cfi_startproc
 367:Generated_Source\PSoC4/ADC_SAR_Seq_1.c ****     ADC_SAR_Seq_1_SAR_CTRL_REG &= (uint32)~ADC_SAR_Seq_1_ENABLE;
 371              		.loc 1 367 0
 372 0000 024A     		ldr	r2, .L24
 373 0002 1368     		ldr	r3, [r2]
 374 0004 5B00     		lsl	r3, r3, #1
 375 0006 5B08     		lsr	r3, r3, #1
 376 0008 1360     		str	r3, [r2]
 368:Generated_Source\PSoC4/ADC_SAR_Seq_1.c **** }
 377              		.loc 1 368 0
 378              		@ sp needed
 379 000a 7047     		bx	lr
 380              	.L25:
 381              		.align	2
 382              	.L24:
 383 000c 00003A40 		.word	1077542912
 384              		.cfi_endproc
 385              	.LFE5:
 386              		.size	ADC_SAR_Seq_1_Stop, .-ADC_SAR_Seq_1_Stop
 387              		.section	.text.ADC_SAR_Seq_1_StartConvert,"ax",%progbits
 388              		.align	2
 389              		.global	ADC_SAR_Seq_1_StartConvert
 390              		.code	16
 391              		.thumb_func
 392              		.type	ADC_SAR_Seq_1_StartConvert, %function
 393              	ADC_SAR_Seq_1_StartConvert:
 394              	.LFB6:
 369:Generated_Source\PSoC4/ADC_SAR_Seq_1.c **** 
 370:Generated_Source\PSoC4/ADC_SAR_Seq_1.c **** 
 371:Generated_Source\PSoC4/ADC_SAR_Seq_1.c **** /*******************************************************************************
 372:Generated_Source\PSoC4/ADC_SAR_Seq_1.c **** * Function Name: ADC_SAR_Seq_1_StartConvert
 373:Generated_Source\PSoC4/ADC_SAR_Seq_1.c **** ********************************************************************************
 374:Generated_Source\PSoC4/ADC_SAR_Seq_1.c **** *
 375:Generated_Source\PSoC4/ADC_SAR_Seq_1.c **** * Summary:
 376:Generated_Source\PSoC4/ADC_SAR_Seq_1.c **** *  Description:
 377:Generated_Source\PSoC4/ADC_SAR_Seq_1.c **** *  For free running mode, this API starts the conversion process and it
 378:Generated_Source\PSoC4/ADC_SAR_Seq_1.c **** *  runs continuously.
 379:Generated_Source\PSoC4/ADC_SAR_Seq_1.c **** *
 380:Generated_Source\PSoC4/ADC_SAR_Seq_1.c **** *  In a triggered mode, this routine triggers every conversion by
 381:Generated_Source\PSoC4/ADC_SAR_Seq_1.c **** *  writing into the FW_TRIGGER bit in SAR_START_CTRL reg. In triggered mode,
 382:Generated_Source\PSoC4/ADC_SAR_Seq_1.c **** *  every conversion has to start by this API.
 383:Generated_Source\PSoC4/ADC_SAR_Seq_1.c **** *
 384:Generated_Source\PSoC4/ADC_SAR_Seq_1.c **** * Parameters:
 385:Generated_Source\PSoC4/ADC_SAR_Seq_1.c **** *  None.
 386:Generated_Source\PSoC4/ADC_SAR_Seq_1.c **** *
 387:Generated_Source\PSoC4/ADC_SAR_Seq_1.c **** * Return:
 388:Generated_Source\PSoC4/ADC_SAR_Seq_1.c **** *  None.
 389:Generated_Source\PSoC4/ADC_SAR_Seq_1.c **** *
 390:Generated_Source\PSoC4/ADC_SAR_Seq_1.c **** *******************************************************************************/
 391:Generated_Source\PSoC4/ADC_SAR_Seq_1.c **** void ADC_SAR_Seq_1_StartConvert(void)
 392:Generated_Source\PSoC4/ADC_SAR_Seq_1.c **** {
 395              		.loc 1 392 0
ARM GAS  C:\Users\Nick\AppData\Local\Temp\cc6ZAR9j.s 			page 15


 396              		.cfi_startproc
 393:Generated_Source\PSoC4/ADC_SAR_Seq_1.c ****     #if(ADC_SAR_Seq_1_DEFAULT_SAMPLE_MODE_SEL == ADC_SAR_Seq_1__FREERUNNING)
 394:Generated_Source\PSoC4/ADC_SAR_Seq_1.c ****         ADC_SAR_Seq_1_SAR_SAMPLE_CTRL_REG |= ADC_SAR_Seq_1_CONTINUOUS_EN;
 397              		.loc 1 394 0
 398 0000 034A     		ldr	r2, .L27
 399 0002 1368     		ldr	r3, [r2]
 400 0004 8021     		mov	r1, #128
 401 0006 4902     		lsl	r1, r1, #9
 402 0008 0B43     		orr	r3, r1
 403 000a 1360     		str	r3, [r2]
 395:Generated_Source\PSoC4/ADC_SAR_Seq_1.c ****     #else /* Firmware trigger */
 396:Generated_Source\PSoC4/ADC_SAR_Seq_1.c ****         ADC_SAR_Seq_1_SAR_START_CTRL_REG = ADC_SAR_Seq_1_FW_TRIGGER;
 397:Generated_Source\PSoC4/ADC_SAR_Seq_1.c ****     #endif /* End ADC_SAR_Seq_1_DEFAULT_SAMPLE_MODE == ADC_SAR_Seq_1__FREERUNNING */
 398:Generated_Source\PSoC4/ADC_SAR_Seq_1.c **** 
 399:Generated_Source\PSoC4/ADC_SAR_Seq_1.c **** }
 404              		.loc 1 399 0
 405              		@ sp needed
 406 000c 7047     		bx	lr
 407              	.L28:
 408 000e C046     		.align	2
 409              	.L27:
 410 0010 04003A40 		.word	1077542916
 411              		.cfi_endproc
 412              	.LFE6:
 413              		.size	ADC_SAR_Seq_1_StartConvert, .-ADC_SAR_Seq_1_StartConvert
 414              		.section	.text.ADC_SAR_Seq_1_StopConvert,"ax",%progbits
 415              		.align	2
 416              		.global	ADC_SAR_Seq_1_StopConvert
 417              		.code	16
 418              		.thumb_func
 419              		.type	ADC_SAR_Seq_1_StopConvert, %function
 420              	ADC_SAR_Seq_1_StopConvert:
 421              	.LFB7:
 400:Generated_Source\PSoC4/ADC_SAR_Seq_1.c **** 
 401:Generated_Source\PSoC4/ADC_SAR_Seq_1.c **** 
 402:Generated_Source\PSoC4/ADC_SAR_Seq_1.c **** /*******************************************************************************
 403:Generated_Source\PSoC4/ADC_SAR_Seq_1.c **** * Function Name: ADC_SAR_Seq_1_StopConvert
 404:Generated_Source\PSoC4/ADC_SAR_Seq_1.c **** ********************************************************************************
 405:Generated_Source\PSoC4/ADC_SAR_Seq_1.c **** *
 406:Generated_Source\PSoC4/ADC_SAR_Seq_1.c **** * Summary:
 407:Generated_Source\PSoC4/ADC_SAR_Seq_1.c **** *  Forces the ADC to stop all conversions.
 408:Generated_Source\PSoC4/ADC_SAR_Seq_1.c **** *
 409:Generated_Source\PSoC4/ADC_SAR_Seq_1.c **** * Parameters:
 410:Generated_Source\PSoC4/ADC_SAR_Seq_1.c **** *  None.
 411:Generated_Source\PSoC4/ADC_SAR_Seq_1.c **** *
 412:Generated_Source\PSoC4/ADC_SAR_Seq_1.c **** * Return:
 413:Generated_Source\PSoC4/ADC_SAR_Seq_1.c **** *  None.
 414:Generated_Source\PSoC4/ADC_SAR_Seq_1.c **** *
 415:Generated_Source\PSoC4/ADC_SAR_Seq_1.c **** *******************************************************************************/
 416:Generated_Source\PSoC4/ADC_SAR_Seq_1.c **** void ADC_SAR_Seq_1_StopConvert(void)
 417:Generated_Source\PSoC4/ADC_SAR_Seq_1.c **** {
 422              		.loc 1 417 0
 423              		.cfi_startproc
 418:Generated_Source\PSoC4/ADC_SAR_Seq_1.c ****     #if(ADC_SAR_Seq_1_DEFAULT_SAMPLE_MODE_SEL == ADC_SAR_Seq_1__FREERUNNING)
 419:Generated_Source\PSoC4/ADC_SAR_Seq_1.c ****         ADC_SAR_Seq_1_SAR_SAMPLE_CTRL_REG &= (uint32)(~ADC_SAR_Seq_1_CONTINUOUS_EN);
 424              		.loc 1 419 0
 425 0000 024A     		ldr	r2, .L30
ARM GAS  C:\Users\Nick\AppData\Local\Temp\cc6ZAR9j.s 			page 16


 426 0002 1168     		ldr	r1, [r2]
 427 0004 024B     		ldr	r3, .L30+4
 428 0006 0B40     		and	r3, r1
 429 0008 1360     		str	r3, [r2]
 420:Generated_Source\PSoC4/ADC_SAR_Seq_1.c ****     #endif /* ADC_SAR_Seq_1_DEFAULT_SAMPLE_MODE == ADC_SAR_Seq_1__FREERUNNING */
 421:Generated_Source\PSoC4/ADC_SAR_Seq_1.c **** }
 430              		.loc 1 421 0
 431              		@ sp needed
 432 000a 7047     		bx	lr
 433              	.L31:
 434              		.align	2
 435              	.L30:
 436 000c 04003A40 		.word	1077542916
 437 0010 FFFFFEFF 		.word	-65537
 438              		.cfi_endproc
 439              	.LFE7:
 440              		.size	ADC_SAR_Seq_1_StopConvert, .-ADC_SAR_Seq_1_StopConvert
 441              		.section	.text.ADC_SAR_Seq_1_IsEndConversion,"ax",%progbits
 442              		.align	2
 443              		.global	ADC_SAR_Seq_1_IsEndConversion
 444              		.code	16
 445              		.thumb_func
 446              		.type	ADC_SAR_Seq_1_IsEndConversion, %function
 447              	ADC_SAR_Seq_1_IsEndConversion:
 448              	.LFB8:
 422:Generated_Source\PSoC4/ADC_SAR_Seq_1.c **** 
 423:Generated_Source\PSoC4/ADC_SAR_Seq_1.c **** 
 424:Generated_Source\PSoC4/ADC_SAR_Seq_1.c **** /*******************************************************************************
 425:Generated_Source\PSoC4/ADC_SAR_Seq_1.c **** * Function Name: ADC_SAR_Seq_1_IsEndConversion
 426:Generated_Source\PSoC4/ADC_SAR_Seq_1.c **** ********************************************************************************
 427:Generated_Source\PSoC4/ADC_SAR_Seq_1.c **** *
 428:Generated_Source\PSoC4/ADC_SAR_Seq_1.c **** * Summary:
 429:Generated_Source\PSoC4/ADC_SAR_Seq_1.c **** *  Description: Checks for ADC end of conversion for the case one
 430:Generated_Source\PSoC4/ADC_SAR_Seq_1.c **** *  channel and end of scan for the case of multiple channels. It acts
 431:Generated_Source\PSoC4/ADC_SAR_Seq_1.c **** *  as a software version of the EOC. This function provides the
 432:Generated_Source\PSoC4/ADC_SAR_Seq_1.c **** *  programmer with two options. In one mode this function
 433:Generated_Source\PSoC4/ADC_SAR_Seq_1.c **** *  immediately returns with the conversion status. In the other mode,
 434:Generated_Source\PSoC4/ADC_SAR_Seq_1.c **** *  the function does not return (blocking) until the conversion has
 435:Generated_Source\PSoC4/ADC_SAR_Seq_1.c **** *  completed.
 436:Generated_Source\PSoC4/ADC_SAR_Seq_1.c **** *
 437:Generated_Source\PSoC4/ADC_SAR_Seq_1.c **** * Parameters:
 438:Generated_Source\PSoC4/ADC_SAR_Seq_1.c **** *  ADC_RETURN_STATUS        -> Immediately returns conversion result status
 439:Generated_Source\PSoC4/ADC_SAR_Seq_1.c **** *  ADC_WAIT_FOR_RESULT      -> Does not return until ADC complete
 440:Generated_Source\PSoC4/ADC_SAR_Seq_1.c **** *  ADC_RETURN_STATUS_INJ    -> Immediately returns conversion result status
 441:Generated_Source\PSoC4/ADC_SAR_Seq_1.c **** *                              for injection channel
 442:Generated_Source\PSoC4/ADC_SAR_Seq_1.c **** *  ADC_WAIT_FOR_RESULT_INJ  -> Does not return until ADC completes injection
 443:Generated_Source\PSoC4/ADC_SAR_Seq_1.c **** *                              channel conversion
 444:Generated_Source\PSoC4/ADC_SAR_Seq_1.c **** *
 445:Generated_Source\PSoC4/ADC_SAR_Seq_1.c **** * Return:
 446:Generated_Source\PSoC4/ADC_SAR_Seq_1.c **** *  If a non-zero value is returned, the last conversion or scan has completed.
 447:Generated_Source\PSoC4/ADC_SAR_Seq_1.c **** *  If the returned value is zero, the ADC is still in the process of a scan.
 448:Generated_Source\PSoC4/ADC_SAR_Seq_1.c **** *
 449:Generated_Source\PSoC4/ADC_SAR_Seq_1.c **** *******************************************************************************/
 450:Generated_Source\PSoC4/ADC_SAR_Seq_1.c **** uint32 ADC_SAR_Seq_1_IsEndConversion(uint32 retMode)
 451:Generated_Source\PSoC4/ADC_SAR_Seq_1.c **** {
 449              		.loc 1 451 0
 450              		.cfi_startproc
ARM GAS  C:\Users\Nick\AppData\Local\Temp\cc6ZAR9j.s 			page 17


 451              	.LVL24:
 452 0000 021C     		mov	r2, r0
 453              	.LVL25:
 452:Generated_Source\PSoC4/ADC_SAR_Seq_1.c ****     uint32 status = 0u;
 453:Generated_Source\PSoC4/ADC_SAR_Seq_1.c **** 
 454:Generated_Source\PSoC4/ADC_SAR_Seq_1.c ****     if((retMode & (ADC_SAR_Seq_1_RETURN_STATUS | ADC_SAR_Seq_1_WAIT_FOR_RESULT)) != 0u)
 454              		.loc 1 454 0
 455 0002 8307     		lsl	r3, r0, #30
 456 0004 0CD0     		beq	.L36
 457              	.LVL26:
 458              	.L35:
 455:Generated_Source\PSoC4/ADC_SAR_Seq_1.c ****     {
 456:Generated_Source\PSoC4/ADC_SAR_Seq_1.c ****         do
 457:Generated_Source\PSoC4/ADC_SAR_Seq_1.c ****         {
 458:Generated_Source\PSoC4/ADC_SAR_Seq_1.c ****             status = ADC_SAR_Seq_1_SAR_INTR_REG & ADC_SAR_Seq_1_EOS_MASK;
 459              		.loc 1 458 0 discriminator 2
 460 0006 074B     		ldr	r3, .L37
 461 0008 1B68     		ldr	r3, [r3]
 462 000a 0120     		mov	r0, #1
 463 000c 1840     		and	r0, r3
 464              	.LVL27:
 459:Generated_Source\PSoC4/ADC_SAR_Seq_1.c ****         }while((status == 0u) && ((retMode & ADC_SAR_Seq_1_WAIT_FOR_RESULT) != 0u));
 465              		.loc 1 459 0 discriminator 2
 466 000e 01D1     		bne	.L34
 467              		.loc 1 459 0 is_stmt 0 discriminator 1
 468 0010 9307     		lsl	r3, r2, #30
 469 0012 F8D4     		bmi	.L35
 470              	.L34:
 460:Generated_Source\PSoC4/ADC_SAR_Seq_1.c **** 
 461:Generated_Source\PSoC4/ADC_SAR_Seq_1.c ****         if(status != 0u)
 471              		.loc 1 461 0 is_stmt 1
 472 0014 0028     		cmp	r0, #0
 473 0016 04D0     		beq	.L33
 462:Generated_Source\PSoC4/ADC_SAR_Seq_1.c ****         {
 463:Generated_Source\PSoC4/ADC_SAR_Seq_1.c ****             /* Clear EOS bit */
 464:Generated_Source\PSoC4/ADC_SAR_Seq_1.c ****             ADC_SAR_Seq_1_SAR_INTR_REG = ADC_SAR_Seq_1_EOS_MASK;
 474              		.loc 1 464 0
 475 0018 0122     		mov	r2, #1
 476              	.LVL28:
 477 001a 024B     		ldr	r3, .L37
 478 001c 1A60     		str	r2, [r3]
 479 001e 00E0     		b	.L33
 480              	.LVL29:
 481              	.L36:
 452:Generated_Source\PSoC4/ADC_SAR_Seq_1.c **** 
 482              		.loc 1 452 0
 483 0020 0020     		mov	r0, #0
 484              	.LVL30:
 485              	.L33:
 465:Generated_Source\PSoC4/ADC_SAR_Seq_1.c ****         }
 466:Generated_Source\PSoC4/ADC_SAR_Seq_1.c ****     }
 467:Generated_Source\PSoC4/ADC_SAR_Seq_1.c **** 
 468:Generated_Source\PSoC4/ADC_SAR_Seq_1.c ****     #if(ADC_SAR_Seq_1_INJ_CHANNEL_ENABLED)
 469:Generated_Source\PSoC4/ADC_SAR_Seq_1.c ****         if((retMode & (ADC_SAR_Seq_1_RETURN_STATUS_INJ | ADC_SAR_Seq_1_WAIT_FOR_RESULT_INJ)) != 0u)
 470:Generated_Source\PSoC4/ADC_SAR_Seq_1.c ****         {
 471:Generated_Source\PSoC4/ADC_SAR_Seq_1.c ****             do
 472:Generated_Source\PSoC4/ADC_SAR_Seq_1.c ****             {
ARM GAS  C:\Users\Nick\AppData\Local\Temp\cc6ZAR9j.s 			page 18


 473:Generated_Source\PSoC4/ADC_SAR_Seq_1.c ****                 status |= ADC_SAR_Seq_1_SAR_INTR_REG & ADC_SAR_Seq_1_INJ_EOC_MASK;
 474:Generated_Source\PSoC4/ADC_SAR_Seq_1.c ****             }while(((status & ADC_SAR_Seq_1_INJ_EOC_MASK) == 0u) &&
 475:Generated_Source\PSoC4/ADC_SAR_Seq_1.c ****                    ((retMode & ADC_SAR_Seq_1_WAIT_FOR_RESULT_INJ) != 0u));
 476:Generated_Source\PSoC4/ADC_SAR_Seq_1.c **** 
 477:Generated_Source\PSoC4/ADC_SAR_Seq_1.c ****             if((status & ADC_SAR_Seq_1_INJ_EOC_MASK) != 0u)
 478:Generated_Source\PSoC4/ADC_SAR_Seq_1.c ****             {
 479:Generated_Source\PSoC4/ADC_SAR_Seq_1.c ****                 /* Clear Injection EOS bit */
 480:Generated_Source\PSoC4/ADC_SAR_Seq_1.c ****                 ADC_SAR_Seq_1_SAR_INTR_REG = ADC_SAR_Seq_1_INJ_EOC_MASK;
 481:Generated_Source\PSoC4/ADC_SAR_Seq_1.c ****             }
 482:Generated_Source\PSoC4/ADC_SAR_Seq_1.c ****         }
 483:Generated_Source\PSoC4/ADC_SAR_Seq_1.c ****     #endif /* ADC_SAR_Seq_1_INJ_CHANNEL_ENABLED */
 484:Generated_Source\PSoC4/ADC_SAR_Seq_1.c **** 
 485:Generated_Source\PSoC4/ADC_SAR_Seq_1.c ****     return (status);
 486:Generated_Source\PSoC4/ADC_SAR_Seq_1.c **** }
 486              		.loc 1 486 0
 487              		@ sp needed
 488 0022 7047     		bx	lr
 489              	.L38:
 490              		.align	2
 491              	.L37:
 492 0024 10023A40 		.word	1077543440
 493              		.cfi_endproc
 494              	.LFE8:
 495              		.size	ADC_SAR_Seq_1_IsEndConversion, .-ADC_SAR_Seq_1_IsEndConversion
 496              		.section	.text.ADC_SAR_Seq_1_GetResult16,"ax",%progbits
 497              		.align	2
 498              		.global	ADC_SAR_Seq_1_GetResult16
 499              		.code	16
 500              		.thumb_func
 501              		.type	ADC_SAR_Seq_1_GetResult16, %function
 502              	ADC_SAR_Seq_1_GetResult16:
 503              	.LFB9:
 487:Generated_Source\PSoC4/ADC_SAR_Seq_1.c **** 
 488:Generated_Source\PSoC4/ADC_SAR_Seq_1.c **** 
 489:Generated_Source\PSoC4/ADC_SAR_Seq_1.c **** /*******************************************************************************
 490:Generated_Source\PSoC4/ADC_SAR_Seq_1.c **** * Function Name: ADC_SAR_Seq_1_GetResult16
 491:Generated_Source\PSoC4/ADC_SAR_Seq_1.c **** ********************************************************************************
 492:Generated_Source\PSoC4/ADC_SAR_Seq_1.c **** *
 493:Generated_Source\PSoC4/ADC_SAR_Seq_1.c **** * Summary:
 494:Generated_Source\PSoC4/ADC_SAR_Seq_1.c **** *  Gets the data available in the SAR DATA register.
 495:Generated_Source\PSoC4/ADC_SAR_Seq_1.c **** *
 496:Generated_Source\PSoC4/ADC_SAR_Seq_1.c **** * Parameters:
 497:Generated_Source\PSoC4/ADC_SAR_Seq_1.c **** *  chan: The ADC channel in which to return the result. The first channel
 498:Generated_Source\PSoC4/ADC_SAR_Seq_1.c **** *  is 0 and the injection channel if enabled is the number of valid channels.
 499:Generated_Source\PSoC4/ADC_SAR_Seq_1.c **** *
 500:Generated_Source\PSoC4/ADC_SAR_Seq_1.c **** * Return:
 501:Generated_Source\PSoC4/ADC_SAR_Seq_1.c **** *  Returns converted data as a signed 16-bit integer
 502:Generated_Source\PSoC4/ADC_SAR_Seq_1.c **** *
 503:Generated_Source\PSoC4/ADC_SAR_Seq_1.c **** *******************************************************************************/
 504:Generated_Source\PSoC4/ADC_SAR_Seq_1.c **** int16 ADC_SAR_Seq_1_GetResult16(uint32 chan)
 505:Generated_Source\PSoC4/ADC_SAR_Seq_1.c **** {
 504              		.loc 1 505 0
 505              		.cfi_startproc
 506              	.LVL31:
 507 0000 10B5     		push	{r4, lr}
 508              		.cfi_def_cfa_offset 8
 509              		.cfi_offset 4, -8
ARM GAS  C:\Users\Nick\AppData\Local\Temp\cc6ZAR9j.s 			page 19


 510              		.cfi_offset 14, -4
 511 0002 041E     		sub	r4, r0, #0
 506:Generated_Source\PSoC4/ADC_SAR_Seq_1.c ****     uint32 result;
 507:Generated_Source\PSoC4/ADC_SAR_Seq_1.c **** 
 508:Generated_Source\PSoC4/ADC_SAR_Seq_1.c ****     /* Halt CPU in debug mode if channel is out of valid range */
 509:Generated_Source\PSoC4/ADC_SAR_Seq_1.c ****     CYASSERT(chan < ADC_SAR_Seq_1_TOTAL_CHANNELS_NUM);
 512              		.loc 1 509 0
 513 0004 032C     		cmp	r4, #3
 514 0006 02D9     		bls	.L40
 515              		.loc 1 509 0 is_stmt 0 discriminator 1
 516 0008 0020     		mov	r0, #0
 517              	.LVL32:
 518 000a FFF7FEFF 		bl	CyHalt
 519              	.LVL33:
 520              	.L40:
 510:Generated_Source\PSoC4/ADC_SAR_Seq_1.c **** 
 511:Generated_Source\PSoC4/ADC_SAR_Seq_1.c ****     if(chan < ADC_SAR_Seq_1_SEQUENCED_CHANNELS_NUM)
 521              		.loc 1 511 0 is_stmt 1
 522 000e 032C     		cmp	r4, #3
 523 0010 07D8     		bhi	.L42
 512:Generated_Source\PSoC4/ADC_SAR_Seq_1.c ****     {
 513:Generated_Source\PSoC4/ADC_SAR_Seq_1.c ****         result = CY_GET_REG32((reg32 *)(ADC_SAR_Seq_1_SAR_CHAN_RESULT_IND + (uint32)(chan << 2u))) 
 524              		.loc 1 513 0
 525 0012 A400     		lsl	r4, r4, #2
 526              	.LVL34:
 527 0014 044B     		ldr	r3, .L43
 528 0016 9C46     		mov	ip, r3
 529 0018 6444     		add	r4, r4, ip
 530 001a 2068     		ldr	r0, [r4]
 531 001c 0004     		lsl	r0, r0, #16
 532 001e 000C     		lsr	r0, r0, #16
 533              	.LVL35:
 534 0020 00E0     		b	.L41
 535              	.LVL36:
 536              	.L42:
 514:Generated_Source\PSoC4/ADC_SAR_Seq_1.c ****                 ADC_SAR_Seq_1_RESULT_MASK;
 515:Generated_Source\PSoC4/ADC_SAR_Seq_1.c ****     }
 516:Generated_Source\PSoC4/ADC_SAR_Seq_1.c ****     else
 517:Generated_Source\PSoC4/ADC_SAR_Seq_1.c ****     {
 518:Generated_Source\PSoC4/ADC_SAR_Seq_1.c ****         #if(ADC_SAR_Seq_1_INJ_CHANNEL_ENABLED)
 519:Generated_Source\PSoC4/ADC_SAR_Seq_1.c ****             result = ADC_SAR_Seq_1_SAR_INJ_RESULT_REG & ADC_SAR_Seq_1_RESULT_MASK;
 520:Generated_Source\PSoC4/ADC_SAR_Seq_1.c ****         #else
 521:Generated_Source\PSoC4/ADC_SAR_Seq_1.c ****             result = 0u;
 537              		.loc 1 521 0
 538 0022 0020     		mov	r0, #0
 539              	.LVL37:
 540              	.L41:
 522:Generated_Source\PSoC4/ADC_SAR_Seq_1.c ****         #endif /* ADC_SAR_Seq_1_INJ_CHANNEL_ENABLED */
 523:Generated_Source\PSoC4/ADC_SAR_Seq_1.c ****     }
 524:Generated_Source\PSoC4/ADC_SAR_Seq_1.c **** 
 525:Generated_Source\PSoC4/ADC_SAR_Seq_1.c ****     return ( (int16)result );
 541              		.loc 1 525 0
 542 0024 00B2     		sxth	r0, r0
 543              	.LVL38:
 526:Generated_Source\PSoC4/ADC_SAR_Seq_1.c **** }
 544              		.loc 1 526 0
 545              		@ sp needed
ARM GAS  C:\Users\Nick\AppData\Local\Temp\cc6ZAR9j.s 			page 20


 546 0026 10BD     		pop	{r4, pc}
 547              	.L44:
 548              		.align	2
 549              	.L43:
 550 0028 80013A40 		.word	1077543296
 551              		.cfi_endproc
 552              	.LFE9:
 553              		.size	ADC_SAR_Seq_1_GetResult16, .-ADC_SAR_Seq_1_GetResult16
 554              		.section	.text.ADC_SAR_Seq_1_SetChanMask,"ax",%progbits
 555              		.align	2
 556              		.global	ADC_SAR_Seq_1_SetChanMask
 557              		.code	16
 558              		.thumb_func
 559              		.type	ADC_SAR_Seq_1_SetChanMask, %function
 560              	ADC_SAR_Seq_1_SetChanMask:
 561              	.LFB10:
 527:Generated_Source\PSoC4/ADC_SAR_Seq_1.c **** 
 528:Generated_Source\PSoC4/ADC_SAR_Seq_1.c **** 
 529:Generated_Source\PSoC4/ADC_SAR_Seq_1.c **** /*******************************************************************************
 530:Generated_Source\PSoC4/ADC_SAR_Seq_1.c **** * Function Name: ADC_SAR_Seq_1_SetChanMask
 531:Generated_Source\PSoC4/ADC_SAR_Seq_1.c **** ********************************************************************************
 532:Generated_Source\PSoC4/ADC_SAR_Seq_1.c **** *
 533:Generated_Source\PSoC4/ADC_SAR_Seq_1.c **** * Summary:
 534:Generated_Source\PSoC4/ADC_SAR_Seq_1.c **** *  Sets the channel enable mask.
 535:Generated_Source\PSoC4/ADC_SAR_Seq_1.c **** *
 536:Generated_Source\PSoC4/ADC_SAR_Seq_1.c **** * Parameters:
 537:Generated_Source\PSoC4/ADC_SAR_Seq_1.c **** *  mask: Sets which channels that will be
 538:Generated_Source\PSoC4/ADC_SAR_Seq_1.c **** *  scanned. Setting bits for channels that do not exist will have no
 539:Generated_Source\PSoC4/ADC_SAR_Seq_1.c **** *  effect. For example, if only 6 channels were enabled, setting a
 540:Generated_Source\PSoC4/ADC_SAR_Seq_1.c **** *  mask of 0x0103 would only enable the last two channels (0 and 1).
 541:Generated_Source\PSoC4/ADC_SAR_Seq_1.c **** *  This API will not enable the injection channel.
 542:Generated_Source\PSoC4/ADC_SAR_Seq_1.c **** *  Examples: If the component is setup to sequence through 8
 543:Generated_Source\PSoC4/ADC_SAR_Seq_1.c **** *  channels, a mask of 0x000F would enable channels 0, 1, 2, and 3.
 544:Generated_Source\PSoC4/ADC_SAR_Seq_1.c **** *
 545:Generated_Source\PSoC4/ADC_SAR_Seq_1.c **** * Return:
 546:Generated_Source\PSoC4/ADC_SAR_Seq_1.c **** *  None.
 547:Generated_Source\PSoC4/ADC_SAR_Seq_1.c **** *
 548:Generated_Source\PSoC4/ADC_SAR_Seq_1.c **** *******************************************************************************/
 549:Generated_Source\PSoC4/ADC_SAR_Seq_1.c **** void ADC_SAR_Seq_1_SetChanMask(uint32 mask)
 550:Generated_Source\PSoC4/ADC_SAR_Seq_1.c **** {
 562              		.loc 1 550 0
 563              		.cfi_startproc
 564              	.LVL39:
 551:Generated_Source\PSoC4/ADC_SAR_Seq_1.c ****     ADC_SAR_Seq_1_SAR_CHAN_EN_REG = mask & ADC_SAR_Seq_1_MAX_CHANNELS_EN_MASK;
 565              		.loc 1 551 0
 566 0000 0F23     		mov	r3, #15
 567 0002 1840     		and	r0, r3
 568              	.LVL40:
 569 0004 014B     		ldr	r3, .L46
 570 0006 1860     		str	r0, [r3]
 552:Generated_Source\PSoC4/ADC_SAR_Seq_1.c **** }
 571              		.loc 1 552 0
 572              		@ sp needed
 573 0008 7047     		bx	lr
 574              	.L47:
 575 000a C046     		.align	2
 576              	.L46:
ARM GAS  C:\Users\Nick\AppData\Local\Temp\cc6ZAR9j.s 			page 21


 577 000c 20003A40 		.word	1077542944
 578              		.cfi_endproc
 579              	.LFE10:
 580              		.size	ADC_SAR_Seq_1_SetChanMask, .-ADC_SAR_Seq_1_SetChanMask
 581              		.section	.text.ADC_SAR_Seq_1_SetLowLimit,"ax",%progbits
 582              		.align	2
 583              		.global	ADC_SAR_Seq_1_SetLowLimit
 584              		.code	16
 585              		.thumb_func
 586              		.type	ADC_SAR_Seq_1_SetLowLimit, %function
 587              	ADC_SAR_Seq_1_SetLowLimit:
 588              	.LFB11:
 553:Generated_Source\PSoC4/ADC_SAR_Seq_1.c **** 
 554:Generated_Source\PSoC4/ADC_SAR_Seq_1.c **** #if(ADC_SAR_Seq_1_INJ_CHANNEL_ENABLED)
 555:Generated_Source\PSoC4/ADC_SAR_Seq_1.c **** 
 556:Generated_Source\PSoC4/ADC_SAR_Seq_1.c **** 
 557:Generated_Source\PSoC4/ADC_SAR_Seq_1.c ****     /*******************************************************************************
 558:Generated_Source\PSoC4/ADC_SAR_Seq_1.c ****     * Function Name: ADC_SAR_Seq_1_EnableInjection
 559:Generated_Source\PSoC4/ADC_SAR_Seq_1.c ****     ********************************************************************************
 560:Generated_Source\PSoC4/ADC_SAR_Seq_1.c ****     *
 561:Generated_Source\PSoC4/ADC_SAR_Seq_1.c ****     * Summary:
 562:Generated_Source\PSoC4/ADC_SAR_Seq_1.c ****     *  Enables the injection channel for the next scan only.
 563:Generated_Source\PSoC4/ADC_SAR_Seq_1.c ****     *
 564:Generated_Source\PSoC4/ADC_SAR_Seq_1.c ****     * Parameters:
 565:Generated_Source\PSoC4/ADC_SAR_Seq_1.c ****     *  None.
 566:Generated_Source\PSoC4/ADC_SAR_Seq_1.c ****     *
 567:Generated_Source\PSoC4/ADC_SAR_Seq_1.c ****     * Return:
 568:Generated_Source\PSoC4/ADC_SAR_Seq_1.c ****     *  None.
 569:Generated_Source\PSoC4/ADC_SAR_Seq_1.c ****     *
 570:Generated_Source\PSoC4/ADC_SAR_Seq_1.c ****     *******************************************************************************/
 571:Generated_Source\PSoC4/ADC_SAR_Seq_1.c ****     void ADC_SAR_Seq_1_EnableInjection(void)
 572:Generated_Source\PSoC4/ADC_SAR_Seq_1.c ****     {
 573:Generated_Source\PSoC4/ADC_SAR_Seq_1.c ****         ADC_SAR_Seq_1_SAR_INJ_CHAN_CONFIG_REG |= ADC_SAR_Seq_1_INJ_CHAN_EN;
 574:Generated_Source\PSoC4/ADC_SAR_Seq_1.c ****     }
 575:Generated_Source\PSoC4/ADC_SAR_Seq_1.c **** 
 576:Generated_Source\PSoC4/ADC_SAR_Seq_1.c **** #endif /* ADC_SAR_Seq_1_INJ_CHANNEL_ENABLED */
 577:Generated_Source\PSoC4/ADC_SAR_Seq_1.c **** 
 578:Generated_Source\PSoC4/ADC_SAR_Seq_1.c **** 
 579:Generated_Source\PSoC4/ADC_SAR_Seq_1.c **** /*******************************************************************************
 580:Generated_Source\PSoC4/ADC_SAR_Seq_1.c **** * Function Name: ADC_SAR_Seq_1_SetLowLimit
 581:Generated_Source\PSoC4/ADC_SAR_Seq_1.c **** ********************************************************************************
 582:Generated_Source\PSoC4/ADC_SAR_Seq_1.c **** *
 583:Generated_Source\PSoC4/ADC_SAR_Seq_1.c **** * Summary:
 584:Generated_Source\PSoC4/ADC_SAR_Seq_1.c **** *  Sets the low limit parameter for a limit condition.
 585:Generated_Source\PSoC4/ADC_SAR_Seq_1.c **** *
 586:Generated_Source\PSoC4/ADC_SAR_Seq_1.c **** * Parameters:
 587:Generated_Source\PSoC4/ADC_SAR_Seq_1.c **** *  lowLimit: The low limit for a limit condition.
 588:Generated_Source\PSoC4/ADC_SAR_Seq_1.c **** *
 589:Generated_Source\PSoC4/ADC_SAR_Seq_1.c **** * Return:
 590:Generated_Source\PSoC4/ADC_SAR_Seq_1.c **** *  None.
 591:Generated_Source\PSoC4/ADC_SAR_Seq_1.c **** *
 592:Generated_Source\PSoC4/ADC_SAR_Seq_1.c **** *******************************************************************************/
 593:Generated_Source\PSoC4/ADC_SAR_Seq_1.c **** void ADC_SAR_Seq_1_SetLowLimit(uint32 lowLimit)
 594:Generated_Source\PSoC4/ADC_SAR_Seq_1.c **** {
 589              		.loc 1 594 0
 590              		.cfi_startproc
 591              	.LVL41:
ARM GAS  C:\Users\Nick\AppData\Local\Temp\cc6ZAR9j.s 			page 22


 595:Generated_Source\PSoC4/ADC_SAR_Seq_1.c ****     ADC_SAR_Seq_1_SAR_RANGE_THRES_REG &= (uint32)(~ADC_SAR_Seq_1_RANGE_LOW_MASK);
 592              		.loc 1 595 0
 593 0000 054A     		ldr	r2, .L49
 594 0002 1368     		ldr	r3, [r2]
 595 0004 1B0C     		lsr	r3, r3, #16
 596 0006 1B04     		lsl	r3, r3, #16
 597 0008 1360     		str	r3, [r2]
 596:Generated_Source\PSoC4/ADC_SAR_Seq_1.c ****     ADC_SAR_Seq_1_SAR_RANGE_THRES_REG |= lowLimit & ADC_SAR_Seq_1_RANGE_LOW_MASK;
 598              		.loc 1 596 0
 599 000a 1368     		ldr	r3, [r2]
 600 000c 0004     		lsl	r0, r0, #16
 601              	.LVL42:
 602 000e 000C     		lsr	r0, r0, #16
 603 0010 1843     		orr	r0, r3
 604 0012 1060     		str	r0, [r2]
 597:Generated_Source\PSoC4/ADC_SAR_Seq_1.c **** }
 605              		.loc 1 597 0
 606              		@ sp needed
 607 0014 7047     		bx	lr
 608              	.L50:
 609 0016 C046     		.align	2
 610              	.L49:
 611 0018 18003A40 		.word	1077542936
 612              		.cfi_endproc
 613              	.LFE11:
 614              		.size	ADC_SAR_Seq_1_SetLowLimit, .-ADC_SAR_Seq_1_SetLowLimit
 615              		.section	.text.ADC_SAR_Seq_1_SetHighLimit,"ax",%progbits
 616              		.align	2
 617              		.global	ADC_SAR_Seq_1_SetHighLimit
 618              		.code	16
 619              		.thumb_func
 620              		.type	ADC_SAR_Seq_1_SetHighLimit, %function
 621              	ADC_SAR_Seq_1_SetHighLimit:
 622              	.LFB12:
 598:Generated_Source\PSoC4/ADC_SAR_Seq_1.c **** 
 599:Generated_Source\PSoC4/ADC_SAR_Seq_1.c **** 
 600:Generated_Source\PSoC4/ADC_SAR_Seq_1.c **** /*******************************************************************************
 601:Generated_Source\PSoC4/ADC_SAR_Seq_1.c **** * Function Name: ADC_SAR_Seq_1_SetHighLimit
 602:Generated_Source\PSoC4/ADC_SAR_Seq_1.c **** ********************************************************************************
 603:Generated_Source\PSoC4/ADC_SAR_Seq_1.c **** *
 604:Generated_Source\PSoC4/ADC_SAR_Seq_1.c **** * Summary:
 605:Generated_Source\PSoC4/ADC_SAR_Seq_1.c **** *  Sets the low limit parameter for a limit condition.
 606:Generated_Source\PSoC4/ADC_SAR_Seq_1.c **** *
 607:Generated_Source\PSoC4/ADC_SAR_Seq_1.c **** * Parameters:
 608:Generated_Source\PSoC4/ADC_SAR_Seq_1.c **** *  highLimit: The high limit for a limit condition.
 609:Generated_Source\PSoC4/ADC_SAR_Seq_1.c **** *
 610:Generated_Source\PSoC4/ADC_SAR_Seq_1.c **** * Return:
 611:Generated_Source\PSoC4/ADC_SAR_Seq_1.c **** *  None.
 612:Generated_Source\PSoC4/ADC_SAR_Seq_1.c **** *
 613:Generated_Source\PSoC4/ADC_SAR_Seq_1.c **** *******************************************************************************/
 614:Generated_Source\PSoC4/ADC_SAR_Seq_1.c **** void ADC_SAR_Seq_1_SetHighLimit(uint32 highLimit)
 615:Generated_Source\PSoC4/ADC_SAR_Seq_1.c **** {
 623              		.loc 1 615 0
 624              		.cfi_startproc
 625              	.LVL43:
 616:Generated_Source\PSoC4/ADC_SAR_Seq_1.c ****     ADC_SAR_Seq_1_SAR_RANGE_THRES_REG &= (uint32)(~ADC_SAR_Seq_1_RANGE_HIGH_MASK);
 626              		.loc 1 616 0
ARM GAS  C:\Users\Nick\AppData\Local\Temp\cc6ZAR9j.s 			page 23


 627 0000 044A     		ldr	r2, .L52
 628 0002 1368     		ldr	r3, [r2]
 629 0004 1B04     		lsl	r3, r3, #16
 630 0006 1B0C     		lsr	r3, r3, #16
 631 0008 1360     		str	r3, [r2]
 617:Generated_Source\PSoC4/ADC_SAR_Seq_1.c ****     ADC_SAR_Seq_1_SAR_RANGE_THRES_REG |= (uint32)(highLimit << ADC_SAR_Seq_1_RANGE_HIGH_OFFSET);
 632              		.loc 1 617 0
 633 000a 1368     		ldr	r3, [r2]
 634 000c 0004     		lsl	r0, r0, #16
 635              	.LVL44:
 636 000e 1843     		orr	r0, r3
 637 0010 1060     		str	r0, [r2]
 618:Generated_Source\PSoC4/ADC_SAR_Seq_1.c **** }
 638              		.loc 1 618 0
 639              		@ sp needed
 640 0012 7047     		bx	lr
 641              	.L53:
 642              		.align	2
 643              	.L52:
 644 0014 18003A40 		.word	1077542936
 645              		.cfi_endproc
 646              	.LFE12:
 647              		.size	ADC_SAR_Seq_1_SetHighLimit, .-ADC_SAR_Seq_1_SetHighLimit
 648              		.section	.text.ADC_SAR_Seq_1_SetLimitMask,"ax",%progbits
 649              		.align	2
 650              		.global	ADC_SAR_Seq_1_SetLimitMask
 651              		.code	16
 652              		.thumb_func
 653              		.type	ADC_SAR_Seq_1_SetLimitMask, %function
 654              	ADC_SAR_Seq_1_SetLimitMask:
 655              	.LFB13:
 619:Generated_Source\PSoC4/ADC_SAR_Seq_1.c **** 
 620:Generated_Source\PSoC4/ADC_SAR_Seq_1.c **** 
 621:Generated_Source\PSoC4/ADC_SAR_Seq_1.c **** /*******************************************************************************
 622:Generated_Source\PSoC4/ADC_SAR_Seq_1.c **** * Function Name: ADC_SAR_Seq_1_SetLimitMask
 623:Generated_Source\PSoC4/ADC_SAR_Seq_1.c **** ********************************************************************************
 624:Generated_Source\PSoC4/ADC_SAR_Seq_1.c **** *
 625:Generated_Source\PSoC4/ADC_SAR_Seq_1.c **** * Summary:
 626:Generated_Source\PSoC4/ADC_SAR_Seq_1.c **** *  Sets the channel limit condition mask.
 627:Generated_Source\PSoC4/ADC_SAR_Seq_1.c **** *
 628:Generated_Source\PSoC4/ADC_SAR_Seq_1.c **** * Parameters:
 629:Generated_Source\PSoC4/ADC_SAR_Seq_1.c **** *  mask: Sets which channels that may cause a
 630:Generated_Source\PSoC4/ADC_SAR_Seq_1.c **** *  limit condition interrupt. Setting bits for channels that do not exist
 631:Generated_Source\PSoC4/ADC_SAR_Seq_1.c **** *  will have no effect. For example, if only 6 channels were enabled,
 632:Generated_Source\PSoC4/ADC_SAR_Seq_1.c **** *  setting a mask of 0x0103 would only enable the last two channels (0 and 1).
 633:Generated_Source\PSoC4/ADC_SAR_Seq_1.c **** *
 634:Generated_Source\PSoC4/ADC_SAR_Seq_1.c **** * Return:
 635:Generated_Source\PSoC4/ADC_SAR_Seq_1.c **** *  None.
 636:Generated_Source\PSoC4/ADC_SAR_Seq_1.c **** *
 637:Generated_Source\PSoC4/ADC_SAR_Seq_1.c **** *******************************************************************************/
 638:Generated_Source\PSoC4/ADC_SAR_Seq_1.c **** void ADC_SAR_Seq_1_SetLimitMask(uint32 mask)
 639:Generated_Source\PSoC4/ADC_SAR_Seq_1.c **** {
 656              		.loc 1 639 0
 657              		.cfi_startproc
 658              	.LVL45:
 640:Generated_Source\PSoC4/ADC_SAR_Seq_1.c ****     ADC_SAR_Seq_1_SAR_RANGE_INTR_MASK_REG = mask & ADC_SAR_Seq_1_MAX_CHANNELS_EN_MASK;
 659              		.loc 1 640 0
ARM GAS  C:\Users\Nick\AppData\Local\Temp\cc6ZAR9j.s 			page 24


 660 0000 0F23     		mov	r3, #15
 661 0002 1840     		and	r0, r3
 662              	.LVL46:
 663 0004 014B     		ldr	r3, .L55
 664 0006 1860     		str	r0, [r3]
 641:Generated_Source\PSoC4/ADC_SAR_Seq_1.c **** }
 665              		.loc 1 641 0
 666              		@ sp needed
 667 0008 7047     		bx	lr
 668              	.L56:
 669 000a C046     		.align	2
 670              	.L55:
 671 000c 38023A40 		.word	1077543480
 672              		.cfi_endproc
 673              	.LFE13:
 674              		.size	ADC_SAR_Seq_1_SetLimitMask, .-ADC_SAR_Seq_1_SetLimitMask
 675              		.section	.text.ADC_SAR_Seq_1_SetSatMask,"ax",%progbits
 676              		.align	2
 677              		.global	ADC_SAR_Seq_1_SetSatMask
 678              		.code	16
 679              		.thumb_func
 680              		.type	ADC_SAR_Seq_1_SetSatMask, %function
 681              	ADC_SAR_Seq_1_SetSatMask:
 682              	.LFB14:
 642:Generated_Source\PSoC4/ADC_SAR_Seq_1.c **** 
 643:Generated_Source\PSoC4/ADC_SAR_Seq_1.c **** 
 644:Generated_Source\PSoC4/ADC_SAR_Seq_1.c **** /*******************************************************************************
 645:Generated_Source\PSoC4/ADC_SAR_Seq_1.c **** * Function Name: ADC_SAR_Seq_1_SetSatMask
 646:Generated_Source\PSoC4/ADC_SAR_Seq_1.c **** ********************************************************************************
 647:Generated_Source\PSoC4/ADC_SAR_Seq_1.c **** *
 648:Generated_Source\PSoC4/ADC_SAR_Seq_1.c **** * Summary:
 649:Generated_Source\PSoC4/ADC_SAR_Seq_1.c **** *  Sets the channel saturation event mask.
 650:Generated_Source\PSoC4/ADC_SAR_Seq_1.c **** *
 651:Generated_Source\PSoC4/ADC_SAR_Seq_1.c **** * Parameters:
 652:Generated_Source\PSoC4/ADC_SAR_Seq_1.c **** *  mask: Sets which channels that may cause a
 653:Generated_Source\PSoC4/ADC_SAR_Seq_1.c **** *  saturation event interrupt. Setting bits for channels that do not exist
 654:Generated_Source\PSoC4/ADC_SAR_Seq_1.c **** *  will have no effect. For example, if only 8 channels were enabled,
 655:Generated_Source\PSoC4/ADC_SAR_Seq_1.c **** *  setting a mask of 0x01C0 would only enable two channels (6 and 7).
 656:Generated_Source\PSoC4/ADC_SAR_Seq_1.c **** *
 657:Generated_Source\PSoC4/ADC_SAR_Seq_1.c **** * Return:
 658:Generated_Source\PSoC4/ADC_SAR_Seq_1.c **** *  None.
 659:Generated_Source\PSoC4/ADC_SAR_Seq_1.c **** *
 660:Generated_Source\PSoC4/ADC_SAR_Seq_1.c **** *******************************************************************************/
 661:Generated_Source\PSoC4/ADC_SAR_Seq_1.c **** void ADC_SAR_Seq_1_SetSatMask(uint32 mask)
 662:Generated_Source\PSoC4/ADC_SAR_Seq_1.c **** {
 683              		.loc 1 662 0
 684              		.cfi_startproc
 685              	.LVL47:
 663:Generated_Source\PSoC4/ADC_SAR_Seq_1.c ****     ADC_SAR_Seq_1_SAR_SATURATE_INTR_MASK_REG = mask & ADC_SAR_Seq_1_MAX_CHANNELS_EN_MASK;
 686              		.loc 1 663 0
 687 0000 0F23     		mov	r3, #15
 688 0002 1840     		and	r0, r3
 689              	.LVL48:
 690 0004 014B     		ldr	r3, .L58
 691 0006 1860     		str	r0, [r3]
 664:Generated_Source\PSoC4/ADC_SAR_Seq_1.c **** }
 692              		.loc 1 664 0
ARM GAS  C:\Users\Nick\AppData\Local\Temp\cc6ZAR9j.s 			page 25


 693              		@ sp needed
 694 0008 7047     		bx	lr
 695              	.L59:
 696 000a C046     		.align	2
 697              	.L58:
 698 000c 28023A40 		.word	1077543464
 699              		.cfi_endproc
 700              	.LFE14:
 701              		.size	ADC_SAR_Seq_1_SetSatMask, .-ADC_SAR_Seq_1_SetSatMask
 702              		.section	.text.ADC_SAR_Seq_1_SetOffset,"ax",%progbits
 703              		.align	2
 704              		.global	ADC_SAR_Seq_1_SetOffset
 705              		.code	16
 706              		.thumb_func
 707              		.type	ADC_SAR_Seq_1_SetOffset, %function
 708              	ADC_SAR_Seq_1_SetOffset:
 709              	.LFB15:
 665:Generated_Source\PSoC4/ADC_SAR_Seq_1.c **** 
 666:Generated_Source\PSoC4/ADC_SAR_Seq_1.c **** 
 667:Generated_Source\PSoC4/ADC_SAR_Seq_1.c **** /*******************************************************************************
 668:Generated_Source\PSoC4/ADC_SAR_Seq_1.c **** * Function Name: ADC_SAR_Seq_1_SetOffset
 669:Generated_Source\PSoC4/ADC_SAR_Seq_1.c **** ********************************************************************************
 670:Generated_Source\PSoC4/ADC_SAR_Seq_1.c **** *
 671:Generated_Source\PSoC4/ADC_SAR_Seq_1.c **** * Summary:
 672:Generated_Source\PSoC4/ADC_SAR_Seq_1.c **** *   Description: Sets the ADC offset which is used by the functions
 673:Generated_Source\PSoC4/ADC_SAR_Seq_1.c **** *   ADC_CountsTo_uVolts, ADC_CountsTo_mVolts and ADC_CountsTo_Volts
 674:Generated_Source\PSoC4/ADC_SAR_Seq_1.c **** *   to substract the offset from the given reading
 675:Generated_Source\PSoC4/ADC_SAR_Seq_1.c **** *   before calculating the voltage conversion.
 676:Generated_Source\PSoC4/ADC_SAR_Seq_1.c **** *
 677:Generated_Source\PSoC4/ADC_SAR_Seq_1.c **** * Parameters:
 678:Generated_Source\PSoC4/ADC_SAR_Seq_1.c **** *  chan: ADC channel number.
 679:Generated_Source\PSoC4/ADC_SAR_Seq_1.c **** *  offset: This value is a measured value when the
 680:Generated_Source\PSoC4/ADC_SAR_Seq_1.c **** *          inputs are shorted or connected to the same input voltage.
 681:Generated_Source\PSoC4/ADC_SAR_Seq_1.c **** *
 682:Generated_Source\PSoC4/ADC_SAR_Seq_1.c **** * Return:
 683:Generated_Source\PSoC4/ADC_SAR_Seq_1.c **** *  None.
 684:Generated_Source\PSoC4/ADC_SAR_Seq_1.c **** *
 685:Generated_Source\PSoC4/ADC_SAR_Seq_1.c **** * Global variables:
 686:Generated_Source\PSoC4/ADC_SAR_Seq_1.c **** *  ADC_SAR_Seq_1_Offset:  Modified to set the user provided offset.
 687:Generated_Source\PSoC4/ADC_SAR_Seq_1.c **** *
 688:Generated_Source\PSoC4/ADC_SAR_Seq_1.c **** *******************************************************************************/
 689:Generated_Source\PSoC4/ADC_SAR_Seq_1.c **** void ADC_SAR_Seq_1_SetOffset(uint32 chan, int16 offset)
 690:Generated_Source\PSoC4/ADC_SAR_Seq_1.c **** {
 710              		.loc 1 690 0
 711              		.cfi_startproc
 712              	.LVL49:
 713 0000 38B5     		push	{r3, r4, r5, lr}
 714              		.cfi_def_cfa_offset 16
 715              		.cfi_offset 3, -16
 716              		.cfi_offset 4, -12
 717              		.cfi_offset 5, -8
 718              		.cfi_offset 14, -4
 719 0002 041C     		mov	r4, r0
 720 0004 0D1C     		mov	r5, r1
 691:Generated_Source\PSoC4/ADC_SAR_Seq_1.c ****     /* Halt CPU in debug mode if channel is out of valid range */
 692:Generated_Source\PSoC4/ADC_SAR_Seq_1.c ****     CYASSERT(chan < ADC_SAR_Seq_1_TOTAL_CHANNELS_NUM);
 721              		.loc 1 692 0
ARM GAS  C:\Users\Nick\AppData\Local\Temp\cc6ZAR9j.s 			page 26


 722 0006 0328     		cmp	r0, #3
 723 0008 02D9     		bls	.L61
 724              		.loc 1 692 0 is_stmt 0 discriminator 1
 725 000a 0020     		mov	r0, #0
 726              	.LVL50:
 727 000c FFF7FEFF 		bl	CyHalt
 728              	.LVL51:
 729              	.L61:
 693:Generated_Source\PSoC4/ADC_SAR_Seq_1.c **** 
 694:Generated_Source\PSoC4/ADC_SAR_Seq_1.c ****     ADC_SAR_Seq_1_offset[chan] = offset;
 730              		.loc 1 694 0 is_stmt 1
 731 0010 6400     		lsl	r4, r4, #1
 732              	.LVL52:
 733 0012 014B     		ldr	r3, .L62
 734 0014 E552     		strh	r5, [r4, r3]
 695:Generated_Source\PSoC4/ADC_SAR_Seq_1.c **** }
 735              		.loc 1 695 0
 736              		@ sp needed
 737 0016 38BD     		pop	{r3, r4, r5, pc}
 738              	.L63:
 739              		.align	2
 740              	.L62:
 741 0018 00000000 		.word	ADC_SAR_Seq_1_offset
 742              		.cfi_endproc
 743              	.LFE15:
 744              		.size	ADC_SAR_Seq_1_SetOffset, .-ADC_SAR_Seq_1_SetOffset
 745              		.section	.text.ADC_SAR_Seq_1_SetGain,"ax",%progbits
 746              		.align	2
 747              		.global	ADC_SAR_Seq_1_SetGain
 748              		.code	16
 749              		.thumb_func
 750              		.type	ADC_SAR_Seq_1_SetGain, %function
 751              	ADC_SAR_Seq_1_SetGain:
 752              	.LFB16:
 696:Generated_Source\PSoC4/ADC_SAR_Seq_1.c **** 
 697:Generated_Source\PSoC4/ADC_SAR_Seq_1.c **** 
 698:Generated_Source\PSoC4/ADC_SAR_Seq_1.c **** /*******************************************************************************
 699:Generated_Source\PSoC4/ADC_SAR_Seq_1.c **** * Function Name: ADC_SAR_Seq_1_SetGain
 700:Generated_Source\PSoC4/ADC_SAR_Seq_1.c **** ********************************************************************************
 701:Generated_Source\PSoC4/ADC_SAR_Seq_1.c **** *
 702:Generated_Source\PSoC4/ADC_SAR_Seq_1.c **** * Summary:
 703:Generated_Source\PSoC4/ADC_SAR_Seq_1.c **** *  Description: Sets the ADC gain in counts per 10 volt for the voltage
 704:Generated_Source\PSoC4/ADC_SAR_Seq_1.c **** *  conversion functions below. This value is set by default by the
 705:Generated_Source\PSoC4/ADC_SAR_Seq_1.c **** *  reference and input range settings. It should only be used to further
 706:Generated_Source\PSoC4/ADC_SAR_Seq_1.c **** *  calibrate the ADC with a known input or if an external reference is
 707:Generated_Source\PSoC4/ADC_SAR_Seq_1.c **** *  used. Affects the ADC_CountsTo_uVolts, ADC_CountsTo_mVolts
 708:Generated_Source\PSoC4/ADC_SAR_Seq_1.c **** *  and ADC_CountsTo_Volts functions by supplying the correct
 709:Generated_Source\PSoC4/ADC_SAR_Seq_1.c **** *  conversion between ADC counts and voltage.
 710:Generated_Source\PSoC4/ADC_SAR_Seq_1.c **** *
 711:Generated_Source\PSoC4/ADC_SAR_Seq_1.c **** * Parameters:
 712:Generated_Source\PSoC4/ADC_SAR_Seq_1.c **** *  chan: ADC channel number.
 713:Generated_Source\PSoC4/ADC_SAR_Seq_1.c **** *  adcGain: ADC gain in counts per 10 volts.
 714:Generated_Source\PSoC4/ADC_SAR_Seq_1.c **** *
 715:Generated_Source\PSoC4/ADC_SAR_Seq_1.c **** * Return:
 716:Generated_Source\PSoC4/ADC_SAR_Seq_1.c **** *  None.
 717:Generated_Source\PSoC4/ADC_SAR_Seq_1.c **** *
 718:Generated_Source\PSoC4/ADC_SAR_Seq_1.c **** * Global variables:
ARM GAS  C:\Users\Nick\AppData\Local\Temp\cc6ZAR9j.s 			page 27


 719:Generated_Source\PSoC4/ADC_SAR_Seq_1.c **** *  ADC_SAR_Seq_1_CountsPer10Volt:  modified to set the ADC gain in counts
 720:Generated_Source\PSoC4/ADC_SAR_Seq_1.c **** *   per 10 volt.
 721:Generated_Source\PSoC4/ADC_SAR_Seq_1.c **** *
 722:Generated_Source\PSoC4/ADC_SAR_Seq_1.c **** *******************************************************************************/
 723:Generated_Source\PSoC4/ADC_SAR_Seq_1.c **** void ADC_SAR_Seq_1_SetGain(uint32 chan, int32 adcGain)
 724:Generated_Source\PSoC4/ADC_SAR_Seq_1.c **** {
 753              		.loc 1 724 0
 754              		.cfi_startproc
 755              	.LVL53:
 756 0000 38B5     		push	{r3, r4, r5, lr}
 757              		.cfi_def_cfa_offset 16
 758              		.cfi_offset 3, -16
 759              		.cfi_offset 4, -12
 760              		.cfi_offset 5, -8
 761              		.cfi_offset 14, -4
 762 0002 041C     		mov	r4, r0
 763 0004 0D1C     		mov	r5, r1
 725:Generated_Source\PSoC4/ADC_SAR_Seq_1.c ****     /* Halt CPU in debug mode if channel is out of valid range */
 726:Generated_Source\PSoC4/ADC_SAR_Seq_1.c ****     CYASSERT(chan < ADC_SAR_Seq_1_TOTAL_CHANNELS_NUM);
 764              		.loc 1 726 0
 765 0006 0328     		cmp	r0, #3
 766 0008 02D9     		bls	.L65
 767              		.loc 1 726 0 is_stmt 0 discriminator 1
 768 000a 0020     		mov	r0, #0
 769              	.LVL54:
 770 000c FFF7FEFF 		bl	CyHalt
 771              	.LVL55:
 772              	.L65:
 727:Generated_Source\PSoC4/ADC_SAR_Seq_1.c **** 
 728:Generated_Source\PSoC4/ADC_SAR_Seq_1.c ****     ADC_SAR_Seq_1_countsPer10Volt[chan] = adcGain;
 773              		.loc 1 728 0 is_stmt 1
 774 0010 A400     		lsl	r4, r4, #2
 775              	.LVL56:
 776 0012 014B     		ldr	r3, .L66
 777 0014 E550     		str	r5, [r4, r3]
 729:Generated_Source\PSoC4/ADC_SAR_Seq_1.c **** }
 778              		.loc 1 729 0
 779              		@ sp needed
 780              	.LVL57:
 781 0016 38BD     		pop	{r3, r4, r5, pc}
 782              	.L67:
 783              		.align	2
 784              	.L66:
 785 0018 00000000 		.word	ADC_SAR_Seq_1_countsPer10Volt
 786              		.cfi_endproc
 787              	.LFE16:
 788              		.size	ADC_SAR_Seq_1_SetGain, .-ADC_SAR_Seq_1_SetGain
 789              		.section	.text.ADC_SAR_Seq_1_CountsTo_mVolts,"ax",%progbits
 790              		.align	2
 791              		.global	ADC_SAR_Seq_1_CountsTo_mVolts
 792              		.code	16
 793              		.thumb_func
 794              		.type	ADC_SAR_Seq_1_CountsTo_mVolts, %function
 795              	ADC_SAR_Seq_1_CountsTo_mVolts:
 796              	.LFB17:
 730:Generated_Source\PSoC4/ADC_SAR_Seq_1.c **** 
 731:Generated_Source\PSoC4/ADC_SAR_Seq_1.c **** 
ARM GAS  C:\Users\Nick\AppData\Local\Temp\cc6ZAR9j.s 			page 28


 732:Generated_Source\PSoC4/ADC_SAR_Seq_1.c **** #if(ADC_SAR_Seq_1_DEFAULT_JUSTIFICATION_SEL == ADC_SAR_Seq_1__RIGHT)
 733:Generated_Source\PSoC4/ADC_SAR_Seq_1.c **** 
 734:Generated_Source\PSoC4/ADC_SAR_Seq_1.c **** 
 735:Generated_Source\PSoC4/ADC_SAR_Seq_1.c ****     /*******************************************************************************
 736:Generated_Source\PSoC4/ADC_SAR_Seq_1.c ****     * Function Name: ADC_SAR_Seq_1_CountsTo_mVolts
 737:Generated_Source\PSoC4/ADC_SAR_Seq_1.c ****     ********************************************************************************
 738:Generated_Source\PSoC4/ADC_SAR_Seq_1.c ****     *
 739:Generated_Source\PSoC4/ADC_SAR_Seq_1.c ****     * Summary:
 740:Generated_Source\PSoC4/ADC_SAR_Seq_1.c ****     *  This function converts ADC counts to mVolts
 741:Generated_Source\PSoC4/ADC_SAR_Seq_1.c ****     *  This function is not available when left data format justification selected.
 742:Generated_Source\PSoC4/ADC_SAR_Seq_1.c ****     *
 743:Generated_Source\PSoC4/ADC_SAR_Seq_1.c ****     * Parameters:
 744:Generated_Source\PSoC4/ADC_SAR_Seq_1.c ****     *  chan: The ADC channel number.
 745:Generated_Source\PSoC4/ADC_SAR_Seq_1.c ****     *  adcCounts: Result from the ADC conversion
 746:Generated_Source\PSoC4/ADC_SAR_Seq_1.c ****     *
 747:Generated_Source\PSoC4/ADC_SAR_Seq_1.c ****     * Return:
 748:Generated_Source\PSoC4/ADC_SAR_Seq_1.c ****     *  Results in mVolts
 749:Generated_Source\PSoC4/ADC_SAR_Seq_1.c ****     *
 750:Generated_Source\PSoC4/ADC_SAR_Seq_1.c ****     * Global variables:
 751:Generated_Source\PSoC4/ADC_SAR_Seq_1.c ****     *  ADC_SAR_Seq_1_countsPer10Volt:  used to convert ADC counts to mVolts.
 752:Generated_Source\PSoC4/ADC_SAR_Seq_1.c ****     *  ADC_SAR_Seq_1_Offset:  Used as the offset while converting ADC counts
 753:Generated_Source\PSoC4/ADC_SAR_Seq_1.c ****     *   to mVolts.
 754:Generated_Source\PSoC4/ADC_SAR_Seq_1.c ****     *
 755:Generated_Source\PSoC4/ADC_SAR_Seq_1.c ****     *******************************************************************************/
 756:Generated_Source\PSoC4/ADC_SAR_Seq_1.c ****     int16 ADC_SAR_Seq_1_CountsTo_mVolts(uint32 chan, int16 adcCounts)
 757:Generated_Source\PSoC4/ADC_SAR_Seq_1.c ****     {
 797              		.loc 1 757 0
 798              		.cfi_startproc
 799              	.LVL58:
 800 0000 38B5     		push	{r3, r4, r5, lr}
 801              		.cfi_def_cfa_offset 16
 802              		.cfi_offset 3, -16
 803              		.cfi_offset 4, -12
 804              		.cfi_offset 5, -8
 805              		.cfi_offset 14, -4
 806 0002 041C     		mov	r4, r0
 807 0004 0D1C     		mov	r5, r1
 758:Generated_Source\PSoC4/ADC_SAR_Seq_1.c ****         int16 mVolts;
 759:Generated_Source\PSoC4/ADC_SAR_Seq_1.c **** 
 760:Generated_Source\PSoC4/ADC_SAR_Seq_1.c ****         /* Halt CPU in debug mode if channel is out of valid range */
 761:Generated_Source\PSoC4/ADC_SAR_Seq_1.c ****         CYASSERT(chan < ADC_SAR_Seq_1_TOTAL_CHANNELS_NUM);
 808              		.loc 1 761 0
 809 0006 0328     		cmp	r0, #3
 810 0008 02D9     		bls	.L69
 811              		.loc 1 761 0 is_stmt 0 discriminator 1
 812 000a 0020     		mov	r0, #0
 813              	.LVL59:
 814 000c FFF7FEFF 		bl	CyHalt
 815              	.LVL60:
 816              	.L69:
 762:Generated_Source\PSoC4/ADC_SAR_Seq_1.c **** 
 763:Generated_Source\PSoC4/ADC_SAR_Seq_1.c ****         /* Divide the adcCount when accumulate averaging mode selected */
 764:Generated_Source\PSoC4/ADC_SAR_Seq_1.c ****         #if(ADC_SAR_Seq_1_DEFAULT_AVG_MODE == ADC_SAR_Seq_1__ACCUMULATE)
 765:Generated_Source\PSoC4/ADC_SAR_Seq_1.c ****             if((ADC_SAR_Seq_1_channelsConfig[chan] & ADC_SAR_Seq_1_AVERAGING_EN) != 0u)
 766:Generated_Source\PSoC4/ADC_SAR_Seq_1.c ****             {
 767:Generated_Source\PSoC4/ADC_SAR_Seq_1.c ****                 adcCounts /= ADC_SAR_Seq_1_DEFAULT_AVG_SAMPLES_DIV;
 768:Generated_Source\PSoC4/ADC_SAR_Seq_1.c ****             }
ARM GAS  C:\Users\Nick\AppData\Local\Temp\cc6ZAR9j.s 			page 29


 769:Generated_Source\PSoC4/ADC_SAR_Seq_1.c ****         #endif /* ADC_SAR_Seq_1_DEFAULT_AVG_MODE == ADC_SAR_Seq_1__ACCUMULATE */
 770:Generated_Source\PSoC4/ADC_SAR_Seq_1.c **** 
 771:Generated_Source\PSoC4/ADC_SAR_Seq_1.c ****         /* Subtract ADC offset */
 772:Generated_Source\PSoC4/ADC_SAR_Seq_1.c ****         adcCounts -= ADC_SAR_Seq_1_offset[chan];
 817              		.loc 1 772 0 is_stmt 1
 818 0010 6300     		lsl	r3, r4, #1
 819 0012 0F4A     		ldr	r2, .L72
 820 0014 995A     		ldrh	r1, [r3, r2]
 821 0016 691A     		sub	r1, r5, r1
 822 0018 09B2     		sxth	r1, r1
 823              	.LVL61:
 773:Generated_Source\PSoC4/ADC_SAR_Seq_1.c **** 
 774:Generated_Source\PSoC4/ADC_SAR_Seq_1.c ****         mVolts = (int16)((((int32)adcCounts * ADC_SAR_Seq_1_10MV_COUNTS) + ( (adcCounts > 0) ?
 824              		.loc 1 774 0
 825 001a 0E48     		ldr	r0, .L72+4
 826 001c 021C     		mov	r2, r0
 827 001e 4A43     		mul	r2, r1
 775:Generated_Source\PSoC4/ADC_SAR_Seq_1.c ****                  (ADC_SAR_Seq_1_countsPer10Volt[chan] / 2) : (-(ADC_SAR_Seq_1_countsPer10Volt[chan]
 828              		.loc 1 775 0
 829 0020 0029     		cmp	r1, #0
 830 0022 06DD     		ble	.L70
 831              		.loc 1 775 0 is_stmt 0 discriminator 1
 832 0024 A300     		lsl	r3, r4, #2
 833 0026 0C49     		ldr	r1, .L72+8
 834              	.LVL62:
 835 0028 5B58     		ldr	r3, [r3, r1]
 836 002a D80F     		lsr	r0, r3, #31
 837 002c C018     		add	r0, r0, r3
 838 002e 4310     		asr	r3, r0, #1
 839 0030 06E0     		b	.L71
 840              	.LVL63:
 841              	.L70:
 842              		.loc 1 775 0 discriminator 2
 843 0032 A300     		lsl	r3, r4, #2
 844 0034 0849     		ldr	r1, .L72+8
 845              	.LVL64:
 846 0036 5B58     		ldr	r3, [r3, r1]
 847 0038 D80F     		lsr	r0, r3, #31
 848 003a C318     		add	r3, r0, r3
 849 003c 5B10     		asr	r3, r3, #1
 850 003e 5B42     		neg	r3, r3
 851              	.L71:
 774:Generated_Source\PSoC4/ADC_SAR_Seq_1.c ****                  (ADC_SAR_Seq_1_countsPer10Volt[chan] / 2) : (-(ADC_SAR_Seq_1_countsPer10Volt[chan]
 852              		.loc 1 774 0 is_stmt 1
 853 0040 D018     		add	r0, r2, r3
 776:Generated_Source\PSoC4/ADC_SAR_Seq_1.c ****                  / ADC_SAR_Seq_1_countsPer10Volt[chan]);
 854              		.loc 1 776 0
 855 0042 A400     		lsl	r4, r4, #2
 856              	.LVL65:
 857 0044 044B     		ldr	r3, .L72+8
 858 0046 E158     		ldr	r1, [r4, r3]
 859 0048 FFF7FEFF 		bl	__aeabi_idiv
 860              	.LVL66:
 777:Generated_Source\PSoC4/ADC_SAR_Seq_1.c **** 
 778:Generated_Source\PSoC4/ADC_SAR_Seq_1.c ****         return( mVolts );
 861              		.loc 1 778 0
 862 004c 00B2     		sxth	r0, r0
ARM GAS  C:\Users\Nick\AppData\Local\Temp\cc6ZAR9j.s 			page 30


 779:Generated_Source\PSoC4/ADC_SAR_Seq_1.c ****     }
 863              		.loc 1 779 0
 864              		@ sp needed
 865 004e 38BD     		pop	{r3, r4, r5, pc}
 866              	.L73:
 867              		.align	2
 868              	.L72:
 869 0050 00000000 		.word	ADC_SAR_Seq_1_offset
 870 0054 10270000 		.word	10000
 871 0058 00000000 		.word	ADC_SAR_Seq_1_countsPer10Volt
 872              		.cfi_endproc
 873              	.LFE17:
 874              		.size	ADC_SAR_Seq_1_CountsTo_mVolts, .-ADC_SAR_Seq_1_CountsTo_mVolts
 875              		.global	__aeabi_lmul
 876              		.global	__aeabi_ldivmod
 877              		.section	.text.ADC_SAR_Seq_1_CountsTo_uVolts,"ax",%progbits
 878              		.align	2
 879              		.global	ADC_SAR_Seq_1_CountsTo_uVolts
 880              		.code	16
 881              		.thumb_func
 882              		.type	ADC_SAR_Seq_1_CountsTo_uVolts, %function
 883              	ADC_SAR_Seq_1_CountsTo_uVolts:
 884              	.LFB18:
 780:Generated_Source\PSoC4/ADC_SAR_Seq_1.c **** 
 781:Generated_Source\PSoC4/ADC_SAR_Seq_1.c **** 
 782:Generated_Source\PSoC4/ADC_SAR_Seq_1.c ****     /*******************************************************************************
 783:Generated_Source\PSoC4/ADC_SAR_Seq_1.c ****     * Function Name: ADC_SAR_Seq_1_CountsTo_uVolts
 784:Generated_Source\PSoC4/ADC_SAR_Seq_1.c ****     ********************************************************************************
 785:Generated_Source\PSoC4/ADC_SAR_Seq_1.c ****     *
 786:Generated_Source\PSoC4/ADC_SAR_Seq_1.c ****     * Summary:
 787:Generated_Source\PSoC4/ADC_SAR_Seq_1.c ****     *  This function converts ADC counts to micro Volts
 788:Generated_Source\PSoC4/ADC_SAR_Seq_1.c ****     *  This function is not available when left data format justification selected.
 789:Generated_Source\PSoC4/ADC_SAR_Seq_1.c ****     *
 790:Generated_Source\PSoC4/ADC_SAR_Seq_1.c ****     * Parameters:
 791:Generated_Source\PSoC4/ADC_SAR_Seq_1.c ****     *  chan: The ADC channel number.
 792:Generated_Source\PSoC4/ADC_SAR_Seq_1.c ****     *  adcCounts: Result from the ADC conversion
 793:Generated_Source\PSoC4/ADC_SAR_Seq_1.c ****     *
 794:Generated_Source\PSoC4/ADC_SAR_Seq_1.c ****     * Return:
 795:Generated_Source\PSoC4/ADC_SAR_Seq_1.c ****     *  Results in uVolts
 796:Generated_Source\PSoC4/ADC_SAR_Seq_1.c ****     *
 797:Generated_Source\PSoC4/ADC_SAR_Seq_1.c ****     * Global variables:
 798:Generated_Source\PSoC4/ADC_SAR_Seq_1.c ****     *  ADC_SAR_Seq_1_countsPer10Volt:  used to convert ADC counts to uVolts.
 799:Generated_Source\PSoC4/ADC_SAR_Seq_1.c ****     *  ADC_SAR_Seq_1_Offset:  Used as the offset while converting ADC counts
 800:Generated_Source\PSoC4/ADC_SAR_Seq_1.c ****     *   to mVolts.
 801:Generated_Source\PSoC4/ADC_SAR_Seq_1.c ****     *
 802:Generated_Source\PSoC4/ADC_SAR_Seq_1.c ****     * Theory:
 803:Generated_Source\PSoC4/ADC_SAR_Seq_1.c ****     *  Care must be taken to not exceed the maximum value for a 31 bit signed
 804:Generated_Source\PSoC4/ADC_SAR_Seq_1.c ****     *  number in the conversion to uVolts and at the same time not loose
 805:Generated_Source\PSoC4/ADC_SAR_Seq_1.c ****     *  resolution.
 806:Generated_Source\PSoC4/ADC_SAR_Seq_1.c ****     *  To convert adcCounts to microVolts it is required to be multiplied
 807:Generated_Source\PSoC4/ADC_SAR_Seq_1.c ****     *  on 10 million and later divide on gain in counts per 10V.
 808:Generated_Source\PSoC4/ADC_SAR_Seq_1.c ****     *
 809:Generated_Source\PSoC4/ADC_SAR_Seq_1.c ****     *******************************************************************************/
 810:Generated_Source\PSoC4/ADC_SAR_Seq_1.c ****     int32 ADC_SAR_Seq_1_CountsTo_uVolts(uint32 chan, int16 adcCounts)
 811:Generated_Source\PSoC4/ADC_SAR_Seq_1.c ****     {
 885              		.loc 1 811 0
 886              		.cfi_startproc
ARM GAS  C:\Users\Nick\AppData\Local\Temp\cc6ZAR9j.s 			page 31


 887              	.LVL67:
 888 0000 38B5     		push	{r3, r4, r5, lr}
 889              		.cfi_def_cfa_offset 16
 890              		.cfi_offset 3, -16
 891              		.cfi_offset 4, -12
 892              		.cfi_offset 5, -8
 893              		.cfi_offset 14, -4
 894 0002 051C     		mov	r5, r0
 895 0004 0C1C     		mov	r4, r1
 812:Generated_Source\PSoC4/ADC_SAR_Seq_1.c ****         int64 uVolts;
 813:Generated_Source\PSoC4/ADC_SAR_Seq_1.c **** 
 814:Generated_Source\PSoC4/ADC_SAR_Seq_1.c ****         /* Halt CPU in debug mode if channel is out of valid range */
 815:Generated_Source\PSoC4/ADC_SAR_Seq_1.c ****         CYASSERT(chan < ADC_SAR_Seq_1_TOTAL_CHANNELS_NUM);
 896              		.loc 1 815 0
 897 0006 0328     		cmp	r0, #3
 898 0008 02D9     		bls	.L75
 899              		.loc 1 815 0 is_stmt 0 discriminator 1
 900 000a 0020     		mov	r0, #0
 901              	.LVL68:
 902 000c FFF7FEFF 		bl	CyHalt
 903              	.LVL69:
 904              	.L75:
 816:Generated_Source\PSoC4/ADC_SAR_Seq_1.c **** 
 817:Generated_Source\PSoC4/ADC_SAR_Seq_1.c ****         /* Divide the adcCount when accumulate averaging mode selected */
 818:Generated_Source\PSoC4/ADC_SAR_Seq_1.c ****         #if(ADC_SAR_Seq_1_DEFAULT_AVG_MODE == ADC_SAR_Seq_1__ACCUMULATE)
 819:Generated_Source\PSoC4/ADC_SAR_Seq_1.c ****             if((ADC_SAR_Seq_1_channelsConfig[chan] & ADC_SAR_Seq_1_AVERAGING_EN) != 0u)
 820:Generated_Source\PSoC4/ADC_SAR_Seq_1.c ****             {
 821:Generated_Source\PSoC4/ADC_SAR_Seq_1.c ****                 adcCounts /= ADC_SAR_Seq_1_DEFAULT_AVG_SAMPLES_DIV;
 822:Generated_Source\PSoC4/ADC_SAR_Seq_1.c ****             }
 823:Generated_Source\PSoC4/ADC_SAR_Seq_1.c ****         #endif /* ADC_SAR_Seq_1_DEFAULT_AVG_MODE == ADC_SAR_Seq_1__ACCUMULATE */
 824:Generated_Source\PSoC4/ADC_SAR_Seq_1.c **** 
 825:Generated_Source\PSoC4/ADC_SAR_Seq_1.c ****         /* Subtract ADC offset */
 826:Generated_Source\PSoC4/ADC_SAR_Seq_1.c ****         adcCounts -= ADC_SAR_Seq_1_offset[chan];
 905              		.loc 1 826 0 is_stmt 1
 906 0010 6A00     		lsl	r2, r5, #1
 907 0012 084B     		ldr	r3, .L76
 908 0014 D05A     		ldrh	r0, [r2, r3]
 909 0016 201A     		sub	r0, r4, r0
 910 0018 00B2     		sxth	r0, r0
 911              	.LVL70:
 827:Generated_Source\PSoC4/ADC_SAR_Seq_1.c **** 
 828:Generated_Source\PSoC4/ADC_SAR_Seq_1.c ****         uVolts = ((int64)adcCounts * ADC_SAR_Seq_1_10UV_COUNTS) / ADC_SAR_Seq_1_countsPer10Volt[cha
 912              		.loc 1 828 0
 913 001a C117     		asr	r1, r0, #31
 914 001c 064A     		ldr	r2, .L76+4
 915 001e 0023     		mov	r3, #0
 916 0020 FFF7FEFF 		bl	__aeabi_lmul
 917              	.LVL71:
 918 0024 AD00     		lsl	r5, r5, #2
 919              	.LVL72:
 920 0026 054B     		ldr	r3, .L76+8
 921 0028 EA58     		ldr	r2, [r5, r3]
 922 002a D317     		asr	r3, r2, #31
 923 002c FFF7FEFF 		bl	__aeabi_ldivmod
 924              	.LVL73:
 829:Generated_Source\PSoC4/ADC_SAR_Seq_1.c **** 
 830:Generated_Source\PSoC4/ADC_SAR_Seq_1.c ****         return( (int32)uVolts );
ARM GAS  C:\Users\Nick\AppData\Local\Temp\cc6ZAR9j.s 			page 32


 831:Generated_Source\PSoC4/ADC_SAR_Seq_1.c ****     }
 925              		.loc 1 831 0
 926              		@ sp needed
 927 0030 38BD     		pop	{r3, r4, r5, pc}
 928              	.L77:
 929 0032 C046     		.align	2
 930              	.L76:
 931 0034 00000000 		.word	ADC_SAR_Seq_1_offset
 932 0038 80969800 		.word	10000000
 933 003c 00000000 		.word	ADC_SAR_Seq_1_countsPer10Volt
 934              		.cfi_endproc
 935              	.LFE18:
 936              		.size	ADC_SAR_Seq_1_CountsTo_uVolts, .-ADC_SAR_Seq_1_CountsTo_uVolts
 937              		.global	__aeabi_i2f
 938              		.global	__aeabi_fmul
 939              		.global	__aeabi_fdiv
 940              		.section	.text.ADC_SAR_Seq_1_CountsTo_Volts,"ax",%progbits
 941              		.align	2
 942              		.global	ADC_SAR_Seq_1_CountsTo_Volts
 943              		.code	16
 944              		.thumb_func
 945              		.type	ADC_SAR_Seq_1_CountsTo_Volts, %function
 946              	ADC_SAR_Seq_1_CountsTo_Volts:
 947              	.LFB19:
 832:Generated_Source\PSoC4/ADC_SAR_Seq_1.c **** 
 833:Generated_Source\PSoC4/ADC_SAR_Seq_1.c **** 
 834:Generated_Source\PSoC4/ADC_SAR_Seq_1.c ****     /*******************************************************************************
 835:Generated_Source\PSoC4/ADC_SAR_Seq_1.c ****     * Function Name: ADC_SAR_Seq_1_CountsTo_Volts
 836:Generated_Source\PSoC4/ADC_SAR_Seq_1.c ****     ********************************************************************************
 837:Generated_Source\PSoC4/ADC_SAR_Seq_1.c ****     *
 838:Generated_Source\PSoC4/ADC_SAR_Seq_1.c ****     * Summary:
 839:Generated_Source\PSoC4/ADC_SAR_Seq_1.c ****     *  Converts the ADC output to Volts as a floating point number.
 840:Generated_Source\PSoC4/ADC_SAR_Seq_1.c ****     *  This function is not available when left data format justification selected.
 841:Generated_Source\PSoC4/ADC_SAR_Seq_1.c ****     *
 842:Generated_Source\PSoC4/ADC_SAR_Seq_1.c ****     * Parameters:
 843:Generated_Source\PSoC4/ADC_SAR_Seq_1.c ****     *  chan: The ADC channel number.
 844:Generated_Source\PSoC4/ADC_SAR_Seq_1.c ****     *  Result from the ADC conversion
 845:Generated_Source\PSoC4/ADC_SAR_Seq_1.c ****     *
 846:Generated_Source\PSoC4/ADC_SAR_Seq_1.c ****     * Return:
 847:Generated_Source\PSoC4/ADC_SAR_Seq_1.c ****     *  Results in Volts
 848:Generated_Source\PSoC4/ADC_SAR_Seq_1.c ****     *
 849:Generated_Source\PSoC4/ADC_SAR_Seq_1.c ****     * Global variables:
 850:Generated_Source\PSoC4/ADC_SAR_Seq_1.c ****     *  ADC_SAR_Seq_1_countsPer10Volt:  used to convert ADC counts to Volts.
 851:Generated_Source\PSoC4/ADC_SAR_Seq_1.c ****     *  ADC_SAR_Seq_1_Offset:  Used as the offset while converting ADC counts
 852:Generated_Source\PSoC4/ADC_SAR_Seq_1.c ****     *   to mVolts.
 853:Generated_Source\PSoC4/ADC_SAR_Seq_1.c ****     *
 854:Generated_Source\PSoC4/ADC_SAR_Seq_1.c ****     *******************************************************************************/
 855:Generated_Source\PSoC4/ADC_SAR_Seq_1.c ****     float32 ADC_SAR_Seq_1_CountsTo_Volts(uint32 chan, int16 adcCounts)
 856:Generated_Source\PSoC4/ADC_SAR_Seq_1.c ****     {
 948              		.loc 1 856 0
 949              		.cfi_startproc
 950              	.LVL74:
 951 0000 38B5     		push	{r3, r4, r5, lr}
 952              		.cfi_def_cfa_offset 16
 953              		.cfi_offset 3, -16
 954              		.cfi_offset 4, -12
 955              		.cfi_offset 5, -8
ARM GAS  C:\Users\Nick\AppData\Local\Temp\cc6ZAR9j.s 			page 33


 956              		.cfi_offset 14, -4
 957 0002 041C     		mov	r4, r0
 958 0004 0D1C     		mov	r5, r1
 857:Generated_Source\PSoC4/ADC_SAR_Seq_1.c ****         float32 volts;
 858:Generated_Source\PSoC4/ADC_SAR_Seq_1.c **** 
 859:Generated_Source\PSoC4/ADC_SAR_Seq_1.c ****         /* Halt CPU in debug mode if channel is out of valid range */
 860:Generated_Source\PSoC4/ADC_SAR_Seq_1.c ****         CYASSERT(chan < ADC_SAR_Seq_1_TOTAL_CHANNELS_NUM);
 959              		.loc 1 860 0
 960 0006 0328     		cmp	r0, #3
 961 0008 02D9     		bls	.L79
 962              		.loc 1 860 0 is_stmt 0 discriminator 1
 963 000a 0020     		mov	r0, #0
 964              	.LVL75:
 965 000c FFF7FEFF 		bl	CyHalt
 966              	.LVL76:
 967              	.L79:
 861:Generated_Source\PSoC4/ADC_SAR_Seq_1.c **** 
 862:Generated_Source\PSoC4/ADC_SAR_Seq_1.c ****         /* Divide the adcCount when accumulate averaging mode selected */
 863:Generated_Source\PSoC4/ADC_SAR_Seq_1.c ****         #if(ADC_SAR_Seq_1_DEFAULT_AVG_MODE == ADC_SAR_Seq_1__ACCUMULATE)
 864:Generated_Source\PSoC4/ADC_SAR_Seq_1.c ****             if((ADC_SAR_Seq_1_channelsConfig[chan] & ADC_SAR_Seq_1_AVERAGING_EN) != 0u)
 865:Generated_Source\PSoC4/ADC_SAR_Seq_1.c ****             {
 866:Generated_Source\PSoC4/ADC_SAR_Seq_1.c ****                 adcCounts /= ADC_SAR_Seq_1_DEFAULT_AVG_SAMPLES_DIV;
 867:Generated_Source\PSoC4/ADC_SAR_Seq_1.c ****             }
 868:Generated_Source\PSoC4/ADC_SAR_Seq_1.c ****         #endif /* ADC_SAR_Seq_1_DEFAULT_AVG_MODE == ADC_SAR_Seq_1__ACCUMULATE */
 869:Generated_Source\PSoC4/ADC_SAR_Seq_1.c **** 
 870:Generated_Source\PSoC4/ADC_SAR_Seq_1.c ****         /* Subtract ADC offset */
 871:Generated_Source\PSoC4/ADC_SAR_Seq_1.c ****         adcCounts -= ADC_SAR_Seq_1_offset[chan];
 968              		.loc 1 871 0 is_stmt 1
 969 0010 6200     		lsl	r2, r4, #1
 970 0012 0A4B     		ldr	r3, .L80
 971 0014 D05A     		ldrh	r0, [r2, r3]
 972 0016 281A     		sub	r0, r5, r0
 973 0018 00B2     		sxth	r0, r0
 974              	.LVL77:
 872:Generated_Source\PSoC4/ADC_SAR_Seq_1.c **** 
 873:Generated_Source\PSoC4/ADC_SAR_Seq_1.c ****         volts = ((float32)adcCounts * ADC_SAR_Seq_1_10V_COUNTS) / (float32)ADC_SAR_Seq_1_countsPer1
 975              		.loc 1 873 0
 976 001a FFF7FEFF 		bl	__aeabi_i2f
 977              	.LVL78:
 978 001e 0849     		ldr	r1, .L80+4
 979 0020 FFF7FEFF 		bl	__aeabi_fmul
 980              	.LVL79:
 981 0024 051C     		add	r5, r0, #0
 982 0026 A400     		lsl	r4, r4, #2
 983              	.LVL80:
 984 0028 064B     		ldr	r3, .L80+8
 985 002a E058     		ldr	r0, [r4, r3]
 986 002c FFF7FEFF 		bl	__aeabi_i2f
 987              	.LVL81:
 988 0030 011C     		add	r1, r0, #0
 989 0032 281C     		add	r0, r5, #0
 990 0034 FFF7FEFF 		bl	__aeabi_fdiv
 991              	.LVL82:
 874:Generated_Source\PSoC4/ADC_SAR_Seq_1.c **** 
 875:Generated_Source\PSoC4/ADC_SAR_Seq_1.c ****         return( volts );
 876:Generated_Source\PSoC4/ADC_SAR_Seq_1.c ****     }
 992              		.loc 1 876 0
ARM GAS  C:\Users\Nick\AppData\Local\Temp\cc6ZAR9j.s 			page 34


 993              		@ sp needed
 994 0038 38BD     		pop	{r3, r4, r5, pc}
 995              	.L81:
 996 003a C046     		.align	2
 997              	.L80:
 998 003c 00000000 		.word	ADC_SAR_Seq_1_offset
 999 0040 00002041 		.word	1092616192
 1000 0044 00000000 		.word	ADC_SAR_Seq_1_countsPer10Volt
 1001              		.cfi_endproc
 1002              	.LFE19:
 1003              		.size	ADC_SAR_Seq_1_CountsTo_Volts, .-ADC_SAR_Seq_1_CountsTo_Volts
 1004              		.comm	ADC_SAR_Seq_1_countsPer10Volt,16,4
 1005              		.comm	ADC_SAR_Seq_1_offset,8,4
 1006              		.global	ADC_SAR_Seq_1_initVar
 1007              		.section	.rodata
 1008              		.align	2
 1009              		.set	.LANCHOR0,. + 0
 1010              		.type	ADC_SAR_Seq_1_channelsConfig, %object
 1011              		.size	ADC_SAR_Seq_1_channelsConfig, 16
 1012              	ADC_SAR_Seq_1_channelsConfig:
 1013 0000 00000000 		.space	16
 1013      00000000 
 1013      00000000 
 1013      00000000 
 1014              		.type	ADC_SAR_Seq_1_InputsPlacement.4768, %object
 1015              		.size	ADC_SAR_Seq_1_InputsPlacement.4768, 4
 1016              	ADC_SAR_Seq_1_InputsPlacement.4768:
 1017 0010 00       		.byte	0
 1018 0011 01       		.byte	1
 1019 0012 02       		.byte	2
 1020 0013 03       		.byte	3
 1021              		.bss
 1022              		.set	.LANCHOR1,. + 0
 1023              		.type	ADC_SAR_Seq_1_initVar, %object
 1024              		.size	ADC_SAR_Seq_1_initVar, 1
 1025              	ADC_SAR_Seq_1_initVar:
 1026 0000 00       		.space	1
 1027              		.text
 1028              	.Letext0:
 1029              		.file 2 "Generated_Source\\PSoC4\\cytypes.h"
 1030              		.file 3 "Generated_Source\\PSoC4\\CyLib.h"