ARM GAS  C:\Users\Nick\AppData\Local\Temp\ccMasM73.s 			page 1


   1              		.cpu cortex-m0
   2              		.fpu softvfp
   3              		.eabi_attribute 20, 1
   4              		.eabi_attribute 21, 1
   5              		.eabi_attribute 23, 3
   6              		.eabi_attribute 24, 1
   7              		.eabi_attribute 25, 1
   8              		.eabi_attribute 26, 1
   9              		.eabi_attribute 30, 1
  10              		.eabi_attribute 34, 0
  11              		.eabi_attribute 18, 4
  12              		.code	16
  13              		.file	"cyfitter_cfg.c"
  14              		.text
  15              	.Ltext0:
  16              		.cfi_sections	.debug_frame
  17              		.section	.text.cfg_write_bytes32,"ax",%progbits
  18              		.align	2
  19              		.code	16
  20              		.thumb_func
  21              		.type	cfg_write_bytes32, %function
  22              	cfg_write_bytes32:
  23              	.LFB5:
  24              		.file 1 "Generated_Source\\PSoC4\\cyfitter_cfg.c"
   1:Generated_Source\PSoC4/cyfitter_cfg.c **** /*******************************************************************************
   2:Generated_Source\PSoC4/cyfitter_cfg.c **** * File Name: cyfitter_cfg.c
   3:Generated_Source\PSoC4/cyfitter_cfg.c **** * 
   4:Generated_Source\PSoC4/cyfitter_cfg.c **** * PSoC Creator  4.0
   5:Generated_Source\PSoC4/cyfitter_cfg.c **** *
   6:Generated_Source\PSoC4/cyfitter_cfg.c **** * Description:
   7:Generated_Source\PSoC4/cyfitter_cfg.c **** * This file contains device initialization code.
   8:Generated_Source\PSoC4/cyfitter_cfg.c **** * Except for the user defined sections in CyClockStartupError(), this file should not be modified.
   9:Generated_Source\PSoC4/cyfitter_cfg.c **** * This file is automatically generated by PSoC Creator.
  10:Generated_Source\PSoC4/cyfitter_cfg.c **** *
  11:Generated_Source\PSoC4/cyfitter_cfg.c **** ********************************************************************************
  12:Generated_Source\PSoC4/cyfitter_cfg.c **** * Copyright (c) 2007-2016 Cypress Semiconductor.  All rights reserved.
  13:Generated_Source\PSoC4/cyfitter_cfg.c **** * You may use this file only in accordance with the license, terms, conditions, 
  14:Generated_Source\PSoC4/cyfitter_cfg.c **** * disclaimers, and limitations in the end user license agreement accompanying 
  15:Generated_Source\PSoC4/cyfitter_cfg.c **** * the software package with which this file was provided.
  16:Generated_Source\PSoC4/cyfitter_cfg.c **** ********************************************************************************/
  17:Generated_Source\PSoC4/cyfitter_cfg.c **** 
  18:Generated_Source\PSoC4/cyfitter_cfg.c **** #include <string.h>
  19:Generated_Source\PSoC4/cyfitter_cfg.c **** #include "cytypes.h"
  20:Generated_Source\PSoC4/cyfitter_cfg.c **** #include "cydevice_trm.h"
  21:Generated_Source\PSoC4/cyfitter_cfg.c **** #include "cyfitter.h"
  22:Generated_Source\PSoC4/cyfitter_cfg.c **** #include "CyLib.h"
  23:Generated_Source\PSoC4/cyfitter_cfg.c **** #include "cyfitter_cfg.h"
  24:Generated_Source\PSoC4/cyfitter_cfg.c **** #include "cyapicallbacks.h"
  25:Generated_Source\PSoC4/cyfitter_cfg.c **** 
  26:Generated_Source\PSoC4/cyfitter_cfg.c **** 
  27:Generated_Source\PSoC4/cyfitter_cfg.c **** #if defined(__GNUC__) || defined(__ARMCC_VERSION)
  28:Generated_Source\PSoC4/cyfitter_cfg.c ****     #define CYPACKED 
  29:Generated_Source\PSoC4/cyfitter_cfg.c ****     #define CYPACKED_ATTR __attribute__ ((packed))
  30:Generated_Source\PSoC4/cyfitter_cfg.c ****     #define CYALIGNED __attribute__ ((aligned))
  31:Generated_Source\PSoC4/cyfitter_cfg.c ****     #define CY_CFG_UNUSED __attribute__ ((unused))
  32:Generated_Source\PSoC4/cyfitter_cfg.c ****     #ifndef CY_CFG_SECTION
  33:Generated_Source\PSoC4/cyfitter_cfg.c ****         #define CY_CFG_SECTION __attribute__ ((section(".psocinit")))
ARM GAS  C:\Users\Nick\AppData\Local\Temp\ccMasM73.s 			page 2


  34:Generated_Source\PSoC4/cyfitter_cfg.c ****     #endif
  35:Generated_Source\PSoC4/cyfitter_cfg.c ****     
  36:Generated_Source\PSoC4/cyfitter_cfg.c ****     #if defined(__ARMCC_VERSION)
  37:Generated_Source\PSoC4/cyfitter_cfg.c ****         #define CY_CFG_MEMORY_BARRIER() __memory_changed()
  38:Generated_Source\PSoC4/cyfitter_cfg.c ****     #else
  39:Generated_Source\PSoC4/cyfitter_cfg.c ****         #define CY_CFG_MEMORY_BARRIER() __sync_synchronize()
  40:Generated_Source\PSoC4/cyfitter_cfg.c ****     #endif
  41:Generated_Source\PSoC4/cyfitter_cfg.c ****     
  42:Generated_Source\PSoC4/cyfitter_cfg.c **** #elif defined(__ICCARM__)
  43:Generated_Source\PSoC4/cyfitter_cfg.c ****     #include <intrinsics.h>
  44:Generated_Source\PSoC4/cyfitter_cfg.c **** 
  45:Generated_Source\PSoC4/cyfitter_cfg.c ****     #define CYPACKED __packed
  46:Generated_Source\PSoC4/cyfitter_cfg.c ****     #define CYPACKED_ATTR 
  47:Generated_Source\PSoC4/cyfitter_cfg.c ****     #define CYALIGNED _Pragma("data_alignment=4")
  48:Generated_Source\PSoC4/cyfitter_cfg.c ****     #define CY_CFG_UNUSED _Pragma("diag_suppress=Pe177")
  49:Generated_Source\PSoC4/cyfitter_cfg.c ****     #define CY_CFG_SECTION _Pragma("location=\".psocinit\"")
  50:Generated_Source\PSoC4/cyfitter_cfg.c ****     
  51:Generated_Source\PSoC4/cyfitter_cfg.c ****     #define CY_CFG_MEMORY_BARRIER() __DMB()
  52:Generated_Source\PSoC4/cyfitter_cfg.c ****     
  53:Generated_Source\PSoC4/cyfitter_cfg.c **** #else
  54:Generated_Source\PSoC4/cyfitter_cfg.c ****     #error Unsupported toolchain
  55:Generated_Source\PSoC4/cyfitter_cfg.c **** #endif
  56:Generated_Source\PSoC4/cyfitter_cfg.c **** 
  57:Generated_Source\PSoC4/cyfitter_cfg.c **** 
  58:Generated_Source\PSoC4/cyfitter_cfg.c **** CY_CFG_UNUSED
  59:Generated_Source\PSoC4/cyfitter_cfg.c **** static void CYMEMZERO(void *s, size_t n);
  60:Generated_Source\PSoC4/cyfitter_cfg.c **** CY_CFG_UNUSED
  61:Generated_Source\PSoC4/cyfitter_cfg.c **** static void CYMEMZERO(void *s, size_t n)
  62:Generated_Source\PSoC4/cyfitter_cfg.c **** {
  63:Generated_Source\PSoC4/cyfitter_cfg.c **** 	(void)memset(s, 0, n);
  64:Generated_Source\PSoC4/cyfitter_cfg.c **** }
  65:Generated_Source\PSoC4/cyfitter_cfg.c **** CY_CFG_UNUSED
  66:Generated_Source\PSoC4/cyfitter_cfg.c **** static void CYCONFIGCPY(void *dest, const void *src, size_t n);
  67:Generated_Source\PSoC4/cyfitter_cfg.c **** CY_CFG_UNUSED
  68:Generated_Source\PSoC4/cyfitter_cfg.c **** static void CYCONFIGCPY(void *dest, const void *src, size_t n)
  69:Generated_Source\PSoC4/cyfitter_cfg.c **** {
  70:Generated_Source\PSoC4/cyfitter_cfg.c **** 	(void)memcpy(dest, src, n);
  71:Generated_Source\PSoC4/cyfitter_cfg.c **** }
  72:Generated_Source\PSoC4/cyfitter_cfg.c **** CY_CFG_UNUSED
  73:Generated_Source\PSoC4/cyfitter_cfg.c **** static void CYCONFIGCPYCODE(void *dest, const void *src, size_t n);
  74:Generated_Source\PSoC4/cyfitter_cfg.c **** CY_CFG_UNUSED
  75:Generated_Source\PSoC4/cyfitter_cfg.c **** static void CYCONFIGCPYCODE(void *dest, const void *src, size_t n)
  76:Generated_Source\PSoC4/cyfitter_cfg.c **** {
  77:Generated_Source\PSoC4/cyfitter_cfg.c **** 	(void)memcpy(dest, src, n);
  78:Generated_Source\PSoC4/cyfitter_cfg.c **** }
  79:Generated_Source\PSoC4/cyfitter_cfg.c **** 
  80:Generated_Source\PSoC4/cyfitter_cfg.c **** 
  81:Generated_Source\PSoC4/cyfitter_cfg.c **** 
  82:Generated_Source\PSoC4/cyfitter_cfg.c **** 
  83:Generated_Source\PSoC4/cyfitter_cfg.c **** /* Clock startup error codes                                                   */
  84:Generated_Source\PSoC4/cyfitter_cfg.c **** #define CYCLOCKSTART_NO_ERROR    0u
  85:Generated_Source\PSoC4/cyfitter_cfg.c **** #define CYCLOCKSTART_XTAL_ERROR  1u
  86:Generated_Source\PSoC4/cyfitter_cfg.c **** #define CYCLOCKSTART_32KHZ_ERROR 2u
  87:Generated_Source\PSoC4/cyfitter_cfg.c **** #define CYCLOCKSTART_PLL_ERROR   3u
  88:Generated_Source\PSoC4/cyfitter_cfg.c **** 
  89:Generated_Source\PSoC4/cyfitter_cfg.c **** 
  90:Generated_Source\PSoC4/cyfitter_cfg.c **** #ifdef CY_NEED_CYCLOCKSTARTUPERROR
ARM GAS  C:\Users\Nick\AppData\Local\Temp\ccMasM73.s 			page 3


  91:Generated_Source\PSoC4/cyfitter_cfg.c **** /*******************************************************************************
  92:Generated_Source\PSoC4/cyfitter_cfg.c **** * Function Name: CyClockStartupError
  93:Generated_Source\PSoC4/cyfitter_cfg.c **** ********************************************************************************
  94:Generated_Source\PSoC4/cyfitter_cfg.c **** * Summary:
  95:Generated_Source\PSoC4/cyfitter_cfg.c **** *  If an error is encountered during clock configuration (crystal startup error,
  96:Generated_Source\PSoC4/cyfitter_cfg.c **** *  PLL lock error, etc.), the system will end up here.  Unless reimplemented by
  97:Generated_Source\PSoC4/cyfitter_cfg.c **** *  the customer, this function will stop in an infinite loop.
  98:Generated_Source\PSoC4/cyfitter_cfg.c **** *
  99:Generated_Source\PSoC4/cyfitter_cfg.c **** * Parameters:
 100:Generated_Source\PSoC4/cyfitter_cfg.c **** *   void
 101:Generated_Source\PSoC4/cyfitter_cfg.c **** *
 102:Generated_Source\PSoC4/cyfitter_cfg.c **** * Return:
 103:Generated_Source\PSoC4/cyfitter_cfg.c **** *   void
 104:Generated_Source\PSoC4/cyfitter_cfg.c **** *
 105:Generated_Source\PSoC4/cyfitter_cfg.c **** *******************************************************************************/
 106:Generated_Source\PSoC4/cyfitter_cfg.c **** CY_CFG_UNUSED
 107:Generated_Source\PSoC4/cyfitter_cfg.c **** static void CyClockStartupError(uint8 errorCode);
 108:Generated_Source\PSoC4/cyfitter_cfg.c **** CY_CFG_UNUSED
 109:Generated_Source\PSoC4/cyfitter_cfg.c **** static void CyClockStartupError(uint8 errorCode)
 110:Generated_Source\PSoC4/cyfitter_cfg.c **** {
 111:Generated_Source\PSoC4/cyfitter_cfg.c ****     /* To remove the compiler warning if errorCode not used.                */
 112:Generated_Source\PSoC4/cyfitter_cfg.c ****     errorCode = errorCode;
 113:Generated_Source\PSoC4/cyfitter_cfg.c **** 
 114:Generated_Source\PSoC4/cyfitter_cfg.c ****     /* If we have a clock startup error (bad MHz crystal, PLL lock, etc.),  */
 115:Generated_Source\PSoC4/cyfitter_cfg.c ****     /* we will end up here to allow the customer to implement something to  */
 116:Generated_Source\PSoC4/cyfitter_cfg.c ****     /* deal with the clock condition.                                       */
 117:Generated_Source\PSoC4/cyfitter_cfg.c **** 
 118:Generated_Source\PSoC4/cyfitter_cfg.c **** #ifdef CY_CFG_CLOCK_STARTUP_ERROR_CALLBACK
 119:Generated_Source\PSoC4/cyfitter_cfg.c **** 	CY_CFG_Clock_Startup_ErrorCallback();
 120:Generated_Source\PSoC4/cyfitter_cfg.c **** #else
 121:Generated_Source\PSoC4/cyfitter_cfg.c **** 	/*  If not using CY_CFG_CLOCK_STARTUP_ERROR_CALLBACK, place your clock startup code here. */
 122:Generated_Source\PSoC4/cyfitter_cfg.c ****     /* `#START CyClockStartupError` */
 123:Generated_Source\PSoC4/cyfitter_cfg.c **** 
 124:Generated_Source\PSoC4/cyfitter_cfg.c ****     /* If we have a clock startup error (bad MHz crystal, PLL lock, etc.),  */
 125:Generated_Source\PSoC4/cyfitter_cfg.c ****     /* we will end up here to allow the customer to implement something to  */
 126:Generated_Source\PSoC4/cyfitter_cfg.c ****     /* deal with the clock condition.                                       */
 127:Generated_Source\PSoC4/cyfitter_cfg.c **** 
 128:Generated_Source\PSoC4/cyfitter_cfg.c ****     /* `#END` */
 129:Generated_Source\PSoC4/cyfitter_cfg.c **** 
 130:Generated_Source\PSoC4/cyfitter_cfg.c ****     /* If nothing else, stop here since the clocks have not started         */
 131:Generated_Source\PSoC4/cyfitter_cfg.c ****     /* correctly.                                                           */
 132:Generated_Source\PSoC4/cyfitter_cfg.c ****     while(1) {}
 133:Generated_Source\PSoC4/cyfitter_cfg.c **** #endif /* CY_CFG_CLOCK_STARTUP_ERROR_CALLBACK */ 
 134:Generated_Source\PSoC4/cyfitter_cfg.c **** }
 135:Generated_Source\PSoC4/cyfitter_cfg.c **** #endif
 136:Generated_Source\PSoC4/cyfitter_cfg.c **** 
 137:Generated_Source\PSoC4/cyfitter_cfg.c **** #define CY_CFG_BASE_ADDR_COUNT 8u
 138:Generated_Source\PSoC4/cyfitter_cfg.c **** CYPACKED typedef struct
 139:Generated_Source\PSoC4/cyfitter_cfg.c **** {
 140:Generated_Source\PSoC4/cyfitter_cfg.c **** 	uint8 offset;
 141:Generated_Source\PSoC4/cyfitter_cfg.c **** 	uint8 value;
 142:Generated_Source\PSoC4/cyfitter_cfg.c **** } CYPACKED_ATTR cy_cfg_addrvalue_t;
 143:Generated_Source\PSoC4/cyfitter_cfg.c **** 
 144:Generated_Source\PSoC4/cyfitter_cfg.c **** 
 145:Generated_Source\PSoC4/cyfitter_cfg.c **** 
 146:Generated_Source\PSoC4/cyfitter_cfg.c **** /*******************************************************************************
 147:Generated_Source\PSoC4/cyfitter_cfg.c **** * Function Name: cfg_write_bytes32
ARM GAS  C:\Users\Nick\AppData\Local\Temp\ccMasM73.s 			page 4


 148:Generated_Source\PSoC4/cyfitter_cfg.c **** ********************************************************************************
 149:Generated_Source\PSoC4/cyfitter_cfg.c **** * Summary:
 150:Generated_Source\PSoC4/cyfitter_cfg.c **** *  This function is used for setting up the chip configuration areas that
 151:Generated_Source\PSoC4/cyfitter_cfg.c **** *  contain relatively sparse data.
 152:Generated_Source\PSoC4/cyfitter_cfg.c **** *
 153:Generated_Source\PSoC4/cyfitter_cfg.c **** * Parameters:
 154:Generated_Source\PSoC4/cyfitter_cfg.c **** *   void
 155:Generated_Source\PSoC4/cyfitter_cfg.c **** *
 156:Generated_Source\PSoC4/cyfitter_cfg.c **** * Return:
 157:Generated_Source\PSoC4/cyfitter_cfg.c **** *   void
 158:Generated_Source\PSoC4/cyfitter_cfg.c **** *
 159:Generated_Source\PSoC4/cyfitter_cfg.c **** *******************************************************************************/
 160:Generated_Source\PSoC4/cyfitter_cfg.c **** static void cfg_write_bytes32(const uint32 addr_table[], const cy_cfg_addrvalue_t data_table[]);
 161:Generated_Source\PSoC4/cyfitter_cfg.c **** static void cfg_write_bytes32(const uint32 addr_table[], const cy_cfg_addrvalue_t data_table[])
 162:Generated_Source\PSoC4/cyfitter_cfg.c **** {
  25              		.loc 1 162 0
  26              		.cfi_startproc
  27              	.LVL0:
  28 0000 F0B5     		push	{r4, r5, r6, r7, lr}
  29              		.cfi_def_cfa_offset 20
  30              		.cfi_offset 4, -20
  31              		.cfi_offset 5, -16
  32              		.cfi_offset 6, -12
  33              		.cfi_offset 7, -8
  34              		.cfi_offset 14, -4
  35              	.LVL1:
 163:Generated_Source\PSoC4/cyfitter_cfg.c **** 	/* For 32-bit little-endian architectures */
 164:Generated_Source\PSoC4/cyfitter_cfg.c **** 	uint32 i, j = 0u;
  36              		.loc 1 164 0
  37 0002 0025     		mov	r5, #0
 165:Generated_Source\PSoC4/cyfitter_cfg.c **** 	for (i = 0u; i < CY_CFG_BASE_ADDR_COUNT; i++)
  38              		.loc 1 165 0
  39 0004 0027     		mov	r7, #0
  40 0006 11E0     		b	.L2
  41              	.LVL2:
  42              	.L5:
  43              	.LBB2:
 166:Generated_Source\PSoC4/cyfitter_cfg.c **** 	{
 167:Generated_Source\PSoC4/cyfitter_cfg.c **** 		uint32 baseAddr = addr_table[i];
  44              		.loc 1 167 0
  45 0008 BB00     		lsl	r3, r7, #2
  46 000a C658     		ldr	r6, [r0, r3]
  47              	.LVL3:
 168:Generated_Source\PSoC4/cyfitter_cfg.c **** 		uint8 count = (uint8)baseAddr;
  48              		.loc 1 168 0
  49 000c F3B2     		uxtb	r3, r6
  50              	.LVL4:
 169:Generated_Source\PSoC4/cyfitter_cfg.c **** 		baseAddr &= 0xFFFFFF00u;
  51              		.loc 1 169 0
  52 000e FF22     		mov	r2, #255
  53 0010 9643     		bic	r6, r2
  54              	.LVL5:
 170:Generated_Source\PSoC4/cyfitter_cfg.c **** 		while (count != 0u)
  55              		.loc 1 170 0
  56 0012 08E0     		b	.L3
  57              	.L4:
 171:Generated_Source\PSoC4/cyfitter_cfg.c **** 		{
ARM GAS  C:\Users\Nick\AppData\Local\Temp\ccMasM73.s 			page 5


 172:Generated_Source\PSoC4/cyfitter_cfg.c **** 			CY_SET_XTND_REG8((void CYFAR *)(baseAddr + data_table[j].offset), data_table[j].value);
  58              		.loc 1 172 0
  59 0014 6A00     		lsl	r2, r5, #1
  60 0016 8A18     		add	r2, r1, r2
  61 0018 1478     		ldrb	r4, [r2]
  62 001a A419     		add	r4, r4, r6
  63 001c 5278     		ldrb	r2, [r2, #1]
  64 001e 2270     		strb	r2, [r4]
 173:Generated_Source\PSoC4/cyfitter_cfg.c **** 			j++;
  65              		.loc 1 173 0
  66 0020 0135     		add	r5, r5, #1
  67              	.LVL6:
 174:Generated_Source\PSoC4/cyfitter_cfg.c **** 			count--;
  68              		.loc 1 174 0
  69 0022 013B     		sub	r3, r3, #1
  70              	.LVL7:
  71 0024 DBB2     		uxtb	r3, r3
  72              	.LVL8:
  73              	.L3:
 170:Generated_Source\PSoC4/cyfitter_cfg.c **** 		{
  74              		.loc 1 170 0
  75 0026 002B     		cmp	r3, #0
  76 0028 F4D1     		bne	.L4
  77              	.LBE2:
 165:Generated_Source\PSoC4/cyfitter_cfg.c **** 	{
  78              		.loc 1 165 0 discriminator 2
  79 002a 0137     		add	r7, r7, #1
  80              	.LVL9:
  81              	.L2:
 165:Generated_Source\PSoC4/cyfitter_cfg.c **** 	{
  82              		.loc 1 165 0 is_stmt 0 discriminator 1
  83 002c 072F     		cmp	r7, #7
  84 002e EBD9     		bls	.L5
 175:Generated_Source\PSoC4/cyfitter_cfg.c **** 		}
 176:Generated_Source\PSoC4/cyfitter_cfg.c **** 	}
 177:Generated_Source\PSoC4/cyfitter_cfg.c **** }
  85              		.loc 1 177 0 is_stmt 1
  86              		@ sp needed
  87              	.LVL10:
  88              	.LVL11:
  89 0030 F0BD     		pop	{r4, r5, r6, r7, pc}
  90              		.cfi_endproc
  91              	.LFE5:
  92              		.size	cfg_write_bytes32, .-cfg_write_bytes32
  93 0032 C046     		.section	.text.CYMEMZERO,"ax",%progbits
  94              		.align	2
  95              		.code	16
  96              		.thumb_func
  97              		.type	CYMEMZERO, %function
  98              	CYMEMZERO:
  99              	.LFB2:
  62:Generated_Source\PSoC4/cyfitter_cfg.c **** 	(void)memset(s, 0, n);
 100              		.loc 1 62 0
 101              		.cfi_startproc
 102              	.LVL12:
 103 0000 08B5     		push	{r3, lr}
 104              		.cfi_def_cfa_offset 8
ARM GAS  C:\Users\Nick\AppData\Local\Temp\ccMasM73.s 			page 6


 105              		.cfi_offset 3, -8
 106              		.cfi_offset 14, -4
 107 0002 0A1C     		mov	r2, r1
  63:Generated_Source\PSoC4/cyfitter_cfg.c **** }
 108              		.loc 1 63 0
 109 0004 0021     		mov	r1, #0
 110              	.LVL13:
 111 0006 FFF7FEFF 		bl	memset
 112              	.LVL14:
  64:Generated_Source\PSoC4/cyfitter_cfg.c **** CY_CFG_UNUSED
 113              		.loc 1 64 0
 114              		@ sp needed
 115 000a 08BD     		pop	{r3, pc}
 116              		.cfi_endproc
 117              	.LFE2:
 118              		.size	CYMEMZERO, .-CYMEMZERO
 119              		.section	.psocinit,"ax",%progbits
 120              		.align	2
 121              		.code	16
 122              		.thumb_func
 123              		.type	ClockSetup, %function
 124              	ClockSetup:
 125              	.LFB6:
 178:Generated_Source\PSoC4/cyfitter_cfg.c **** 
 179:Generated_Source\PSoC4/cyfitter_cfg.c **** 
 180:Generated_Source\PSoC4/cyfitter_cfg.c **** /*******************************************************************************
 181:Generated_Source\PSoC4/cyfitter_cfg.c **** * Function Name: ClockSetup
 182:Generated_Source\PSoC4/cyfitter_cfg.c **** ********************************************************************************
 183:Generated_Source\PSoC4/cyfitter_cfg.c **** *
 184:Generated_Source\PSoC4/cyfitter_cfg.c **** * Summary:
 185:Generated_Source\PSoC4/cyfitter_cfg.c **** *   Performs the initialization of all of the clocks in the device based on the
 186:Generated_Source\PSoC4/cyfitter_cfg.c **** *   settings in the Clock tab of the DWR.  This includes enabling the requested
 187:Generated_Source\PSoC4/cyfitter_cfg.c **** *   clocks and setting the necessary dividers to produce the desired frequency. 
 188:Generated_Source\PSoC4/cyfitter_cfg.c **** *
 189:Generated_Source\PSoC4/cyfitter_cfg.c **** * Parameters:
 190:Generated_Source\PSoC4/cyfitter_cfg.c **** *   void
 191:Generated_Source\PSoC4/cyfitter_cfg.c **** *
 192:Generated_Source\PSoC4/cyfitter_cfg.c **** * Return:
 193:Generated_Source\PSoC4/cyfitter_cfg.c **** *   void
 194:Generated_Source\PSoC4/cyfitter_cfg.c **** *
 195:Generated_Source\PSoC4/cyfitter_cfg.c **** *******************************************************************************/
 196:Generated_Source\PSoC4/cyfitter_cfg.c **** static void ClockSetup(void);
 197:Generated_Source\PSoC4/cyfitter_cfg.c **** CY_CFG_SECTION
 198:Generated_Source\PSoC4/cyfitter_cfg.c **** static void ClockSetup(void)
 199:Generated_Source\PSoC4/cyfitter_cfg.c **** {
 126              		.loc 1 199 0
 127              		.cfi_startproc
 128 0000 38B5     		push	{r3, r4, r5, lr}
 129              		.cfi_def_cfa_offset 16
 130              		.cfi_offset 3, -16
 131              		.cfi_offset 4, -12
 132              		.cfi_offset 5, -8
 133              		.cfi_offset 14, -4
 200:Generated_Source\PSoC4/cyfitter_cfg.c **** 
 201:Generated_Source\PSoC4/cyfitter_cfg.c **** 	/* Set Flash Cycles based on max possible frequency in case a glitch occurs during ClockSetup(). *
 202:Generated_Source\PSoC4/cyfitter_cfg.c **** 	CY_SET_REG32((void CYXDATA *)(CYREG_CPUSS_FLASH_CTL), (0x0012u));
 134              		.loc 1 202 0
ARM GAS  C:\Users\Nick\AppData\Local\Temp\ccMasM73.s 			page 7


 135 0002 1222     		mov	r2, #18
 136 0004 294B     		ldr	r3, .L8
 137 0006 1A60     		str	r2, [r3]
 203:Generated_Source\PSoC4/cyfitter_cfg.c **** 
 204:Generated_Source\PSoC4/cyfitter_cfg.c **** 	/* Start the WCO */
 205:Generated_Source\PSoC4/cyfitter_cfg.c **** 	CySysClkWcoStart();
 138              		.loc 1 205 0
 139 0008 FFF7FEFF 		bl	CySysClkWcoStart
 140              	.LVL15:
 206:Generated_Source\PSoC4/cyfitter_cfg.c **** 	CyDelayCycles(12000000u); /* WCO may take up to 500ms to start */
 141              		.loc 1 206 0
 142 000c 2848     		ldr	r0, .L8+4
 143 000e FFF7FEFF 		bl	CyDelayCycles
 144              	.LVL16:
 207:Generated_Source\PSoC4/cyfitter_cfg.c **** 	(void)CySysClkWcoSetPowerMode(CY_SYS_CLK_WCO_LPM);    /* Switch to the low power mode */
 145              		.loc 1 207 0
 146 0012 0120     		mov	r0, #1
 147 0014 FFF7FEFF 		bl	CySysClkWcoSetPowerMode
 148              	.LVL17:
 208:Generated_Source\PSoC4/cyfitter_cfg.c **** 
 209:Generated_Source\PSoC4/cyfitter_cfg.c **** 	/* Setup and trim IMO based on desired frequency. */
 210:Generated_Source\PSoC4/cyfitter_cfg.c **** 	CySysClkWriteImoFreq(48u);
 149              		.loc 1 210 0
 150 0018 3020     		mov	r0, #48
 151 001a FFF7FEFF 		bl	CySysClkWriteImoFreq
 152              	.LVL18:
 211:Generated_Source\PSoC4/cyfitter_cfg.c **** 	/* CYDEV_CLK_ILO_CONFIG Starting address: CYDEV_CLK_ILO_CONFIG */
 212:Generated_Source\PSoC4/cyfitter_cfg.c **** 	CY_SET_XTND_REG32((void CYFAR *)(CYREG_CLK_ILO_CONFIG), 0x80000006u);
 153              		.loc 1 212 0
 154 001e 254A     		ldr	r2, .L8+8
 155 0020 254B     		ldr	r3, .L8+12
 156 0022 1A60     		str	r2, [r3]
 213:Generated_Source\PSoC4/cyfitter_cfg.c **** 
 214:Generated_Source\PSoC4/cyfitter_cfg.c **** 	/* CYDEV_WDT_CONFIG Starting address: CYDEV_WDT_CONFIG */
 215:Generated_Source\PSoC4/cyfitter_cfg.c **** 	CY_SET_XTND_REG32((void CYFAR *)(CYREG_WDT_CONFIG), 0x40000000u);
 157              		.loc 1 215 0
 158 0024 254C     		ldr	r4, .L8+16
 159 0026 8025     		mov	r5, #128
 160 0028 ED05     		lsl	r5, r5, #23
 161 002a 2560     		str	r5, [r4]
 216:Generated_Source\PSoC4/cyfitter_cfg.c **** 
 217:Generated_Source\PSoC4/cyfitter_cfg.c **** 
 218:Generated_Source\PSoC4/cyfitter_cfg.c **** 	/* Enable fast start mode for XO */
 219:Generated_Source\PSoC4/cyfitter_cfg.c **** 	CY_SET_REG32((void*)CYREG_BLE_BLERD_BB_XO, CY_GET_REG32((void*)CYREG_BLE_BLERD_BB_XO) | (uint32)0x
 162              		.loc 1 219 0
 163 002c 244A     		ldr	r2, .L8+20
 164 002e 1168     		ldr	r1, [r2]
 165 0030 0223     		mov	r3, #2
 166 0032 0B43     		orr	r3, r1
 167 0034 1360     		str	r3, [r2]
 220:Generated_Source\PSoC4/cyfitter_cfg.c **** 	CY_SET_XTND_REG32((void CYFAR *)(CYREG_BLE_BLERD_BB_XO_CAPTRIM), 0x00003E2Du);
 168              		.loc 1 220 0
 169 0036 234A     		ldr	r2, .L8+24
 170 0038 234B     		ldr	r3, .L8+28
 171 003a 1A60     		str	r2, [r3]
 221:Generated_Source\PSoC4/cyfitter_cfg.c **** 	/*Set XTAL(ECO) divider*/
 222:Generated_Source\PSoC4/cyfitter_cfg.c **** 	CY_SET_XTND_REG32((void CYFAR *)(CYREG_BLE_BLESS_XTAL_CLK_DIV_CONFIG), 0x00000000u);
ARM GAS  C:\Users\Nick\AppData\Local\Temp\ccMasM73.s 			page 8


 172              		.loc 1 222 0
 173 003c 0022     		mov	r2, #0
 174 003e 234B     		ldr	r3, .L8+32
 175 0040 1A60     		str	r2, [r3]
 223:Generated_Source\PSoC4/cyfitter_cfg.c **** 	/* Disable Crystal Stable Interrupt before enabling ECO */
 224:Generated_Source\PSoC4/cyfitter_cfg.c **** 	CY_SET_REG32((void*)CYREG_BLE_BLESS_LL_DSM_CTRL, CY_GET_REG32((void*)CYREG_BLE_BLESS_LL_DSM_CTRL) 
 176              		.loc 1 224 0
 177 0042 234A     		ldr	r2, .L8+36
 178 0044 1368     		ldr	r3, [r2]
 179 0046 0821     		mov	r1, #8
 180 0048 8B43     		bic	r3, r1
 181 004a 1360     		str	r3, [r2]
 225:Generated_Source\PSoC4/cyfitter_cfg.c **** 	/* Start the ECO and do not check status since it is not needed for HFCLK */
 226:Generated_Source\PSoC4/cyfitter_cfg.c **** 	(void)CySysClkEcoStart(2000u);
 182              		.loc 1 226 0
 183 004c FA20     		mov	r0, #250
 184 004e C000     		lsl	r0, r0, #3
 185 0050 FFF7FEFF 		bl	CySysClkEcoStart
 186              	.LVL19:
 227:Generated_Source\PSoC4/cyfitter_cfg.c **** 	CyDelayUs(1500u); /* Wait to stabalize */
 187              		.loc 1 227 0
 188 0054 1F48     		ldr	r0, .L8+40
 189 0056 FFF7FEFF 		bl	CyDelayUs
 190              	.LVL20:
 228:Generated_Source\PSoC4/cyfitter_cfg.c **** 
 229:Generated_Source\PSoC4/cyfitter_cfg.c **** 	/* Setup phase aligned clocks */
 230:Generated_Source\PSoC4/cyfitter_cfg.c **** 	CY_SET_REG32((void *)CYREG_PERI_DIV_16_5_CTL0, 0x00005F00u);
 191              		.loc 1 230 0
 192 005a BE22     		mov	r2, #190
 193 005c D201     		lsl	r2, r2, #7
 194 005e 1E4B     		ldr	r3, .L8+44
 195 0060 1A60     		str	r2, [r3]
 231:Generated_Source\PSoC4/cyfitter_cfg.c **** 	CY_SET_REG32((void *)CYREG_PERI_DIV_CMD, 0x8000FF80u);
 196              		.loc 1 231 0
 197 0062 1E4B     		ldr	r3, .L8+48
 198 0064 1E4A     		ldr	r2, .L8+52
 199 0066 1A60     		str	r2, [r3]
 232:Generated_Source\PSoC4/cyfitter_cfg.c **** 	CY_SET_REG32((void *)CYREG_PERI_DIV_16_5_CTL1, 0x0001DF00u);
 200              		.loc 1 232 0
 201 0068 1E49     		ldr	r1, .L8+56
 202 006a 1F4A     		ldr	r2, .L8+60
 203 006c 1160     		str	r1, [r2]
 233:Generated_Source\PSoC4/cyfitter_cfg.c **** 	CY_SET_REG32((void *)CYREG_PERI_DIV_CMD, 0x8000FF81u);
 204              		.loc 1 233 0
 205 006e 1F4A     		ldr	r2, .L8+64
 206 0070 1A60     		str	r2, [r3]
 234:Generated_Source\PSoC4/cyfitter_cfg.c **** 	CY_SET_REG32((void *)CYREG_PERI_DIV_16_CTL0, 0x00002F00u);
 207              		.loc 1 234 0
 208 0072 BC21     		mov	r1, #188
 209 0074 8901     		lsl	r1, r1, #6
 210 0076 1E4A     		ldr	r2, .L8+68
 211 0078 1160     		str	r1, [r2]
 235:Generated_Source\PSoC4/cyfitter_cfg.c **** 	CY_SET_REG32((void *)CYREG_PERI_DIV_CMD, 0x8000FF40u);
 212              		.loc 1 235 0
 213 007a 1E4A     		ldr	r2, .L8+72
 214 007c 1A60     		str	r2, [r3]
 236:Generated_Source\PSoC4/cyfitter_cfg.c **** 
ARM GAS  C:\Users\Nick\AppData\Local\Temp\ccMasM73.s 			page 9


 237:Generated_Source\PSoC4/cyfitter_cfg.c **** 	/* CYDEV_CLK_IMO_CONFIG Starting address: CYDEV_CLK_IMO_CONFIG */
 238:Generated_Source\PSoC4/cyfitter_cfg.c **** 	CY_SET_XTND_REG32((void CYFAR *)(CYREG_CLK_IMO_CONFIG), 0x82000000u);
 215              		.loc 1 238 0
 216 007e 8222     		mov	r2, #130
 217 0080 1206     		lsl	r2, r2, #24
 218 0082 1D4B     		ldr	r3, .L8+76
 219 0084 1A60     		str	r2, [r3]
 239:Generated_Source\PSoC4/cyfitter_cfg.c **** 
 240:Generated_Source\PSoC4/cyfitter_cfg.c **** 	/* CYDEV_CLK_SELECT Starting address: CYDEV_CLK_SELECT */
 241:Generated_Source\PSoC4/cyfitter_cfg.c **** 	CY_SET_XTND_REG32((void CYFAR *)(CYREG_CLK_SELECT), 0x00040000u);
 220              		.loc 1 241 0
 221 0086 8022     		mov	r2, #128
 222 0088 D202     		lsl	r2, r2, #11
 223 008a 1C4B     		ldr	r3, .L8+80
 224 008c 1A60     		str	r2, [r3]
 242:Generated_Source\PSoC4/cyfitter_cfg.c **** 
 243:Generated_Source\PSoC4/cyfitter_cfg.c **** 	/* CYDEV_PERI_PCLK_CTL10 Starting address: CYDEV_PERI_PCLK_CTL10 */
 244:Generated_Source\PSoC4/cyfitter_cfg.c **** 	CY_SET_XTND_REG32((void CYFAR *)(CYREG_PERI_PCLK_CTL10), 0x00000080u);
 225              		.loc 1 244 0
 226 008e 8023     		mov	r3, #128
 227 0090 1B4A     		ldr	r2, .L8+84
 228 0092 1360     		str	r3, [r2]
 245:Generated_Source\PSoC4/cyfitter_cfg.c **** 
 246:Generated_Source\PSoC4/cyfitter_cfg.c **** 	/* CYDEV_PERI_PCLK_CTL9 Starting address: CYDEV_PERI_PCLK_CTL9 */
 247:Generated_Source\PSoC4/cyfitter_cfg.c **** 	CY_SET_XTND_REG32((void CYFAR *)(CYREG_PERI_PCLK_CTL9), 0x00000080u);
 229              		.loc 1 247 0
 230 0094 1B4A     		ldr	r2, .L8+88
 231 0096 1360     		str	r3, [r2]
 248:Generated_Source\PSoC4/cyfitter_cfg.c **** 
 249:Generated_Source\PSoC4/cyfitter_cfg.c **** 	/* CYDEV_PERI_PCLK_CTL8 Starting address: CYDEV_PERI_PCLK_CTL8 */
 250:Generated_Source\PSoC4/cyfitter_cfg.c **** 	CY_SET_XTND_REG32((void CYFAR *)(CYREG_PERI_PCLK_CTL8), 0x00000081u);
 232              		.loc 1 250 0
 233 0098 8121     		mov	r1, #129
 234 009a 1B4A     		ldr	r2, .L8+92
 235 009c 1160     		str	r1, [r2]
 251:Generated_Source\PSoC4/cyfitter_cfg.c **** 
 252:Generated_Source\PSoC4/cyfitter_cfg.c **** 	/* CYDEV_PERI_PCLK_CTL7 Starting address: CYDEV_PERI_PCLK_CTL7 */
 253:Generated_Source\PSoC4/cyfitter_cfg.c **** 	CY_SET_XTND_REG32((void CYFAR *)(CYREG_PERI_PCLK_CTL7), 0x00000080u);
 236              		.loc 1 253 0
 237 009e 1B4A     		ldr	r2, .L8+96
 238 00a0 1360     		str	r3, [r2]
 254:Generated_Source\PSoC4/cyfitter_cfg.c **** 
 255:Generated_Source\PSoC4/cyfitter_cfg.c **** 	/* CYDEV_PERI_PCLK_CTL6 Starting address: CYDEV_PERI_PCLK_CTL6 */
 256:Generated_Source\PSoC4/cyfitter_cfg.c **** 	CY_SET_XTND_REG32((void CYFAR *)(CYREG_PERI_PCLK_CTL6), 0x00000040u);
 239              		.loc 1 256 0
 240 00a2 4022     		mov	r2, #64
 241 00a4 1A4B     		ldr	r3, .L8+100
 242 00a6 1A60     		str	r2, [r3]
 257:Generated_Source\PSoC4/cyfitter_cfg.c **** 
 258:Generated_Source\PSoC4/cyfitter_cfg.c **** 	CY_SET_XTND_REG32((void CYFAR *)(CYREG_WDT_CONFIG), 0x40000000u);
 243              		.loc 1 258 0
 244 00a8 2560     		str	r5, [r4]
 259:Generated_Source\PSoC4/cyfitter_cfg.c **** }
 245              		.loc 1 259 0
 246              		@ sp needed
 247 00aa 38BD     		pop	{r3, r4, r5, pc}
 248              	.L9:
ARM GAS  C:\Users\Nick\AppData\Local\Temp\ccMasM73.s 			page 10


 249              		.align	2
 250              	.L8:
 251 00ac 30001040 		.word	1074790448
 252 00b0 001BB700 		.word	12000000
 253 00b4 06000080 		.word	-2147483642
 254 00b8 04010B40 		.word	1074462980
 255 00bc 0C020B40 		.word	1074463244
 256 00c0 78002E40 		.word	1076756600
 257 00c4 2D3E0000 		.word	15917
 258 00c8 7C002E40 		.word	1076756604
 259 00cc 64F02E40 		.word	1076818020
 260 00d0 6CF02E40 		.word	1076818028
 261 00d4 DC050000 		.word	1500
 262 00d8 00040140 		.word	1073808384
 263 00dc 00000140 		.word	1073807360
 264 00e0 80FF0080 		.word	-2147418240
 265 00e4 00DF0100 		.word	122624
 266 00e8 04040140 		.word	1073808388
 267 00ec 81FF0080 		.word	-2147418239
 268 00f0 00030140 		.word	1073808128
 269 00f4 40FF0080 		.word	-2147418304
 270 00f8 08010B40 		.word	1074462984
 271 00fc 00010B40 		.word	1074462976
 272 0100 28010140 		.word	1073807656
 273 0104 24010140 		.word	1073807652
 274 0108 20010140 		.word	1073807648
 275 010c 1C010140 		.word	1073807644
 276 0110 18010140 		.word	1073807640
 277              		.cfi_endproc
 278              	.LFE6:
 279              		.size	ClockSetup, .-ClockSetup
 280              		.section	.text.SetAnalogRoutingPumps,"ax",%progbits
 281              		.align	2
 282              		.global	SetAnalogRoutingPumps
 283              		.code	16
 284              		.thumb_func
 285              		.type	SetAnalogRoutingPumps, %function
 286              	SetAnalogRoutingPumps:
 287              	.LFB8:
 260:Generated_Source\PSoC4/cyfitter_cfg.c **** 
 261:Generated_Source\PSoC4/cyfitter_cfg.c **** 
 262:Generated_Source\PSoC4/cyfitter_cfg.c **** /* Analog API Functions */
 263:Generated_Source\PSoC4/cyfitter_cfg.c **** 
 264:Generated_Source\PSoC4/cyfitter_cfg.c **** 
 265:Generated_Source\PSoC4/cyfitter_cfg.c **** /*******************************************************************************
 266:Generated_Source\PSoC4/cyfitter_cfg.c **** * Function Name: AnalogSetDefault
 267:Generated_Source\PSoC4/cyfitter_cfg.c **** ********************************************************************************
 268:Generated_Source\PSoC4/cyfitter_cfg.c **** *
 269:Generated_Source\PSoC4/cyfitter_cfg.c **** * Summary:
 270:Generated_Source\PSoC4/cyfitter_cfg.c **** *  Sets up the analog portions of the chip to default values based on chip
 271:Generated_Source\PSoC4/cyfitter_cfg.c **** *  configuration options from the project.
 272:Generated_Source\PSoC4/cyfitter_cfg.c **** *
 273:Generated_Source\PSoC4/cyfitter_cfg.c **** * Parameters:
 274:Generated_Source\PSoC4/cyfitter_cfg.c **** *  void
 275:Generated_Source\PSoC4/cyfitter_cfg.c **** *
 276:Generated_Source\PSoC4/cyfitter_cfg.c **** * Return:
 277:Generated_Source\PSoC4/cyfitter_cfg.c **** *  void
ARM GAS  C:\Users\Nick\AppData\Local\Temp\ccMasM73.s 			page 11


 278:Generated_Source\PSoC4/cyfitter_cfg.c **** *
 279:Generated_Source\PSoC4/cyfitter_cfg.c **** *******************************************************************************/
 280:Generated_Source\PSoC4/cyfitter_cfg.c **** static void AnalogSetDefault(void);
 281:Generated_Source\PSoC4/cyfitter_cfg.c **** static void AnalogSetDefault(void)
 282:Generated_Source\PSoC4/cyfitter_cfg.c **** {
 283:Generated_Source\PSoC4/cyfitter_cfg.c **** 	CY_SET_XTND_REG32((void CYFAR *)CYREG_CTBM0_CTB_CTRL, 0x80000000u);
 284:Generated_Source\PSoC4/cyfitter_cfg.c **** 	CY_SET_XTND_REG32((void CYFAR *)CYREG_CTBM0_DFT_CTRL, 0x00000003u);
 285:Generated_Source\PSoC4/cyfitter_cfg.c **** 	CY_SET_XTND_REG32((void CYFAR *)CYREG_CTBM0_OA0_SW, 0x00000005u);
 286:Generated_Source\PSoC4/cyfitter_cfg.c **** 	CY_SET_XTND_REG32((void CYFAR *)CYREG_CTBM1_DFT_CTRL, 0x00000003u);
 287:Generated_Source\PSoC4/cyfitter_cfg.c **** 	CY_SET_XTND_REG32((void CYFAR *)CYREG_SAR_CTRL, 0x80000000u);
 288:Generated_Source\PSoC4/cyfitter_cfg.c **** 	CY_SET_XTND_REG32((void CYFAR *)CYREG_SAR_MUX_SWITCH0, 0x0000000Fu);
 289:Generated_Source\PSoC4/cyfitter_cfg.c **** 	CY_SET_XTND_REG32((void CYFAR *)CYREG_SAR_MUX_SWITCH_HW_CTRL, 0x0000000Fu);
 290:Generated_Source\PSoC4/cyfitter_cfg.c **** 	CY_SET_XTND_REG32((void CYFAR *)CYREG_PASS_DSAB_DSAB_CTRL, 0x00000000u);
 291:Generated_Source\PSoC4/cyfitter_cfg.c **** 	SetAnalogRoutingPumps(1);
 292:Generated_Source\PSoC4/cyfitter_cfg.c **** }
 293:Generated_Source\PSoC4/cyfitter_cfg.c **** 
 294:Generated_Source\PSoC4/cyfitter_cfg.c **** 
 295:Generated_Source\PSoC4/cyfitter_cfg.c **** /*******************************************************************************
 296:Generated_Source\PSoC4/cyfitter_cfg.c **** * Function Name: SetAnalogRoutingPumps
 297:Generated_Source\PSoC4/cyfitter_cfg.c **** ********************************************************************************
 298:Generated_Source\PSoC4/cyfitter_cfg.c **** *
 299:Generated_Source\PSoC4/cyfitter_cfg.c **** * Summary:
 300:Generated_Source\PSoC4/cyfitter_cfg.c **** * Enables or disables the analog pumps feeding analog routing switches.
 301:Generated_Source\PSoC4/cyfitter_cfg.c **** * Intended to be called at startup, based on the Vdda system configuration;
 302:Generated_Source\PSoC4/cyfitter_cfg.c **** * may be called during operation when the user informs us that the Vdda voltage crossed the pump th
 303:Generated_Source\PSoC4/cyfitter_cfg.c **** *
 304:Generated_Source\PSoC4/cyfitter_cfg.c **** * Parameters:
 305:Generated_Source\PSoC4/cyfitter_cfg.c **** *  enabled - 1 to enable the pumps, 0 to disable the pumps
 306:Generated_Source\PSoC4/cyfitter_cfg.c **** *
 307:Generated_Source\PSoC4/cyfitter_cfg.c **** * Return:
 308:Generated_Source\PSoC4/cyfitter_cfg.c **** *  void
 309:Generated_Source\PSoC4/cyfitter_cfg.c **** *
 310:Generated_Source\PSoC4/cyfitter_cfg.c **** *******************************************************************************/
 311:Generated_Source\PSoC4/cyfitter_cfg.c **** void SetAnalogRoutingPumps(uint8 enabled)
 312:Generated_Source\PSoC4/cyfitter_cfg.c **** {
 288              		.loc 1 312 0
 289              		.cfi_startproc
 290              	.LVL21:
 313:Generated_Source\PSoC4/cyfitter_cfg.c **** 	uint32 regValue = CY_GET_XTND_REG32((void *)(CYREG_SAR_PUMP_CTRL));
 291              		.loc 1 313 0
 292 0000 064B     		ldr	r3, .L13
 293 0002 1B68     		ldr	r3, [r3]
 294              	.LVL22:
 314:Generated_Source\PSoC4/cyfitter_cfg.c **** 	if (enabled != 0u)
 295              		.loc 1 314 0
 296 0004 0028     		cmp	r0, #0
 297 0006 03D0     		beq	.L11
 315:Generated_Source\PSoC4/cyfitter_cfg.c **** 	{
 316:Generated_Source\PSoC4/cyfitter_cfg.c **** 		regValue |= 0x80000000u;
 298              		.loc 1 316 0
 299 0008 8022     		mov	r2, #128
 300 000a 1206     		lsl	r2, r2, #24
 301 000c 1343     		orr	r3, r2
 302              	.LVL23:
 303 000e 01E0     		b	.L12
 304              	.L11:
 317:Generated_Source\PSoC4/cyfitter_cfg.c **** 	}
ARM GAS  C:\Users\Nick\AppData\Local\Temp\ccMasM73.s 			page 12


 318:Generated_Source\PSoC4/cyfitter_cfg.c **** 	else
 319:Generated_Source\PSoC4/cyfitter_cfg.c **** 	{
 320:Generated_Source\PSoC4/cyfitter_cfg.c **** 		regValue &= ~0x80000000u;
 305              		.loc 1 320 0
 306 0010 5B00     		lsl	r3, r3, #1
 307              	.LVL24:
 308 0012 5B08     		lsr	r3, r3, #1
 309              	.LVL25:
 310              	.L12:
 321:Generated_Source\PSoC4/cyfitter_cfg.c **** 	}
 322:Generated_Source\PSoC4/cyfitter_cfg.c **** 	CY_SET_XTND_REG32((void *)(CYREG_SAR_PUMP_CTRL), regValue);
 311              		.loc 1 322 0
 312 0014 014A     		ldr	r2, .L13
 313 0016 1360     		str	r3, [r2]
 323:Generated_Source\PSoC4/cyfitter_cfg.c **** }
 314              		.loc 1 323 0
 315              		@ sp needed
 316 0018 7047     		bx	lr
 317              	.L14:
 318 001a C046     		.align	2
 319              	.L13:
 320 001c 80033A40 		.word	1077543808
 321              		.cfi_endproc
 322              	.LFE8:
 323              		.size	SetAnalogRoutingPumps, .-SetAnalogRoutingPumps
 324              		.section	.text.AnalogSetDefault,"ax",%progbits
 325              		.align	2
 326              		.code	16
 327              		.thumb_func
 328              		.type	AnalogSetDefault, %function
 329              	AnalogSetDefault:
 330              	.LFB7:
 282:Generated_Source\PSoC4/cyfitter_cfg.c **** 	CY_SET_XTND_REG32((void CYFAR *)CYREG_CTBM0_CTB_CTRL, 0x80000000u);
 331              		.loc 1 282 0
 332              		.cfi_startproc
 333 0000 08B5     		push	{r3, lr}
 334              		.cfi_def_cfa_offset 8
 335              		.cfi_offset 3, -8
 336              		.cfi_offset 14, -4
 283:Generated_Source\PSoC4/cyfitter_cfg.c **** 	CY_SET_XTND_REG32((void CYFAR *)CYREG_CTBM0_DFT_CTRL, 0x00000003u);
 337              		.loc 1 283 0
 338 0002 8023     		mov	r3, #128
 339 0004 1B06     		lsl	r3, r3, #24
 340 0006 0C4A     		ldr	r2, .L16
 341 0008 1360     		str	r3, [r2]
 284:Generated_Source\PSoC4/cyfitter_cfg.c **** 	CY_SET_XTND_REG32((void CYFAR *)CYREG_CTBM0_OA0_SW, 0x00000005u);
 342              		.loc 1 284 0
 343 000a 0322     		mov	r2, #3
 344 000c 0B49     		ldr	r1, .L16+4
 345 000e 0A60     		str	r2, [r1]
 285:Generated_Source\PSoC4/cyfitter_cfg.c **** 	CY_SET_XTND_REG32((void CYFAR *)CYREG_CTBM1_DFT_CTRL, 0x00000003u);
 346              		.loc 1 285 0
 347 0010 0520     		mov	r0, #5
 348 0012 0B49     		ldr	r1, .L16+8
 349 0014 0860     		str	r0, [r1]
 286:Generated_Source\PSoC4/cyfitter_cfg.c **** 	CY_SET_XTND_REG32((void CYFAR *)CYREG_SAR_CTRL, 0x80000000u);
 350              		.loc 1 286 0
ARM GAS  C:\Users\Nick\AppData\Local\Temp\ccMasM73.s 			page 13


 351 0016 0B49     		ldr	r1, .L16+12
 352 0018 0A60     		str	r2, [r1]
 287:Generated_Source\PSoC4/cyfitter_cfg.c **** 	CY_SET_XTND_REG32((void CYFAR *)CYREG_SAR_MUX_SWITCH0, 0x0000000Fu);
 353              		.loc 1 287 0
 354 001a 0B4A     		ldr	r2, .L16+16
 355 001c 1360     		str	r3, [r2]
 288:Generated_Source\PSoC4/cyfitter_cfg.c **** 	CY_SET_XTND_REG32((void CYFAR *)CYREG_SAR_MUX_SWITCH_HW_CTRL, 0x0000000Fu);
 356              		.loc 1 288 0
 357 001e 0F23     		mov	r3, #15
 358 0020 0A4A     		ldr	r2, .L16+20
 359 0022 1360     		str	r3, [r2]
 289:Generated_Source\PSoC4/cyfitter_cfg.c **** 	CY_SET_XTND_REG32((void CYFAR *)CYREG_PASS_DSAB_DSAB_CTRL, 0x00000000u);
 360              		.loc 1 289 0
 361 0024 0A4A     		ldr	r2, .L16+24
 362 0026 1360     		str	r3, [r2]
 290:Generated_Source\PSoC4/cyfitter_cfg.c **** 	SetAnalogRoutingPumps(1);
 363              		.loc 1 290 0
 364 0028 0022     		mov	r2, #0
 365 002a 0A4B     		ldr	r3, .L16+28
 366 002c 1A60     		str	r2, [r3]
 291:Generated_Source\PSoC4/cyfitter_cfg.c **** }
 367              		.loc 1 291 0
 368 002e 0438     		sub	r0, r0, #4
 369 0030 FFF7FEFF 		bl	SetAnalogRoutingPumps
 370              	.LVL26:
 292:Generated_Source\PSoC4/cyfitter_cfg.c **** 
 371              		.loc 1 292 0
 372              		@ sp needed
 373 0034 08BD     		pop	{r3, pc}
 374              	.L17:
 375 0036 C046     		.align	2
 376              	.L16:
 377 0038 00003040 		.word	1076887552
 378 003c 30003040 		.word	1076887600
 379 0040 80003040 		.word	1076887680
 380 0044 30003140 		.word	1076953136
 381 0048 00003A40 		.word	1077542912
 382 004c 00033A40 		.word	1077543680
 383 0050 40033A40 		.word	1077543744
 384 0054 000E3F40 		.word	1077874176
 385              		.cfi_endproc
 386              	.LFE7:
 387              		.size	AnalogSetDefault, .-AnalogSetDefault
 388              		.section	.psocinit
 389              		.align	2
 390              		.global	cyfitter_cfg
 391              		.code	16
 392              		.thumb_func
 393              		.type	cyfitter_cfg, %function
 394              	cyfitter_cfg:
 395              	.LFB9:
 324:Generated_Source\PSoC4/cyfitter_cfg.c **** 
 325:Generated_Source\PSoC4/cyfitter_cfg.c **** #define CY_AMUX_UNUSED CYREG_CM0_ROM_DWT
 326:Generated_Source\PSoC4/cyfitter_cfg.c **** 
 327:Generated_Source\PSoC4/cyfitter_cfg.c **** 
 328:Generated_Source\PSoC4/cyfitter_cfg.c **** /*******************************************************************************
 329:Generated_Source\PSoC4/cyfitter_cfg.c **** * Function Name: cyfitter_cfg
ARM GAS  C:\Users\Nick\AppData\Local\Temp\ccMasM73.s 			page 14


 330:Generated_Source\PSoC4/cyfitter_cfg.c **** ********************************************************************************
 331:Generated_Source\PSoC4/cyfitter_cfg.c **** * Summary:
 332:Generated_Source\PSoC4/cyfitter_cfg.c **** *  This function is called by the start-up code for the selected device. It
 333:Generated_Source\PSoC4/cyfitter_cfg.c **** *  performs all of the necessary device configuration based on the design
 334:Generated_Source\PSoC4/cyfitter_cfg.c **** *  settings.  This includes settings from the Design Wide Resources (DWR) such
 335:Generated_Source\PSoC4/cyfitter_cfg.c **** *  as Clocks and Pins as well as any component configuration that is necessary.
 336:Generated_Source\PSoC4/cyfitter_cfg.c **** *
 337:Generated_Source\PSoC4/cyfitter_cfg.c **** * Parameters:  
 338:Generated_Source\PSoC4/cyfitter_cfg.c **** *   void
 339:Generated_Source\PSoC4/cyfitter_cfg.c **** *
 340:Generated_Source\PSoC4/cyfitter_cfg.c **** * Return:
 341:Generated_Source\PSoC4/cyfitter_cfg.c **** *   void
 342:Generated_Source\PSoC4/cyfitter_cfg.c **** *
 343:Generated_Source\PSoC4/cyfitter_cfg.c **** *******************************************************************************/
 344:Generated_Source\PSoC4/cyfitter_cfg.c **** CY_CFG_SECTION
 345:Generated_Source\PSoC4/cyfitter_cfg.c **** void cyfitter_cfg(void)
 346:Generated_Source\PSoC4/cyfitter_cfg.c **** {
 396              		.loc 1 346 0
 397              		.cfi_startproc
 398 0114 10B5     		push	{r4, lr}
 399              		.cfi_def_cfa_offset 8
 400              		.cfi_offset 4, -8
 401              		.cfi_offset 14, -4
 347:Generated_Source\PSoC4/cyfitter_cfg.c **** 	/* Disable interrupts by default. Let user enable if/when they want. */
 348:Generated_Source\PSoC4/cyfitter_cfg.c **** 	CyGlobalIntDisable;
 402              		.loc 1 348 0
 403              	@ 348 "Generated_Source\PSoC4\cyfitter_cfg.c" 1
 404 0116 72B6     		CPSID   i
 405              	@ 0 "" 2
 349:Generated_Source\PSoC4/cyfitter_cfg.c **** 
 350:Generated_Source\PSoC4/cyfitter_cfg.c **** 	CY_SET_XTND_REG32((void CYFAR *)(CYREG_BLE_BLESS_LL_DSM_CTRL), 0x00000000u);
 406              		.loc 1 350 0
 407              		.code	16
 408 0118 0022     		mov	r2, #0
 409 011a 384B     		ldr	r3, .L21
 410 011c 1A60     		str	r2, [r3]
 411              	.LVL27:
 412              	.LBB3:
 351:Generated_Source\PSoC4/cyfitter_cfg.c **** 
 352:Generated_Source\PSoC4/cyfitter_cfg.c **** 	{
 353:Generated_Source\PSoC4/cyfitter_cfg.c **** 		static const uint32 CYCODE cy_cfg_addr_table[] = {
 354:Generated_Source\PSoC4/cyfitter_cfg.c **** 			0x400F3004u, /* Base address: 0x400F3000 Count: 4 */
 355:Generated_Source\PSoC4/cyfitter_cfg.c **** 			0x400F3103u, /* Base address: 0x400F3100 Count: 3 */
 356:Generated_Source\PSoC4/cyfitter_cfg.c **** 			0x400F3304u, /* Base address: 0x400F3300 Count: 4 */
 357:Generated_Source\PSoC4/cyfitter_cfg.c **** 			0x400F4003u, /* Base address: 0x400F4000 Count: 3 */
 358:Generated_Source\PSoC4/cyfitter_cfg.c **** 			0x400F410Du, /* Base address: 0x400F4100 Count: 13 */
 359:Generated_Source\PSoC4/cyfitter_cfg.c **** 			0x400F4207u, /* Base address: 0x400F4200 Count: 7 */
 360:Generated_Source\PSoC4/cyfitter_cfg.c **** 			0x400F4301u, /* Base address: 0x400F4300 Count: 1 */
 361:Generated_Source\PSoC4/cyfitter_cfg.c **** 			0x400F6002u, /* Base address: 0x400F6000 Count: 2 */
 362:Generated_Source\PSoC4/cyfitter_cfg.c **** 		};
 363:Generated_Source\PSoC4/cyfitter_cfg.c **** 
 364:Generated_Source\PSoC4/cyfitter_cfg.c **** 		static const cy_cfg_addrvalue_t CYCODE cy_cfg_data_table[] = {
 365:Generated_Source\PSoC4/cyfitter_cfg.c **** 			{0x38u, 0x08u},
 366:Generated_Source\PSoC4/cyfitter_cfg.c **** 			{0x3Eu, 0x04u},
 367:Generated_Source\PSoC4/cyfitter_cfg.c **** 			{0x58u, 0x04u},
 368:Generated_Source\PSoC4/cyfitter_cfg.c **** 			{0x5Fu, 0x01u},
 369:Generated_Source\PSoC4/cyfitter_cfg.c **** 			{0x18u, 0x10u},
ARM GAS  C:\Users\Nick\AppData\Local\Temp\ccMasM73.s 			page 15


 370:Generated_Source\PSoC4/cyfitter_cfg.c **** 			{0xE2u, 0x01u},
 371:Generated_Source\PSoC4/cyfitter_cfg.c **** 			{0xE6u, 0x80u},
 372:Generated_Source\PSoC4/cyfitter_cfg.c **** 			{0x8Cu, 0x10u},
 373:Generated_Source\PSoC4/cyfitter_cfg.c **** 			{0x90u, 0x10u},
 374:Generated_Source\PSoC4/cyfitter_cfg.c **** 			{0xE2u, 0x10u},
 375:Generated_Source\PSoC4/cyfitter_cfg.c **** 			{0xEAu, 0x08u},
 376:Generated_Source\PSoC4/cyfitter_cfg.c **** 			{0x81u, 0x10u},
 377:Generated_Source\PSoC4/cyfitter_cfg.c **** 			{0x8Au, 0x40u},
 378:Generated_Source\PSoC4/cyfitter_cfg.c **** 			{0xE2u, 0x80u},
 379:Generated_Source\PSoC4/cyfitter_cfg.c **** 			{0x3Au, 0x08u},
 380:Generated_Source\PSoC4/cyfitter_cfg.c **** 			{0x52u, 0x40u},
 381:Generated_Source\PSoC4/cyfitter_cfg.c **** 			{0x55u, 0x10u},
 382:Generated_Source\PSoC4/cyfitter_cfg.c **** 			{0x67u, 0x10u},
 383:Generated_Source\PSoC4/cyfitter_cfg.c **** 			{0x8Eu, 0x08u},
 384:Generated_Source\PSoC4/cyfitter_cfg.c **** 			{0x93u, 0x10u},
 385:Generated_Source\PSoC4/cyfitter_cfg.c **** 			{0x9Au, 0x40u},
 386:Generated_Source\PSoC4/cyfitter_cfg.c **** 			{0xA1u, 0x10u},
 387:Generated_Source\PSoC4/cyfitter_cfg.c **** 			{0xAFu, 0x10u},
 388:Generated_Source\PSoC4/cyfitter_cfg.c **** 			{0xCEu, 0x40u},
 389:Generated_Source\PSoC4/cyfitter_cfg.c **** 			{0xD4u, 0x60u},
 390:Generated_Source\PSoC4/cyfitter_cfg.c **** 			{0xD8u, 0x80u},
 391:Generated_Source\PSoC4/cyfitter_cfg.c **** 			{0xEAu, 0x10u},
 392:Generated_Source\PSoC4/cyfitter_cfg.c **** 			{0x10u, 0x80u},
 393:Generated_Source\PSoC4/cyfitter_cfg.c **** 			{0x13u, 0x10u},
 394:Generated_Source\PSoC4/cyfitter_cfg.c **** 			{0x17u, 0x20u},
 395:Generated_Source\PSoC4/cyfitter_cfg.c **** 			{0x83u, 0x20u},
 396:Generated_Source\PSoC4/cyfitter_cfg.c **** 			{0x8Bu, 0x10u},
 397:Generated_Source\PSoC4/cyfitter_cfg.c **** 			{0xC4u, 0x0Bu},
 398:Generated_Source\PSoC4/cyfitter_cfg.c **** 			{0xE6u, 0x01u},
 399:Generated_Source\PSoC4/cyfitter_cfg.c **** 			{0xACu, 0x80u},
 400:Generated_Source\PSoC4/cyfitter_cfg.c **** 			{0x02u, 0x01u},
 401:Generated_Source\PSoC4/cyfitter_cfg.c **** 			{0x11u, 0x01u},
 402:Generated_Source\PSoC4/cyfitter_cfg.c **** 		};
 403:Generated_Source\PSoC4/cyfitter_cfg.c **** 
 404:Generated_Source\PSoC4/cyfitter_cfg.c **** 
 405:Generated_Source\PSoC4/cyfitter_cfg.c **** 
 406:Generated_Source\PSoC4/cyfitter_cfg.c **** 		CYPACKED typedef struct {
 407:Generated_Source\PSoC4/cyfitter_cfg.c **** 			void CYFAR *address;
 408:Generated_Source\PSoC4/cyfitter_cfg.c **** 			uint16 size;
 409:Generated_Source\PSoC4/cyfitter_cfg.c **** 		} CYPACKED_ATTR cfg_memset_t;
 410:Generated_Source\PSoC4/cyfitter_cfg.c **** 
 411:Generated_Source\PSoC4/cyfitter_cfg.c **** 		static const cfg_memset_t CYCODE cfg_memset_list [] = {
 412:Generated_Source\PSoC4/cyfitter_cfg.c **** 			/* address, size */
 413:Generated_Source\PSoC4/cyfitter_cfg.c **** 			{(void CYFAR *)(CYDEV_UDB_P0_U0_BASE), 1024u},
 414:Generated_Source\PSoC4/cyfitter_cfg.c **** 			{(void CYFAR *)(CYDEV_UDB_DSI0_BASE), 1024u},
 415:Generated_Source\PSoC4/cyfitter_cfg.c **** 		};
 416:Generated_Source\PSoC4/cyfitter_cfg.c **** 
 417:Generated_Source\PSoC4/cyfitter_cfg.c **** 		uint8 CYDATA i;
 418:Generated_Source\PSoC4/cyfitter_cfg.c **** 
 419:Generated_Source\PSoC4/cyfitter_cfg.c **** 		/* Zero out critical memory blocks before beginning configuration */
 420:Generated_Source\PSoC4/cyfitter_cfg.c **** 		for (i = 0u; i < (sizeof(cfg_memset_list)/sizeof(cfg_memset_list[0])); i++)
 413              		.loc 1 420 0
 414 011e 0024     		mov	r4, #0
 415 0120 10E0     		b	.L19
 416              	.LVL28:
 417              	.L20:
 418              	.LBB4:
ARM GAS  C:\Users\Nick\AppData\Local\Temp\ccMasM73.s 			page 16


 421:Generated_Source\PSoC4/cyfitter_cfg.c **** 		{
 422:Generated_Source\PSoC4/cyfitter_cfg.c **** 			const cfg_memset_t CYCODE * CYDATA ms = &cfg_memset_list[i];
 423:Generated_Source\PSoC4/cyfitter_cfg.c **** 			CYMEMZERO(ms->address, (size_t)(uint32)(ms->size));
 419              		.loc 1 423 0 discriminator 3
 420 0122 3748     		ldr	r0, .L21+4
 421 0124 6300     		lsl	r3, r4, #1
 422 0126 1A19     		add	r2, r3, r4
 423 0128 5200     		lsl	r2, r2, #1
 424 012a 8218     		add	r2, r0, r2
 425 012c 9188     		ldrh	r1, [r2, #4]
 426 012e 1B19     		add	r3, r3, r4
 427 0130 5B00     		lsl	r3, r3, #1
 428 0132 1A5A     		ldrh	r2, [r3, r0]
 429 0134 C318     		add	r3, r0, r3
 430 0136 5888     		ldrh	r0, [r3, #2]
 431 0138 0004     		lsl	r0, r0, #16
 432 013a 1043     		orr	r0, r2
 433 013c FFF7FEFF 		bl	CYMEMZERO
 434              	.LVL29:
 435              	.LBE4:
 420:Generated_Source\PSoC4/cyfitter_cfg.c **** 		{
 436              		.loc 1 420 0 discriminator 3
 437 0140 0134     		add	r4, r4, #1
 438              	.LVL30:
 439 0142 E4B2     		uxtb	r4, r4
 440              	.LVL31:
 441              	.L19:
 420:Generated_Source\PSoC4/cyfitter_cfg.c **** 		{
 442              		.loc 1 420 0 is_stmt 0 discriminator 1
 443 0144 012C     		cmp	r4, #1
 444 0146 ECD9     		bls	.L20
 424:Generated_Source\PSoC4/cyfitter_cfg.c **** 		}
 425:Generated_Source\PSoC4/cyfitter_cfg.c **** 
 426:Generated_Source\PSoC4/cyfitter_cfg.c **** 		cfg_write_bytes32(cy_cfg_addr_table, cy_cfg_data_table);
 445              		.loc 1 426 0 is_stmt 1
 446 0148 2D49     		ldr	r1, .L21+4
 447 014a 081C     		mov	r0, r1
 448 014c 0C30     		add	r0, r0, #12
 449 014e 2C31     		add	r1, r1, #44
 450 0150 FFF7FEFF 		bl	cfg_write_bytes32
 451              	.LVL32:
 427:Generated_Source\PSoC4/cyfitter_cfg.c **** 
 428:Generated_Source\PSoC4/cyfitter_cfg.c **** 		/* HSIOM Starting address: CYDEV_HSIOM_BASE */
 429:Generated_Source\PSoC4/cyfitter_cfg.c **** 		CY_SET_XTND_REG32((void CYFAR *)(CYDEV_HSIOM_BASE), 0xEE000000u);
 452              		.loc 1 429 0
 453 0154 EE22     		mov	r2, #238
 454 0156 1206     		lsl	r2, r2, #24
 455 0158 2A4B     		ldr	r3, .L21+8
 456 015a 1A60     		str	r2, [r3]
 430:Generated_Source\PSoC4/cyfitter_cfg.c **** 		CY_SET_XTND_REG32((void CYFAR *)(CYREG_HSIOM_PORT_SEL1), 0x03000303u);
 457              		.loc 1 430 0
 458 015c 2A4A     		ldr	r2, .L21+12
 459 015e 2B4B     		ldr	r3, .L21+16
 460 0160 1A60     		str	r2, [r3]
 431:Generated_Source\PSoC4/cyfitter_cfg.c **** 
 432:Generated_Source\PSoC4/cyfitter_cfg.c **** 		/* UDB_PA_0 Starting address: CYDEV_UDB_PA0_BASE */
 433:Generated_Source\PSoC4/cyfitter_cfg.c **** 		CY_SET_XTND_REG32((void CYFAR *)(CYDEV_UDB_PA0_BASE), 0x00990000u);
ARM GAS  C:\Users\Nick\AppData\Local\Temp\ccMasM73.s 			page 17


 461              		.loc 1 433 0
 462 0162 9923     		mov	r3, #153
 463 0164 1B04     		lsl	r3, r3, #16
 464 0166 2A4A     		ldr	r2, .L21+20
 465 0168 1360     		str	r3, [r2]
 434:Generated_Source\PSoC4/cyfitter_cfg.c **** 
 435:Generated_Source\PSoC4/cyfitter_cfg.c **** 		/* UDB_PA_1 Starting address: CYDEV_UDB_PA1_BASE */
 436:Generated_Source\PSoC4/cyfitter_cfg.c **** 		CY_SET_XTND_REG32((void CYFAR *)(CYDEV_UDB_PA1_BASE), 0x00990000u);
 466              		.loc 1 436 0
 467 016a 2A4A     		ldr	r2, .L21+24
 468 016c 1360     		str	r3, [r2]
 437:Generated_Source\PSoC4/cyfitter_cfg.c **** 		CY_SET_XTND_REG32((void CYFAR *)(CYREG_UDB_PA1_CFG4), 0x02000000u);
 469              		.loc 1 437 0
 470 016e 8021     		mov	r1, #128
 471 0170 8904     		lsl	r1, r1, #18
 472 0172 294A     		ldr	r2, .L21+28
 473 0174 1160     		str	r1, [r2]
 438:Generated_Source\PSoC4/cyfitter_cfg.c **** 		CY_SET_XTND_REG32((void CYFAR *)(CYREG_UDB_PA1_CFG8), 0x30890000u);
 474              		.loc 1 438 0
 475 0176 2949     		ldr	r1, .L21+32
 476 0178 294A     		ldr	r2, .L21+36
 477 017a 1160     		str	r1, [r2]
 439:Generated_Source\PSoC4/cyfitter_cfg.c **** 
 440:Generated_Source\PSoC4/cyfitter_cfg.c **** 		/* UDB_PA_2 Starting address: CYDEV_UDB_PA2_BASE */
 441:Generated_Source\PSoC4/cyfitter_cfg.c **** 		CY_SET_XTND_REG32((void CYFAR *)(CYDEV_UDB_PA2_BASE), 0x00990000u);
 478              		.loc 1 441 0
 479 017c 294A     		ldr	r2, .L21+40
 480 017e 1360     		str	r3, [r2]
 442:Generated_Source\PSoC4/cyfitter_cfg.c **** 
 443:Generated_Source\PSoC4/cyfitter_cfg.c **** 		/* UDB_PA_3 Starting address: CYDEV_UDB_PA3_BASE */
 444:Generated_Source\PSoC4/cyfitter_cfg.c **** 		CY_SET_XTND_REG32((void CYFAR *)(CYDEV_UDB_PA3_BASE), 0x00990000u);
 481              		.loc 1 444 0
 482 0180 294A     		ldr	r2, .L21+44
 483 0182 1360     		str	r3, [r2]
 445:Generated_Source\PSoC4/cyfitter_cfg.c **** 
 446:Generated_Source\PSoC4/cyfitter_cfg.c **** 		/* TCPWM_CNT0 Starting address: CYDEV_TCPWM_CNT0_TR_CTRL0 */
 447:Generated_Source\PSoC4/cyfitter_cfg.c **** 		CY_SET_XTND_REG32((void CYFAR *)(CYREG_TCPWM_CNT0_TR_CTRL0), 0x00010010u);
 484              		.loc 1 447 0
 485 0184 294B     		ldr	r3, .L21+48
 486 0186 2A4A     		ldr	r2, .L21+52
 487 0188 1360     		str	r3, [r2]
 448:Generated_Source\PSoC4/cyfitter_cfg.c **** 
 449:Generated_Source\PSoC4/cyfitter_cfg.c **** 		/* TCPWM_CNT2 Starting address: CYDEV_TCPWM_CNT2_TR_CTRL0 */
 450:Generated_Source\PSoC4/cyfitter_cfg.c **** 		CY_SET_XTND_REG32((void CYFAR *)(CYREG_TCPWM_CNT2_TR_CTRL0), 0x00010010u);
 488              		.loc 1 450 0
 489 018a 2A4A     		ldr	r2, .L21+56
 490 018c 1360     		str	r3, [r2]
 451:Generated_Source\PSoC4/cyfitter_cfg.c **** 
 452:Generated_Source\PSoC4/cyfitter_cfg.c **** 		/* TCPWM_CNT3 Starting address: CYDEV_TCPWM_CNT3_TR_CTRL0 */
 453:Generated_Source\PSoC4/cyfitter_cfg.c **** 		CY_SET_XTND_REG32((void CYFAR *)(CYREG_TCPWM_CNT3_TR_CTRL0), 0x00010010u);
 491              		.loc 1 453 0
 492 018e 2A4A     		ldr	r2, .L21+60
 493 0190 1360     		str	r3, [r2]
 454:Generated_Source\PSoC4/cyfitter_cfg.c **** 
 455:Generated_Source\PSoC4/cyfitter_cfg.c **** 		/* Enable digital routing */
 456:Generated_Source\PSoC4/cyfitter_cfg.c **** 		CY_SET_XTND_REG8((void *)CYREG_UDB_UDBIF_BANK_CTL, CY_GET_XTND_REG8((void *)CYREG_UDB_UDBIF_BANK_
 494              		.loc 1 456 0
ARM GAS  C:\Users\Nick\AppData\Local\Temp\ccMasM73.s 			page 18


 495 0192 2A4B     		ldr	r3, .L21+64
 496 0194 1978     		ldrb	r1, [r3]
 497 0196 0222     		mov	r2, #2
 498 0198 0A43     		orr	r2, r1
 499 019a 1A70     		strb	r2, [r3]
 457:Generated_Source\PSoC4/cyfitter_cfg.c **** 
 458:Generated_Source\PSoC4/cyfitter_cfg.c **** 		/* Enable UDB array */
 459:Generated_Source\PSoC4/cyfitter_cfg.c **** 		CY_SET_XTND_REG8((void *)CYREG_UDB_UDBIF_WAIT_CFG, (uint8)((CY_GET_XTND_REG8((void *)CYREG_UDB_UD
 500              		.loc 1 459 0
 501 019c 2848     		ldr	r0, .L21+68
 502 019e 0278     		ldrb	r2, [r0]
 503 01a0 3C21     		mov	r1, #60
 504 01a2 8A43     		bic	r2, r1
 505 01a4 2839     		sub	r1, r1, #40
 506 01a6 0A43     		orr	r2, r1
 507 01a8 0270     		strb	r2, [r0]
 460:Generated_Source\PSoC4/cyfitter_cfg.c **** 		CY_SET_XTND_REG8((void *)CYREG_UDB_UDBIF_BANK_CTL, (uint8)(CY_GET_XTND_REG8((void *)CYREG_UDB_UDB
 508              		.loc 1 460 0
 509 01aa 1978     		ldrb	r1, [r3]
 510 01ac 1622     		mov	r2, #22
 511 01ae 0A43     		orr	r2, r1
 512 01b0 1A70     		strb	r2, [r3]
 513              	.LBE3:
 461:Generated_Source\PSoC4/cyfitter_cfg.c **** 	}
 462:Generated_Source\PSoC4/cyfitter_cfg.c **** 
 463:Generated_Source\PSoC4/cyfitter_cfg.c **** 	/* Perform second pass device configuration. These items must be configured in specific order afte
 464:Generated_Source\PSoC4/cyfitter_cfg.c **** 	/* IOPINS0_0 Starting address: CYDEV_GPIO_PRT0_BASE */
 465:Generated_Source\PSoC4/cyfitter_cfg.c **** 	CY_SET_XTND_REG32((void CYFAR *)(CYDEV_GPIO_PRT0_BASE), 0x00000020u);
 514              		.loc 1 465 0
 515 01b2 2022     		mov	r2, #32
 516 01b4 234B     		ldr	r3, .L21+72
 517 01b6 1A60     		str	r2, [r3]
 466:Generated_Source\PSoC4/cyfitter_cfg.c **** 	CY_SET_XTND_REG32((void CYFAR *)(CYREG_GPIO_PRT0_PC), 0x00DB0249u);
 518              		.loc 1 466 0
 519 01b8 234A     		ldr	r2, .L21+76
 520 01ba 244B     		ldr	r3, .L21+80
 521 01bc 1A60     		str	r2, [r3]
 467:Generated_Source\PSoC4/cyfitter_cfg.c **** 
 468:Generated_Source\PSoC4/cyfitter_cfg.c **** 	/* IOPINS0_1 Starting address: CYDEV_GPIO_PRT1_BASE */
 469:Generated_Source\PSoC4/cyfitter_cfg.c **** 	CY_SET_XTND_REG32((void CYFAR *)(CYDEV_GPIO_PRT1_BASE), 0x00000045u);
 522              		.loc 1 469 0
 523 01be 4522     		mov	r2, #69
 524 01c0 234B     		ldr	r3, .L21+84
 525 01c2 1A60     		str	r2, [r3]
 470:Generated_Source\PSoC4/cyfitter_cfg.c **** 	CY_SET_XTND_REG32((void CYFAR *)(CYREG_GPIO_PRT1_PC), 0x00DC6DF7u);
 526              		.loc 1 470 0
 527 01c4 234A     		ldr	r2, .L21+88
 528 01c6 244B     		ldr	r3, .L21+92
 529 01c8 1A60     		str	r2, [r3]
 471:Generated_Source\PSoC4/cyfitter_cfg.c **** 
 472:Generated_Source\PSoC4/cyfitter_cfg.c **** 	/* IOPINS0_2 Starting address: CYDEV_GPIO_PRT2_BASE */
 473:Generated_Source\PSoC4/cyfitter_cfg.c **** 	CY_SET_XTND_REG32((void CYFAR *)(CYDEV_GPIO_PRT2_BASE), 0x0000000Du);
 530              		.loc 1 473 0
 531 01ca 0D22     		mov	r2, #13
 532 01cc 234B     		ldr	r3, .L21+96
 533 01ce 1A60     		str	r2, [r3]
 474:Generated_Source\PSoC4/cyfitter_cfg.c **** 	CY_SET_XTND_REG32((void CYFAR *)(CYREG_GPIO_PRT2_PC), 0x00000DB0u);
ARM GAS  C:\Users\Nick\AppData\Local\Temp\ccMasM73.s 			page 19


 534              		.loc 1 474 0
 535 01d0 DB22     		mov	r2, #219
 536 01d2 1201     		lsl	r2, r2, #4
 537 01d4 224B     		ldr	r3, .L21+100
 538 01d6 1A60     		str	r2, [r3]
 475:Generated_Source\PSoC4/cyfitter_cfg.c **** 	CY_SET_XTND_REG32((void CYFAR *)(CYREG_GPIO_PRT2_PC2), 0x00000001u);
 539              		.loc 1 475 0
 540 01d8 0122     		mov	r2, #1
 541 01da 224B     		ldr	r3, .L21+104
 542 01dc 1A60     		str	r2, [r3]
 476:Generated_Source\PSoC4/cyfitter_cfg.c **** 
 477:Generated_Source\PSoC4/cyfitter_cfg.c **** 	/* IOPINS0_3 Starting address: CYDEV_GPIO_PRT3_BASE */
 478:Generated_Source\PSoC4/cyfitter_cfg.c **** 	CY_SET_XTND_REG32((void CYFAR *)(CYDEV_GPIO_PRT3_BASE), 0x0000008Fu);
 543              		.loc 1 478 0
 544 01de 8E32     		add	r2, r2, #142
 545 01e0 214B     		ldr	r3, .L21+108
 546 01e2 1A60     		str	r2, [r3]
 479:Generated_Source\PSoC4/cyfitter_cfg.c **** 	CY_SET_XTND_REG32((void CYFAR *)(CYREG_GPIO_PRT3_PC), 0x00C00000u);
 547              		.loc 1 479 0
 548 01e4 C022     		mov	r2, #192
 549 01e6 1204     		lsl	r2, r2, #16
 550 01e8 204B     		ldr	r3, .L21+112
 551 01ea 1A60     		str	r2, [r3]
 480:Generated_Source\PSoC4/cyfitter_cfg.c **** 	CY_SET_XTND_REG32((void CYFAR *)(CYREG_GPIO_PRT3_PC2), 0x0000000Fu);
 552              		.loc 1 480 0
 553 01ec 0F22     		mov	r2, #15
 554 01ee 204B     		ldr	r3, .L21+116
 555 01f0 1A60     		str	r2, [r3]
 481:Generated_Source\PSoC4/cyfitter_cfg.c **** 
 482:Generated_Source\PSoC4/cyfitter_cfg.c **** 
 483:Generated_Source\PSoC4/cyfitter_cfg.c **** 	/* Setup clocks based on selections from Clock DWR */
 484:Generated_Source\PSoC4/cyfitter_cfg.c **** 	ClockSetup();
 556              		.loc 1 484 0
 557 01f2 FFF705FF 		bl	ClockSetup
 558              	.LVL33:
 485:Generated_Source\PSoC4/cyfitter_cfg.c **** 
 486:Generated_Source\PSoC4/cyfitter_cfg.c **** 	/* Perform basic analog initialization to defaults */
 487:Generated_Source\PSoC4/cyfitter_cfg.c **** 	AnalogSetDefault();
 559              		.loc 1 487 0
 560 01f6 FFF7FEFF 		bl	AnalogSetDefault
 561              	.LVL34:
 488:Generated_Source\PSoC4/cyfitter_cfg.c **** 
 489:Generated_Source\PSoC4/cyfitter_cfg.c **** }
 562              		.loc 1 489 0
 563              		@ sp needed
 564              	.LVL35:
 565 01fa 10BD     		pop	{r4, pc}
 566              	.L22:
 567              		.align	2
 568              	.L21:
 569 01fc 6CF02E40 		.word	1076818028
 570 0200 00000000 		.word	.LANCHOR0
 571 0204 00000240 		.word	1073872896
 572 0208 03030003 		.word	50332419
 573 020c 00010240 		.word	1073873152
 574 0210 00500F40 		.word	1074745344
 575 0214 10500F40 		.word	1074745360
ARM GAS  C:\Users\Nick\AppData\Local\Temp\ccMasM73.s 			page 20


 576 0218 14500F40 		.word	1074745364
 577 021c 00008930 		.word	814284800
 578 0220 18500F40 		.word	1074745368
 579 0224 20500F40 		.word	1074745376
 580 0228 30500F40 		.word	1074745392
 581 022c 10000100 		.word	65552
 582 0230 20012040 		.word	1075839264
 583 0234 A0012040 		.word	1075839392
 584 0238 E0012040 		.word	1075839456
 585 023c 00700F40 		.word	1074753536
 586 0240 01700F40 		.word	1074753537
 587 0244 00000440 		.word	1074003968
 588 0248 4902DB00 		.word	14352969
 589 024c 08000440 		.word	1074003976
 590 0250 00010440 		.word	1074004224
 591 0254 F76DDC00 		.word	14446071
 592 0258 08010440 		.word	1074004232
 593 025c 00020440 		.word	1074004480
 594 0260 08020440 		.word	1074004488
 595 0264 18020440 		.word	1074004504
 596 0268 00030440 		.word	1074004736
 597 026c 08030440 		.word	1074004744
 598 0270 18030440 		.word	1074004760
 599              		.cfi_endproc
 600              	.LFE9:
 601              		.size	cyfitter_cfg, .-cyfitter_cfg
 602              		.section	.rodata
 603              		.align	2
 604              		.set	.LANCHOR0,. + 0
 605              		.type	cfg_memset_list.4771, %object
 606              		.size	cfg_memset_list.4771, 12
 607              	cfg_memset_list.4771:
 608 0000 00300F40 		.word	1074737152
 609 0004 0004     		.short	1024
 610 0006 00400F40 		.4byte	1074741248
 611 000a 0004     		.short	1024
 612              		.type	cy_cfg_addr_table.4765, %object
 613              		.size	cy_cfg_addr_table.4765, 32
 614              	cy_cfg_addr_table.4765:
 615 000c 04300F40 		.word	1074737156
 616 0010 03310F40 		.word	1074737411
 617 0014 04330F40 		.word	1074737924
 618 0018 03400F40 		.word	1074741251
 619 001c 0D410F40 		.word	1074741517
 620 0020 07420F40 		.word	1074741767
 621 0024 01430F40 		.word	1074742017
 622 0028 02600F40 		.word	1074749442
 623              		.type	cy_cfg_data_table.4766, %object
 624              		.size	cy_cfg_data_table.4766, 74
 625              	cy_cfg_data_table.4766:
 626 002c 38       		.byte	56
 627 002d 08       		.byte	8
 628 002e 3E       		.byte	62
 629 002f 04       		.byte	4
 630 0030 58       		.byte	88
 631 0031 04       		.byte	4
 632 0032 5F       		.byte	95
ARM GAS  C:\Users\Nick\AppData\Local\Temp\ccMasM73.s 			page 21


 633 0033 01       		.byte	1
 634 0034 18       		.byte	24
 635 0035 10       		.byte	16
 636 0036 E2       		.byte	-30
 637 0037 01       		.byte	1
 638 0038 E6       		.byte	-26
 639 0039 80       		.byte	-128
 640 003a 8C       		.byte	-116
 641 003b 10       		.byte	16
 642 003c 90       		.byte	-112
 643 003d 10       		.byte	16
 644 003e E2       		.byte	-30
 645 003f 10       		.byte	16
 646 0040 EA       		.byte	-22
 647 0041 08       		.byte	8
 648 0042 81       		.byte	-127
 649 0043 10       		.byte	16
 650 0044 8A       		.byte	-118
 651 0045 40       		.byte	64
 652 0046 E2       		.byte	-30
 653 0047 80       		.byte	-128
 654 0048 3A       		.byte	58
 655 0049 08       		.byte	8
 656 004a 52       		.byte	82
 657 004b 40       		.byte	64
 658 004c 55       		.byte	85
 659 004d 10       		.byte	16
 660 004e 67       		.byte	103
 661 004f 10       		.byte	16
 662 0050 8E       		.byte	-114
 663 0051 08       		.byte	8
 664 0052 93       		.byte	-109
 665 0053 10       		.byte	16
 666 0054 9A       		.byte	-102
 667 0055 40       		.byte	64
 668 0056 A1       		.byte	-95
 669 0057 10       		.byte	16
 670 0058 AF       		.byte	-81
 671 0059 10       		.byte	16
 672 005a CE       		.byte	-50
 673 005b 40       		.byte	64
 674 005c D4       		.byte	-44
 675 005d 60       		.byte	96
 676 005e D8       		.byte	-40
 677 005f 80       		.byte	-128
 678 0060 EA       		.byte	-22
 679 0061 10       		.byte	16
 680 0062 10       		.byte	16
 681 0063 80       		.byte	-128
 682 0064 13       		.byte	19
 683 0065 10       		.byte	16
 684 0066 17       		.byte	23
 685 0067 20       		.byte	32
 686 0068 83       		.byte	-125
 687 0069 20       		.byte	32
 688 006a 8B       		.byte	-117
 689 006b 10       		.byte	16
ARM GAS  C:\Users\Nick\AppData\Local\Temp\ccMasM73.s 			page 22


 690 006c C4       		.byte	-60
 691 006d 0B       		.byte	11
 692 006e E6       		.byte	-26
 693 006f 01       		.byte	1
 694 0070 AC       		.byte	-84
 695 0071 80       		.byte	-128
 696 0072 02       		.byte	2
 697 0073 01       		.byte	1
 698 0074 11       		.byte	17
 699 0075 01       		.byte	1
 700 0076 0000     		.text
 701              	.Letext0:
 702              		.file 2 "c:\\program files (x86)\\cypress\\psoc creator\\4.0\\psoc creator\\import\\gnu\\arm\\4.9.
 703              		.file 3 "Generated_Source\\PSoC4\\cytypes.h"
 704              		.file 4 "Generated_Source\\PSoC4\\CyLib.h"
 705              		.file 5 "Generated_Source\\PSoC4\\CyLFClk.h"