ARM GAS  C:\Users\rdeiaco\AppData\Local\Temp\ccNcudIW.s 			page 1


   1              		.cpu cortex-m0
   2              		.fpu softvfp
   3              		.eabi_attribute 20, 1
   4              		.eabi_attribute 21, 1
   5              		.eabi_attribute 23, 3
   6              		.eabi_attribute 24, 1
   7              		.eabi_attribute 25, 1
   8              		.eabi_attribute 26, 1
   9              		.eabi_attribute 30, 1
  10              		.eabi_attribute 34, 0
  11              		.eabi_attribute 18, 4
  12              		.code	16
  13              		.file	"filter.c"
  14              		.text
  15              	.Ltext0:
  16              		.cfi_sections	.debug_frame
  17              		.section	.text.filter_sample,"ax",%progbits
  18              		.align	2
  19              		.global	filter_sample
  20              		.code	16
  21              		.thumb_func
  22              		.type	filter_sample, %function
  23              	filter_sample:
  24              	.LFB35:
  25              		.file 1 "filter.c"
   1:filter.c      **** /* ========================================
   2:filter.c      ****  *
   3:filter.c      ****  * Copyright YOUR COMPANY, THE YEAR
   4:filter.c      ****  * All Rights Reserved
   5:filter.c      ****  * UNPUBLISHED, LICENSED SOFTWARE.
   6:filter.c      ****  *
   7:filter.c      ****  * CONFIDENTIAL AND PROPRIETARY INFORMATION
   8:filter.c      ****  * WHICH IS THE PROPERTY OF your company.
   9:filter.c      ****  *
  10:filter.c      ****  * ========================================
  11:filter.c      **** */
  12:filter.c      **** 
  13:filter.c      **** #include <project.h>
  14:filter.c      **** #include "filter.h"
  15:filter.c      **** 
  16:filter.c      **** int8 filter_sample(int8 reading, queue_t *prev) {
  26              		.loc 1 16 0
  27              		.cfi_startproc
  28              	.LVL0:
  29 0000 70B5     		push	{r4, r5, r6, lr}
  30              		.cfi_def_cfa_offset 16
  31              		.cfi_offset 4, -16
  32              		.cfi_offset 5, -12
  33              		.cfi_offset 6, -8
  34              		.cfi_offset 14, -4
  35 0002 051C     		mov	r5, r0
  36 0004 0E1C     		mov	r6, r1
  37              	.LVL1:
  17:filter.c      ****     int temp = (int)reading;
  18:filter.c      ****     temp += sum(prev);
  38              		.loc 1 18 0
  39 0006 081C     		mov	r0, r1
ARM GAS  C:\Users\rdeiaco\AppData\Local\Temp\ccNcudIW.s 			page 2


  40              	.LVL2:
  41 0008 FFF7FEFF 		bl	sum
  42              	.LVL3:
  43 000c 4419     		add	r4, r0, r5
  44              	.LVL4:
  19:filter.c      ****     push(prev, reading);
  45              		.loc 1 19 0
  46 000e 301C     		mov	r0, r6
  47 0010 291C     		mov	r1, r5
  48 0012 FFF7FEFF 		bl	push
  49              	.LVL5:
  20:filter.c      ****     return (temp >> 2);
  50              		.loc 1 20 0
  51 0016 A410     		asr	r4, r4, #2
  52              	.LVL6:
  53 0018 60B2     		sxtb	r0, r4
  21:filter.c      **** }
  54              		.loc 1 21 0
  55              		@ sp needed
  56              	.LVL7:
  57 001a 70BD     		pop	{r4, r5, r6, pc}
  58              		.cfi_endproc
  59              	.LFE35:
  60              		.size	filter_sample, .-filter_sample
  61              		.section	.text.filter_count,"ax",%progbits
  62              		.align	2
  63              		.global	filter_count
  64              		.code	16
  65              		.thumb_func
  66              		.type	filter_count, %function
  67              	filter_count:
  68              	.LFB36:
  22:filter.c      **** 
  23:filter.c      **** int filter_count(int8 reading, queue_t *prev, int count) {
  69              		.loc 1 23 0
  70              		.cfi_startproc
  71              	.LVL8:
  72 0000 10B5     		push	{r4, lr}
  73              		.cfi_def_cfa_offset 8
  74              		.cfi_offset 4, -8
  75              		.cfi_offset 14, -4
  76 0002 141C     		mov	r4, r2
  24:filter.c      ****     if (filter_sample(reading, prev)) {
  77              		.loc 1 24 0
  78 0004 FFF7FEFF 		bl	filter_sample
  79              	.LVL9:
  80 0008 0028     		cmp	r0, #0
  81 000a 01D0     		beq	.L3
  25:filter.c      ****         count++;
  82              		.loc 1 25 0
  83 000c 0134     		add	r4, r4, #1
  84              	.LVL10:
  85 000e 02E0     		b	.L4
  86              	.L3:
  26:filter.c      ****     }
  27:filter.c      ****     else {
  28:filter.c      ****         if (count > 0) {
ARM GAS  C:\Users\rdeiaco\AppData\Local\Temp\ccNcudIW.s 			page 3


  87              		.loc 1 28 0
  88 0010 002C     		cmp	r4, #0
  89 0012 00DD     		ble	.L4
  29:filter.c      ****             count--;
  90              		.loc 1 29 0
  91 0014 013C     		sub	r4, r4, #1
  92              	.LVL11:
  93              	.L4:
  30:filter.c      ****         }
  31:filter.c      ****     }
  32:filter.c      ****     return count;
  33:filter.c      **** }
  94              		.loc 1 33 0
  95 0016 201C     		mov	r0, r4
  96              		@ sp needed
  97              	.LVL12:
  98 0018 10BD     		pop	{r4, pc}
  99              		.cfi_endproc
 100              	.LFE36:
 101              		.size	filter_count, .-filter_count
 102 001a C046     		.text
 103              	.Letext0:
 104              		.file 2 "queue.h"
 105              		.file 3 "Generated_Source\\PSoC4/cytypes.h"