ARM GAS  C:\Users\rdeiaco\AppData\Local\Temp\ccJSdnO6.s 			page 1


   1              		.cpu cortex-m0
   2              		.fpu softvfp
   3              		.eabi_attribute 20, 1
   4              		.eabi_attribute 21, 1
   5              		.eabi_attribute 23, 3
   6              		.eabi_attribute 24, 1
   7              		.eabi_attribute 25, 1
   8              		.eabi_attribute 26, 1
   9              		.eabi_attribute 30, 1
  10              		.eabi_attribute 34, 0
  11              		.eabi_attribute 18, 4
  12              		.code	16
  13              		.file	"IDAC.c"
  14              		.text
  15              	.Ltext0:
  16              		.cfi_sections	.debug_frame
  17              		.section	.text.set_IDAC_current,"ax",%progbits
  18              		.align	2
  19              		.global	set_IDAC_current
  20              		.code	16
  21              		.thumb_func
  22              		.type	set_IDAC_current, %function
  23              	set_IDAC_current:
  24              	.LFB36:
  25              		.file 1 "IDAC.c"
   1:IDAC.c        **** /* ========================================
   2:IDAC.c        ****  *
   3:IDAC.c        ****  * Copyright YOUR COMPANY, THE YEAR
   4:IDAC.c        ****  * All Rights Reserved
   5:IDAC.c        ****  * UNPUBLISHED, LICENSED SOFTWARE.
   6:IDAC.c        ****  *
   7:IDAC.c        ****  * CONFIDENTIAL AND PROPRIETARY INFORMATION
   8:IDAC.c        ****  * WHICH IS THE PROPERTY OF your company.
   9:IDAC.c        ****  *
  10:IDAC.c        ****  * ========================================
  11:IDAC.c        **** */
  12:IDAC.c        **** 
  13:IDAC.c        **** #include "project.h"
  14:IDAC.c        **** #include "IDAC.h"
  15:IDAC.c        **** #include "adc.h"
  16:IDAC.c        **** 
  17:IDAC.c        **** #define MAX_VOLTAGE 5.0
  18:IDAC.c        **** #define MIN_VOLTAGE 0.0
  19:IDAC.c        **** 
  20:IDAC.c        **** #define MAX_CURRENT_VAL 255
  21:IDAC.c        **** 
  22:IDAC.c        **** #define RESISTOR 15000
  23:IDAC.c        **** #define MAX_CURR 0.000306
  24:IDAC.c        **** 
  25:IDAC.c        **** #define FEEDBACK_GAIN 1.0
  26:IDAC.c        **** #define CONTROLLER_THRESH 0.02
  27:IDAC.c        **** 
  28:IDAC.c        **** #define FIRE_THRESH_INDEX 3
  29:IDAC.c        **** 
  30:IDAC.c        **** static uint8 IDAC_current = 0x00;
  31:IDAC.c        **** static float voltage_threshold = 1.4;
  32:IDAC.c        **** 
ARM GAS  C:\Users\rdeiaco\AppData\Local\Temp\ccJSdnO6.s 			page 2


  33:IDAC.c        **** void init_IDAC(void) {
  34:IDAC.c        ****     
  35:IDAC.c        ****     IDAC_Fire_Thresh_Enable();
  36:IDAC.c        ****     
  37:IDAC.c        ****     IDAC_Fire_Thresh_Start();
  38:IDAC.c        ****     
  39:IDAC.c        ****     set_IDAC_current();
  40:IDAC.c        **** }
  41:IDAC.c        **** 
  42:IDAC.c        **** void set_IDAC_current(void) {
  26              		.loc 1 42 0
  27              		.cfi_startproc
  28 0000 08B5     		push	{r3, lr}
  29              		.cfi_def_cfa_offset 8
  30              		.cfi_offset 3, -8
  31              		.cfi_offset 14, -4
  43:IDAC.c        ****     
  44:IDAC.c        ****     IDAC_Fire_Thresh_SetValue(IDAC_current);
  32              		.loc 1 44 0
  33 0002 024B     		ldr	r3, .L2
  34 0004 1878     		ldrb	r0, [r3]
  35 0006 FFF7FEFF 		bl	IDAC_Fire_Thresh_SetValue
  36              	.LVL0:
  45:IDAC.c        **** }
  37              		.loc 1 45 0
  38              		@ sp needed
  39 000a 08BD     		pop	{r3, pc}
  40              	.L3:
  41              		.align	2
  42              	.L2:
  43 000c 00000000 		.word	.LANCHOR0
  44              		.cfi_endproc
  45              	.LFE36:
  46              		.size	set_IDAC_current, .-set_IDAC_current
  47              		.section	.text.init_IDAC,"ax",%progbits
  48              		.align	2
  49              		.global	init_IDAC
  50              		.code	16
  51              		.thumb_func
  52              		.type	init_IDAC, %function
  53              	init_IDAC:
  54              	.LFB35:
  33:IDAC.c        ****     
  55              		.loc 1 33 0
  56              		.cfi_startproc
  57 0000 08B5     		push	{r3, lr}
  58              		.cfi_def_cfa_offset 8
  59              		.cfi_offset 3, -8
  60              		.cfi_offset 14, -4
  35:IDAC.c        ****     
  61              		.loc 1 35 0
  62 0002 FFF7FEFF 		bl	IDAC_Fire_Thresh_Enable
  63              	.LVL1:
  37:IDAC.c        ****     
  64              		.loc 1 37 0
  65 0006 FFF7FEFF 		bl	IDAC_Fire_Thresh_Start
  66              	.LVL2:
ARM GAS  C:\Users\rdeiaco\AppData\Local\Temp\ccJSdnO6.s 			page 3


  39:IDAC.c        **** }
  67              		.loc 1 39 0
  68 000a FFF7FEFF 		bl	set_IDAC_current
  69              	.LVL3:
  40:IDAC.c        **** 
  70              		.loc 1 40 0
  71              		@ sp needed
  72 000e 08BD     		pop	{r3, pc}
  73              		.cfi_endproc
  74              	.LFE35:
  75              		.size	init_IDAC, .-init_IDAC
  76              		.global	__aeabi_fsub
  77              		.global	__aeabi_dmul
  78              		.global	__aeabi_ddiv
  79              		.global	__aeabi_d2iz
  80              		.global	__aeabi_f2d
  81              		.global	__aeabi_dcmpgt
  82              		.global	__aeabi_dcmplt
  83              		.section	.text.set_IDAC_threshold,"ax",%progbits
  84              		.align	2
  85              		.global	set_IDAC_threshold
  86              		.code	16
  87              		.thumb_func
  88              		.type	set_IDAC_threshold, %function
  89              	set_IDAC_threshold:
  90              	.LFB38:
  46:IDAC.c        **** 
  47:IDAC.c        **** void update_IDAC_threshold(float volt_val) {
  48:IDAC.c        ****     
  49:IDAC.c        ****     /* call function to set value based on feedback*/
  50:IDAC.c        ****     if (volt_val < MAX_VOLTAGE && volt_val > 0) {
  51:IDAC.c        ****         voltage_threshold = volt_val;
  52:IDAC.c        ****     }
  53:IDAC.c        ****     else if (volt_val > MAX_VOLTAGE) {
  54:IDAC.c        ****         voltage_threshold = MAX_VOLTAGE;
  55:IDAC.c        ****     }
  56:IDAC.c        ****     else {
  57:IDAC.c        ****         voltage_threshold = 0;
  58:IDAC.c        ****     }
  59:IDAC.c        ****     
  60:IDAC.c        ****     set_IDAC_threshold();
  61:IDAC.c        ****     
  62:IDAC.c        **** }
  63:IDAC.c        **** 
  64:IDAC.c        **** void set_IDAC_threshold(void) {
  91              		.loc 1 64 0
  92              		.cfi_startproc
  93 0000 38B5     		push	{r3, r4, r5, lr}
  94              		.cfi_def_cfa_offset 16
  95              		.cfi_offset 3, -16
  96              		.cfi_offset 4, -12
  97              		.cfi_offset 5, -8
  98              		.cfi_offset 14, -4
  65:IDAC.c        **** 
  66:IDAC.c        ****     int delta;
  67:IDAC.c        ****     int new_current;
  68:IDAC.c        ****     float current_out = ADC_read(FIRE_THRESH_INDEX);
ARM GAS  C:\Users\rdeiaco\AppData\Local\Temp\ccJSdnO6.s 			page 4


  99              		.loc 1 68 0
 100 0002 0320     		mov	r0, #3
 101 0004 FFF7FEFF 		bl	ADC_read
 102              	.LVL4:
 103 0008 011C     		add	r1, r0, #0
 104              	.LVL5:
  69:IDAC.c        ****     float error = voltage_threshold - current_out;
 105              		.loc 1 69 0
 106 000a 214B     		ldr	r3, .L11
 107 000c 1868     		ldr	r0, [r3]
 108              	.LVL6:
 109 000e FFF7FEFF 		bl	__aeabi_fsub
 110              	.LVL7:
  70:IDAC.c        ****     
  71:IDAC.c        ****     while (error > CONTROLLER_THRESH || error < -CONTROLLER_THRESH) {
 111              		.loc 1 71 0
 112 0012 2AE0     		b	.L6
 113              	.LVL8:
 114              	.L10:
  72:IDAC.c        ****         
  73:IDAC.c        ****         delta = (int)(error*FEEDBACK_GAIN*MAX_CURRENT_VAL/(RESISTOR*MAX_CURR));
 115              		.loc 1 73 0
 116 0014 201C     		mov	r0, r4
 117 0016 291C     		mov	r1, r5
 118 0018 0022     		mov	r2, #0
 119 001a 1E4B     		ldr	r3, .L11+4
 120 001c FFF7FEFF 		bl	__aeabi_dmul
 121              	.LVL9:
 122 0020 1D4A     		ldr	r2, .L11+8
 123 0022 1E4B     		ldr	r3, .L11+12
 124 0024 FFF7FEFF 		bl	__aeabi_ddiv
 125              	.LVL10:
 126 0028 FFF7FEFF 		bl	__aeabi_d2iz
 127              	.LVL11:
  74:IDAC.c        ****         new_current = IDAC_current + delta;
 128              		.loc 1 74 0
 129 002c 1C4B     		ldr	r3, .L11+16
 130 002e 1B78     		ldrb	r3, [r3]
 131 0030 1818     		add	r0, r3, r0
 132              	.LVL12:
  75:IDAC.c        ****     
  76:IDAC.c        ****         if (new_current <= MAX_CURRENT_VAL && new_current >= 0) {
 133              		.loc 1 76 0
 134 0032 FF28     		cmp	r0, #255
 135 0034 02D8     		bhi	.L7
  77:IDAC.c        ****             IDAC_current = new_current;
 136              		.loc 1 77 0
 137 0036 1A4B     		ldr	r3, .L11+16
 138 0038 1870     		strb	r0, [r3]
 139 003a 08E0     		b	.L8
 140              	.L7:
  78:IDAC.c        ****         }
  79:IDAC.c        ****         else if (new_current > MAX_CURRENT_VAL) {
 141              		.loc 1 79 0
 142 003c FF28     		cmp	r0, #255
 143 003e 03DD     		ble	.L9
  80:IDAC.c        ****             IDAC_current = MAX_CURRENT_VAL;
ARM GAS  C:\Users\rdeiaco\AppData\Local\Temp\ccJSdnO6.s 			page 5


 144              		.loc 1 80 0
 145 0040 FF22     		mov	r2, #255
 146 0042 174B     		ldr	r3, .L11+16
 147 0044 1A70     		strb	r2, [r3]
 148 0046 02E0     		b	.L8
 149              	.L9:
  81:IDAC.c        ****         }
  82:IDAC.c        ****         else {
  83:IDAC.c        ****             IDAC_current = 0;
 150              		.loc 1 83 0
 151 0048 0022     		mov	r2, #0
 152 004a 154B     		ldr	r3, .L11+16
 153 004c 1A70     		strb	r2, [r3]
 154              	.L8:
  84:IDAC.c        ****         }
  85:IDAC.c        ****     
  86:IDAC.c        ****    
  87:IDAC.c        ****     
  88:IDAC.c        ****         set_IDAC_current();
 155              		.loc 1 88 0
 156 004e FFF7FEFF 		bl	set_IDAC_current
 157              	.LVL13:
  89:IDAC.c        ****         CyDelay(500);
 158              		.loc 1 89 0
 159 0052 FA20     		mov	r0, #250
 160 0054 4000     		lsl	r0, r0, #1
 161 0056 FFF7FEFF 		bl	CyDelay
 162              	.LVL14:
  90:IDAC.c        ****         
  91:IDAC.c        ****         current_out = ADC_read(FIRE_THRESH_INDEX);
 163              		.loc 1 91 0
 164 005a 0320     		mov	r0, #3
 165 005c FFF7FEFF 		bl	ADC_read
 166              	.LVL15:
 167 0060 011C     		add	r1, r0, #0
 168              	.LVL16:
  92:IDAC.c        ****         error = voltage_threshold - current_out;
 169              		.loc 1 92 0
 170 0062 0B4B     		ldr	r3, .L11
 171 0064 1868     		ldr	r0, [r3]
 172              	.LVL17:
 173 0066 FFF7FEFF 		bl	__aeabi_fsub
 174              	.LVL18:
 175              	.L6:
  71:IDAC.c        ****         
 176              		.loc 1 71 0
 177 006a FFF7FEFF 		bl	__aeabi_f2d
 178              	.LVL19:
 179 006e 041C     		mov	r4, r0
 180 0070 0D1C     		mov	r5, r1
 181 0072 0C4A     		ldr	r2, .L11+20
 182 0074 0C4B     		ldr	r3, .L11+24
 183 0076 FFF7FEFF 		bl	__aeabi_dcmpgt
 184              	.LVL20:
 185 007a 0028     		cmp	r0, #0
 186 007c CAD1     		bne	.L10
  71:IDAC.c        ****         
ARM GAS  C:\Users\rdeiaco\AppData\Local\Temp\ccJSdnO6.s 			page 6


 187              		.loc 1 71 0 is_stmt 0 discriminator 1
 188 007e 201C     		mov	r0, r4
 189 0080 291C     		mov	r1, r5
 190 0082 084A     		ldr	r2, .L11+20
 191 0084 094B     		ldr	r3, .L11+28
 192 0086 FFF7FEFF 		bl	__aeabi_dcmplt
 193              	.LVL21:
 194 008a 0028     		cmp	r0, #0
 195 008c C2D1     		bne	.L10
  93:IDAC.c        ****     }
  94:IDAC.c        **** 
  95:IDAC.c        **** }    
 196              		.loc 1 95 0 is_stmt 1
 197              		@ sp needed
 198 008e 38BD     		pop	{r3, r4, r5, pc}
 199              	.L12:
 200              		.align	2
 201              	.L11:
 202 0090 00000000 		.word	.LANCHOR1
 203 0094 00E06F40 		.word	1081073664
 204 0098 5C8FC2F5 		.word	-171798692
 205 009c 285C1240 		.word	1074945064
 206 00a0 00000000 		.word	.LANCHOR0
 207 00a4 7B14AE47 		.word	1202590843
 208 00a8 E17A943F 		.word	1066695393
 209 00ac E17A94BF 		.word	-1080788255
 210              		.cfi_endproc
 211              	.LFE38:
 212              		.size	set_IDAC_threshold, .-set_IDAC_threshold
 213              		.global	__aeabi_fcmplt
 214              		.global	__aeabi_fcmpgt
 215              		.section	.text.update_IDAC_threshold,"ax",%progbits
 216              		.align	2
 217              		.global	update_IDAC_threshold
 218              		.code	16
 219              		.thumb_func
 220              		.type	update_IDAC_threshold, %function
 221              	update_IDAC_threshold:
 222              	.LFB37:
  47:IDAC.c        ****     
 223              		.loc 1 47 0
 224              		.cfi_startproc
 225              	.LVL22:
 226 0000 10B5     		push	{r4, lr}
 227              		.cfi_def_cfa_offset 8
 228              		.cfi_offset 4, -8
 229              		.cfi_offset 14, -4
 230 0002 041C     		add	r4, r0, #0
  50:IDAC.c        ****         voltage_threshold = volt_val;
 231              		.loc 1 50 0
 232 0004 0E49     		ldr	r1, .L24
 233 0006 FFF7FEFF 		bl	__aeabi_fcmplt
 234              	.LVL23:
 235 000a 0028     		cmp	r0, #0
 236 000c 08D0     		beq	.L14
  50:IDAC.c        ****         voltage_threshold = volt_val;
 237              		.loc 1 50 0 is_stmt 0 discriminator 1
ARM GAS  C:\Users\rdeiaco\AppData\Local\Temp\ccJSdnO6.s 			page 7


 238 000e 201C     		add	r0, r4, #0
 239 0010 0021     		mov	r1, #0
 240 0012 FFF7FEFF 		bl	__aeabi_fcmpgt
 241              	.LVL24:
 242 0016 0028     		cmp	r0, #0
 243 0018 02D0     		beq	.L14
  51:IDAC.c        ****     }
 244              		.loc 1 51 0 is_stmt 1
 245 001a 0A4B     		ldr	r3, .L24+4
 246 001c 1C60     		str	r4, [r3]
 247 001e 0CE0     		b	.L17
 248              	.L14:
  53:IDAC.c        ****         voltage_threshold = MAX_VOLTAGE;
 249              		.loc 1 53 0
 250 0020 201C     		add	r0, r4, #0
 251 0022 0749     		ldr	r1, .L24
 252 0024 FFF7FEFF 		bl	__aeabi_fcmpgt
 253              	.LVL25:
 254 0028 0028     		cmp	r0, #0
 255 002a 03D0     		beq	.L23
  54:IDAC.c        ****     }
 256              		.loc 1 54 0
 257 002c 044A     		ldr	r2, .L24
 258 002e 054B     		ldr	r3, .L24+4
 259 0030 1A60     		str	r2, [r3]
 260 0032 02E0     		b	.L17
 261              	.L23:
  57:IDAC.c        ****     }
 262              		.loc 1 57 0
 263 0034 0022     		mov	r2, #0
 264 0036 034B     		ldr	r3, .L24+4
 265 0038 1A60     		str	r2, [r3]
 266              	.L17:
  60:IDAC.c        ****     
 267              		.loc 1 60 0
 268 003a FFF7FEFF 		bl	set_IDAC_threshold
 269              	.LVL26:
  62:IDAC.c        **** 
 270              		.loc 1 62 0
 271              		@ sp needed
 272              	.LVL27:
 273 003e 10BD     		pop	{r4, pc}
 274              	.L25:
 275              		.align	2
 276              	.L24:
 277 0040 0000A040 		.word	1084227584
 278 0044 00000000 		.word	.LANCHOR1
 279              		.cfi_endproc
 280              	.LFE37:
 281              		.size	update_IDAC_threshold, .-update_IDAC_threshold
 282              		.data
 283              		.align	2
 284              		.set	.LANCHOR1,. + 0
 285              		.type	voltage_threshold, %object
 286              		.size	voltage_threshold, 4
 287              	voltage_threshold:
 288 0000 3333B33F 		.word	1068708659
ARM GAS  C:\Users\rdeiaco\AppData\Local\Temp\ccJSdnO6.s 			page 8


 289              		.bss
 290              		.set	.LANCHOR0,. + 0
 291              		.type	IDAC_current, %object
 292              		.size	IDAC_current, 1
 293              	IDAC_current:
 294 0000 00       		.space	1
 295              		.text
 296              	.Letext0:
 297              		.file 2 "Generated_Source\\PSoC4/cytypes.h"
 298              		.file 3 "Generated_Source\\PSoC4/IDAC_Fire_Thresh.h"
 299              		.file 4 "adc.h"
 300              		.file 5 "Generated_Source\\PSoC4/CyLib.h"