ARM GAS  C:\Users\rdeiaco\AppData\Local\Temp\ccihrpjo.s 			page 1


   1              		.cpu cortex-m0
   2              		.fpu softvfp
   3              		.eabi_attribute 20, 1
   4              		.eabi_attribute 21, 1
   5              		.eabi_attribute 23, 3
   6              		.eabi_attribute 24, 1
   7              		.eabi_attribute 25, 1
   8              		.eabi_attribute 26, 1
   9              		.eabi_attribute 30, 1
  10              		.eabi_attribute 34, 0
  11              		.eabi_attribute 18, 4
  12              		.code	16
  13              		.file	"main.c"
  14              		.text
  15              	.Ltext0:
  16              		.cfi_sections	.debug_frame
  17              		.section	.text.InterruptHandler,"ax",%progbits
  18              		.align	2
  19              		.global	InterruptHandler
  20              		.code	16
  21              		.thumb_func
  22              		.type	InterruptHandler, %function
  23              	InterruptHandler:
  24              	.LFB35:
  25              		.file 1 "main.c"
   1:main.c        **** #include <project.h>
   2:main.c        **** #include "OTAOptional.h"
   3:main.c        **** #include "common.h"
   4:main.c        **** #include "stdio.h"
   5:main.c        **** #include "CyBLE_custom.h"
   6:main.c        **** #include "main.h"
   7:main.c        **** 
   8:main.c        **** 
   9:main.c        **** #include "filter.h"
  10:main.c        **** #include "queue.h"
  11:main.c        **** #include "PWM.h"
  12:main.c        **** #include "IDAC.h"
  13:main.c        **** #include "adc.h"
  14:main.c        **** #include "PGA.h"
  15:main.c        **** 
  16:main.c        **** #include "user_cfg_def.h"
  17:main.c        **** 
  18:main.c        **** 
  19:main.c        **** 
  20:main.c        **** alarm_state_e alarmStateOld = TYPE_NO_ALARM;
  21:main.c        **** uint8 alarmNotify   = 1; // Always notify
  22:main.c        **** 
  23:main.c        **** // Device modifies this 
  24:main.c        **** alarm_state_e alarm_state    = TYPE_NO_ALARM;
  25:main.c        **** 
  26:main.c        **** // Configuration updated by the app
  27:main.c        **** vib_type_e      curFireAlarmVibType = VIBTYPE_CONTINUOUS;
  28:main.c        **** vib_type_e      curAmbulanceVibType = VIBTYPE_CONTINUOUS;
  29:main.c        **** vib_duration_e  curVibDuration      = DURATION_5S;
  30:main.c        **** vib_intensity_e curVibIntensity     = INTENSITY_LOW;
  31:main.c        **** 
  32:main.c        **** 
ARM GAS  C:\Users\rdeiaco\AppData\Local\Temp\ccihrpjo.s 			page 2


  33:main.c        **** /* LED control defines (active low)*/
  34:main.c        **** #define LIGHT_OFF                       (1u)
  35:main.c        **** #define LIGHT_ON                        (0u)
  36:main.c        **** #define SIZE 2000U
  37:main.c        **** 
  38:main.c        **** #define LOW_FILT  0
  39:main.c        **** #define MID_FILT  1
  40:main.c        **** #define HIGH_FILT 2
  41:main.c        **** 
  42:main.c        **** #define MIC_GAIN 68/2.2
  43:main.c        **** 
  44:main.c        **** #define MOTOR_ON  1
  45:main.c        **** #define MOTOR_OFF 0
  46:main.c        **** 
  47:main.c        **** /* Selects the active blinking LED */
  48:main.c        **** uint8 activeLed;
  49:main.c        **** // Flag to indicate when to sample digital lines.
  50:main.c        **** uint8 sample_lines;
  51:main.c        **** 
  52:main.c        **** 
  53:main.c        **** /*******************************************************************************
  54:main.c        **** * Defines the interrupt service routine and allocates a vector to the interrupt.
  55:main.c        **** * We use one handler for both the Capture and Terminal Count interrupts
  56:main.c        **** * We toggle the active LED upon each Terminal Count interrupt
  57:main.c        **** * We toggle the color (active LED) between blue and green upon each Capture 
  58:main.c        **** * interrupt
  59:main.c        **** ********************************************************************************/
  60:main.c        **** 
  61:main.c        **** CY_ISR(InterruptHandler)
  62:main.c        **** {    
  26              		.loc 1 62 0
  27              		.cfi_startproc
  28 0000 08B5     		push	{r3, lr}
  29              		.cfi_def_cfa_offset 8
  30              		.cfi_offset 3, -8
  31              		.cfi_offset 14, -4
  63:main.c        ****     if (Timer_INTR_MASK_TC == Timer_GetInterruptSource()) {
  32              		.loc 1 63 0
  33 0002 FFF7FEFF 		bl	Timer_GetInterruptSource
  34              	.LVL0:
  35 0006 0128     		cmp	r0, #1
  36 0008 04D1     		bne	.L1
  64:main.c        ****         // Timer has overflowed, 1ms has elapsed.
  65:main.c        ****         // Clear interrupt, then set flag to execute finite state control loop.
  66:main.c        ****         Timer_ClearInterrupt(Timer_INTR_MASK_TC);
  37              		.loc 1 66 0
  38 000a FFF7FEFF 		bl	Timer_ClearInterrupt
  39              	.LVL1:
  67:main.c        ****         sample_lines = 1;        
  40              		.loc 1 67 0
  41 000e 0122     		mov	r2, #1
  42 0010 014B     		ldr	r3, .L3
  43 0012 1A70     		strb	r2, [r3]
  44              	.L1:
  68:main.c        ****     }
  69:main.c        **** }
  45              		.loc 1 69 0
ARM GAS  C:\Users\rdeiaco\AppData\Local\Temp\ccihrpjo.s 			page 3


  46              		@ sp needed
  47 0014 08BD     		pop	{r3, pc}
  48              	.L4:
  49 0016 C046     		.align	2
  50              	.L3:
  51 0018 00000000 		.word	sample_lines
  52              		.cfi_endproc
  53              	.LFE35:
  54              		.size	InterruptHandler, .-InterruptHandler
  55              		.section	.text.notifyFireAlarm,"ax",%progbits
  56              		.align	2
  57              		.global	notifyFireAlarm
  58              		.code	16
  59              		.thumb_func
  60              		.type	notifyFireAlarm, %function
  61              	notifyFireAlarm:
  62              	.LFB36:
  70:main.c        **** 
  71:main.c        **** void notifyFireAlarm() {
  63              		.loc 1 71 0
  64              		.cfi_startproc
  65 0000 00B5     		push	{lr}
  66              		.cfi_def_cfa_offset 4
  67              		.cfi_offset 14, -4
  68 0002 85B0     		sub	sp, sp, #20
  69              		.cfi_def_cfa_offset 24
  72:main.c        ****     alarm_state = TYPE_FIRE_ALARM;
  70              		.loc 1 72 0
  71 0004 0122     		mov	r2, #1
  72 0006 104B     		ldr	r3, .L9
  73 0008 1A70     		strb	r2, [r3]
  73:main.c        ****     
  74:main.c        ****     if(CyBle_GetState() != CYBLE_STATE_CONNECTED)
  74              		.loc 1 74 0
  75 000a 104B     		ldr	r3, .L9+4
  76 000c 1B78     		ldrb	r3, [r3]
  77 000e 022B     		cmp	r3, #2
  78 0010 17D1     		bne	.L5
  75:main.c        ****         return;
  76:main.c        **** 
  77:main.c        **** 	CYBLE_GATTS_HANDLE_VALUE_NTF_T 	tempHandle;
  78:main.c        **** 
  79:main.c        ****     tempHandle.attrHandle = CYBLE_LEDCAPSENSE_ALARMSTATUS_CHAR_HANDLE;
  79              		.loc 1 79 0
  80 0012 01A8     		add	r0, sp, #4
  81 0014 1633     		add	r3, r3, #22
  82 0016 0381     		strh	r3, [r0, #8]
  80:main.c        ****   	tempHandle.value.val = (uint8 *)&alarm_state;
  83              		.loc 1 80 0
  84 0018 0B4B     		ldr	r3, .L9
  85 001a 0193     		str	r3, [sp, #4]
  81:main.c        ****     tempHandle.value.len = 2; 
  86              		.loc 1 81 0
  87 001c 0223     		mov	r3, #2
  88 001e 8380     		strh	r3, [r0, #4]
  82:main.c        ****     CyBle_GattsWriteAttributeValue(&tempHandle,0,&cyBle_connHandle,CYBLE_GATT_DB_LOCALLY_INITIATED 
  89              		.loc 1 82 0
ARM GAS  C:\Users\rdeiaco\AppData\Local\Temp\ccihrpjo.s 			page 4


  90 0020 0021     		mov	r1, #0
  91 0022 0B4A     		ldr	r2, .L9+8
  92 0024 0023     		mov	r3, #0
  93 0026 FFF7FEFF 		bl	CyBle_GattsWriteAttributeValue
  94              	.LVL2:
  83:main.c        ****     
  84:main.c        ****     /* send notification to client*/
  85:main.c        ****     if (alarmNotify) {
  95              		.loc 1 85 0
  96 002a 0A4B     		ldr	r3, .L9+12
  97 002c 1B78     		ldrb	r3, [r3]
  98 002e 002B     		cmp	r3, #0
  99 0030 07D0     		beq	.L5
  86:main.c        ****         CyBle_GattsNotification(cyBle_connHandle,&tempHandle);
 100              		.loc 1 86 0
 101 0032 074A     		ldr	r2, .L9+8
 102 0034 1378     		ldrb	r3, [r2]
 103 0036 5078     		ldrb	r0, [r2, #1]
 104 0038 0002     		lsl	r0, r0, #8
 105 003a 1843     		orr	r0, r3
 106 003c 01A9     		add	r1, sp, #4
 107 003e FFF7FEFF 		bl	CyBle_GattsNotification
 108              	.LVL3:
 109              	.L5:
  87:main.c        ****     }
  88:main.c        **** }
 110              		.loc 1 88 0
 111 0042 05B0     		add	sp, sp, #20
 112              		@ sp needed
 113 0044 00BD     		pop	{pc}
 114              	.L10:
 115 0046 C046     		.align	2
 116              	.L9:
 117 0048 00000000 		.word	.LANCHOR0
 118 004c 00000000 		.word	cyBle_state
 119 0050 00000000 		.word	cyBle_connHandle
 120 0054 00000000 		.word	.LANCHOR1
 121              		.cfi_endproc
 122              	.LFE36:
 123              		.size	notifyFireAlarm, .-notifyFireAlarm
 124              		.section	.text.notifyAmbulance,"ax",%progbits
 125              		.align	2
 126              		.global	notifyAmbulance
 127              		.code	16
 128              		.thumb_func
 129              		.type	notifyAmbulance, %function
 130              	notifyAmbulance:
 131              	.LFB37:
  89:main.c        **** 
  90:main.c        **** void notifyAmbulance(){
 132              		.loc 1 90 0
 133              		.cfi_startproc
 134 0000 00B5     		push	{lr}
 135              		.cfi_def_cfa_offset 4
 136              		.cfi_offset 14, -4
 137 0002 85B0     		sub	sp, sp, #20
 138              		.cfi_def_cfa_offset 24
ARM GAS  C:\Users\rdeiaco\AppData\Local\Temp\ccihrpjo.s 			page 5


  91:main.c        ****     alarm_state = TYPE_AMBULANCE;
 139              		.loc 1 91 0
 140 0004 0222     		mov	r2, #2
 141 0006 104B     		ldr	r3, .L15
 142 0008 1A70     		strb	r2, [r3]
  92:main.c        ****     
  93:main.c        ****     if(CyBle_GetState() != CYBLE_STATE_CONNECTED)
 143              		.loc 1 93 0
 144 000a 104B     		ldr	r3, .L15+4
 145 000c 1B78     		ldrb	r3, [r3]
 146 000e 022B     		cmp	r3, #2
 147 0010 17D1     		bne	.L11
  94:main.c        ****         return;
  95:main.c        **** 
  96:main.c        **** 	CYBLE_GATTS_HANDLE_VALUE_NTF_T 	tempHandle;
  97:main.c        **** 
  98:main.c        ****     tempHandle.attrHandle = CYBLE_LEDCAPSENSE_ALARMSTATUS_CHAR_HANDLE;
 148              		.loc 1 98 0
 149 0012 01A8     		add	r0, sp, #4
 150 0014 1633     		add	r3, r3, #22
 151 0016 0381     		strh	r3, [r0, #8]
  99:main.c        ****   	tempHandle.value.val = (uint8 *)&alarm_state;
 152              		.loc 1 99 0
 153 0018 0B4B     		ldr	r3, .L15
 154 001a 0193     		str	r3, [sp, #4]
 100:main.c        ****     tempHandle.value.len = 2; 
 155              		.loc 1 100 0
 156 001c 0223     		mov	r3, #2
 157 001e 8380     		strh	r3, [r0, #4]
 101:main.c        ****     CyBle_GattsWriteAttributeValue(&tempHandle,0,&cyBle_connHandle,CYBLE_GATT_DB_LOCALLY_INITIATED 
 158              		.loc 1 101 0
 159 0020 0021     		mov	r1, #0
 160 0022 0B4A     		ldr	r2, .L15+8
 161 0024 0023     		mov	r3, #0
 162 0026 FFF7FEFF 		bl	CyBle_GattsWriteAttributeValue
 163              	.LVL4:
 102:main.c        ****     
 103:main.c        ****     /* send notification to client*/
 104:main.c        ****     if (alarmNotify) {
 164              		.loc 1 104 0
 165 002a 0A4B     		ldr	r3, .L15+12
 166 002c 1B78     		ldrb	r3, [r3]
 167 002e 002B     		cmp	r3, #0
 168 0030 07D0     		beq	.L11
 105:main.c        ****         CyBle_GattsNotification(cyBle_connHandle,&tempHandle);
 169              		.loc 1 105 0
 170 0032 074A     		ldr	r2, .L15+8
 171 0034 1378     		ldrb	r3, [r2]
 172 0036 5078     		ldrb	r0, [r2, #1]
 173 0038 0002     		lsl	r0, r0, #8
 174 003a 1843     		orr	r0, r3
 175 003c 01A9     		add	r1, sp, #4
 176 003e FFF7FEFF 		bl	CyBle_GattsNotification
 177              	.LVL5:
 178              	.L11:
 106:main.c        ****     }
 107:main.c        **** }
ARM GAS  C:\Users\rdeiaco\AppData\Local\Temp\ccihrpjo.s 			page 6


 179              		.loc 1 107 0
 180 0042 05B0     		add	sp, sp, #20
 181              		@ sp needed
 182 0044 00BD     		pop	{pc}
 183              	.L16:
 184 0046 C046     		.align	2
 185              	.L15:
 186 0048 00000000 		.word	.LANCHOR0
 187 004c 00000000 		.word	cyBle_state
 188 0050 00000000 		.word	cyBle_connHandle
 189 0054 00000000 		.word	.LANCHOR1
 190              		.cfi_endproc
 191              	.LFE37:
 192              		.size	notifyAmbulance, .-notifyAmbulance
 193              		.section	.text.setVibIntensity,"ax",%progbits
 194              		.align	2
 195              		.global	setVibIntensity
 196              		.code	16
 197              		.thumb_func
 198              		.type	setVibIntensity, %function
 199              	setVibIntensity:
 200              	.LFB38:
 108:main.c        **** 
 109:main.c        **** void setVibIntensity(int intensity){
 201              		.loc 1 109 0
 202              		.cfi_startproc
 203              	.LVL6:
 110:main.c        ****     curVibIntensity = intensity;
 204              		.loc 1 110 0
 205 0000 014B     		ldr	r3, .L18
 206 0002 5870     		strb	r0, [r3, #1]
 111:main.c        **** }
 207              		.loc 1 111 0
 208              		@ sp needed
 209 0004 7047     		bx	lr
 210              	.L19:
 211 0006 C046     		.align	2
 212              	.L18:
 213 0008 00000000 		.word	.LANCHOR1
 214              		.cfi_endproc
 215              	.LFE38:
 216              		.size	setVibIntensity, .-setVibIntensity
 217              		.section	.text.setFireAlarmVibType,"ax",%progbits
 218              		.align	2
 219              		.global	setFireAlarmVibType
 220              		.code	16
 221              		.thumb_func
 222              		.type	setFireAlarmVibType, %function
 223              	setFireAlarmVibType:
 224              	.LFB39:
 112:main.c        **** 
 113:main.c        **** void setFireAlarmVibType(int vibType){
 225              		.loc 1 113 0
 226              		.cfi_startproc
 227              	.LVL7:
 114:main.c        ****     curFireAlarmVibType = vibType;
 228              		.loc 1 114 0
ARM GAS  C:\Users\rdeiaco\AppData\Local\Temp\ccihrpjo.s 			page 7


 229 0000 014B     		ldr	r3, .L21
 230 0002 5870     		strb	r0, [r3, #1]
 115:main.c        **** }
 231              		.loc 1 115 0
 232              		@ sp needed
 233 0004 7047     		bx	lr
 234              	.L22:
 235 0006 C046     		.align	2
 236              	.L21:
 237 0008 00000000 		.word	.LANCHOR0
 238              		.cfi_endproc
 239              	.LFE39:
 240              		.size	setFireAlarmVibType, .-setFireAlarmVibType
 241              		.section	.text.setAmbulanceVibType,"ax",%progbits
 242              		.align	2
 243              		.global	setAmbulanceVibType
 244              		.code	16
 245              		.thumb_func
 246              		.type	setAmbulanceVibType, %function
 247              	setAmbulanceVibType:
 248              	.LFB40:
 116:main.c        **** 
 117:main.c        **** void setAmbulanceVibType(int vibType){
 249              		.loc 1 117 0
 250              		.cfi_startproc
 251              	.LVL8:
 118:main.c        ****     curAmbulanceVibType = vibType;
 252              		.loc 1 118 0
 253 0000 014B     		ldr	r3, .L24
 254 0002 9870     		strb	r0, [r3, #2]
 119:main.c        **** }
 255              		.loc 1 119 0
 256              		@ sp needed
 257 0004 7047     		bx	lr
 258              	.L25:
 259 0006 C046     		.align	2
 260              	.L24:
 261 0008 00000000 		.word	.LANCHOR0
 262              		.cfi_endproc
 263              	.LFE40:
 264              		.size	setAmbulanceVibType, .-setAmbulanceVibType
 265              		.section	.text.setVibDuration,"ax",%progbits
 266              		.align	2
 267              		.global	setVibDuration
 268              		.code	16
 269              		.thumb_func
 270              		.type	setVibDuration, %function
 271              	setVibDuration:
 272              	.LFB41:
 120:main.c        **** 
 121:main.c        **** void setVibDuration(int vibDuration){
 273              		.loc 1 121 0
 274              		.cfi_startproc
 275              	.LVL9:
 122:main.c        ****     curVibDuration = vibDuration;
 276              		.loc 1 122 0
 277 0000 014B     		ldr	r3, .L27
ARM GAS  C:\Users\rdeiaco\AppData\Local\Temp\ccihrpjo.s 			page 8


 278 0002 D870     		strb	r0, [r3, #3]
 123:main.c        **** }
 279              		.loc 1 123 0
 280              		@ sp needed
 281 0004 7047     		bx	lr
 282              	.L28:
 283 0006 C046     		.align	2
 284              	.L27:
 285 0008 00000000 		.word	.LANCHOR0
 286              		.cfi_endproc
 287              	.LFE41:
 288              		.size	setVibDuration, .-setVibDuration
 289              		.section	.text.AppCallBack,"ax",%progbits
 290              		.align	2
 291              		.global	AppCallBack
 292              		.code	16
 293              		.thumb_func
 294              		.type	AppCallBack, %function
 295              	AppCallBack:
 296              	.LFB43:
 124:main.c        **** 
 125:main.c        **** 
 126:main.c        **** void AppCallBack(uint32 event, void* eventParam);
 127:main.c        **** 
 128:main.c        **** 
 129:main.c        **** /***************************************************************
 130:main.c        ****  * Function to update the LED state in the GATT database
 131:main.c        ****  **************************************************************/
 132:main.c        **** void updateLed()
 133:main.c        **** {
 134:main.c        ****     CYBLE_GATTS_HANDLE_VALUE_NTF_T 	tempHandle;
 135:main.c        ****    
 136:main.c        ****     //uint8 red_State = !red_Read();
 137:main.c        ****     
 138:main.c        ****     if(CyBle_GetState() != CYBLE_STATE_CONNECTED)
 139:main.c        ****         return;
 140:main.c        ****     
 141:main.c        ****     tempHandle.attrHandle = CYBLE_LEDCAPSENSE_LED_CHAR_HANDLE;
 142:main.c        ****   	//tempHandle.value.val = (uint8 *) &red_State;
 143:main.c        ****     tempHandle.value.len = 1;
 144:main.c        ****     CyBle_GattsWriteAttributeValue(&tempHandle,0,&cyBle_connHandle,CYBLE_GATT_DB_LOCALLY_INITIATED)
 145:main.c        **** }
 146:main.c        ****     
 147:main.c        **** 
 148:main.c        **** /***************************************************************
 149:main.c        ****  * Function to handle the BLE stack
 150:main.c        ****  **************************************************************/
 151:main.c        **** void AppCallBack(uint32 event, void* eventParam)
 152:main.c        **** {
 297              		.loc 1 152 0
 298              		.cfi_startproc
 299              	.LVL10:
 300 0000 30B5     		push	{r4, r5, lr}
 301              		.cfi_def_cfa_offset 12
 302              		.cfi_offset 4, -12
 303              		.cfi_offset 5, -8
 304              		.cfi_offset 14, -4
ARM GAS  C:\Users\rdeiaco\AppData\Local\Temp\ccihrpjo.s 			page 9


 305 0002 B7B0     		sub	sp, sp, #220
 306              		.cfi_def_cfa_offset 232
 307 0004 041C     		mov	r4, r0
 308 0006 0D1C     		mov	r5, r1
 153:main.c        ****     char str[100];
 154:main.c        ****     CYBLE_GATTS_WRITE_REQ_PARAM_T *wrReqParam;
 155:main.c        ****     
 156:main.c        ****     CYBLE_GAP_AUTH_INFO_T *authInfo;
 157:main.c        **** 
 158:main.c        ****     UART_PutString("CY8CKIT-042 USB-UART");
 309              		.loc 1 158 0
 310 0008 BA48     		ldr	r0, .L63
 311              	.LVL11:
 312 000a FFF7FEFF 		bl	UART_PutString
 313              	.LVL12:
 159:main.c        **** 
 160:main.c        ****     UART_PutString("event: ");
 314              		.loc 1 160 0
 315 000e BA48     		ldr	r0, .L63+4
 316 0010 FFF7FEFF 		bl	UART_PutString
 317              	.LVL13:
 161:main.c        ****     
 162:main.c        ****     sprintf(str, "%lu\n", event);
 318              		.loc 1 162 0
 319 0014 1DA8     		add	r0, sp, #116
 320 0016 B949     		ldr	r1, .L63+8
 321 0018 221C     		mov	r2, r4
 322 001a FFF7FEFF 		bl	sprintf
 323              	.LVL14:
 163:main.c        ****     UART_PutString(str);
 324              		.loc 1 163 0
 325 001e 1DA8     		add	r0, sp, #116
 326 0020 FFF7FEFF 		bl	UART_PutString
 327              	.LVL15:
 164:main.c        ****     
 165:main.c        ****     CYBLE_API_RESULT_T apiResult;
 166:main.c        ****     CYBLE_GAP_BD_ADDR_T localAddr;
 167:main.c        ****     uint8 i;
 168:main.c        ****     
 169:main.c        ****     switch(event)
 328              		.loc 1 169 0
 329 0024 4C2C     		cmp	r4, #76
 330 0026 00D9     		bls	.LCB259
 331 0028 5EE1     		b	.L30	@long jump
 332              	.LCB259:
 333 002a A400     		lsl	r4, r4, #2
 334              	.LVL16:
 335 002c B44B     		ldr	r3, .L63+12
 336 002e 1B59     		ldr	r3, [r3, r4]
 337 0030 9F46     		mov	pc, r3
 338              		.section	.rodata
 339              		.align	2
 340              	.L32:
 341 0000 E8020000 		.word	.L30
 342 0004 32000000 		.word	.L31
 343 0008 B2000000 		.word	.L33
 344 000c BA000000 		.word	.L34
ARM GAS  C:\Users\rdeiaco\AppData\Local\Temp\ccihrpjo.s 			page 10


 345 0010 D2000000 		.word	.L35
 346 0014 C2000000 		.word	.L36
 347 0018 E8020000 		.word	.L30
 348 001c E8020000 		.word	.L30
 349 0020 E8020000 		.word	.L30
 350 0024 E8020000 		.word	.L30
 351 0028 E8020000 		.word	.L30
 352 002c E8020000 		.word	.L30
 353 0030 E8020000 		.word	.L30
 354 0034 E8020000 		.word	.L30
 355 0038 E8020000 		.word	.L30
 356 003c E8020000 		.word	.L30
 357 0040 E8020000 		.word	.L30
 358 0044 E8020000 		.word	.L30
 359 0048 E8020000 		.word	.L30
 360 004c E8020000 		.word	.L30
 361 0050 E8020000 		.word	.L30
 362 0054 E8020000 		.word	.L30
 363 0058 E8020000 		.word	.L30
 364 005c E8020000 		.word	.L30
 365 0060 E8020000 		.word	.L30
 366 0064 E8020000 		.word	.L30
 367 0068 E8020000 		.word	.L30
 368 006c E8020000 		.word	.L30
 369 0070 E8020000 		.word	.L30
 370 0074 E8020000 		.word	.L30
 371 0078 E8020000 		.word	.L30
 372 007c E8020000 		.word	.L30
 373 0080 E8020000 		.word	.L30
 374 0084 E4000000 		.word	.L37
 375 0088 00010000 		.word	.L38
 376 008c 12010000 		.word	.L39
 377 0090 2C010000 		.word	.L40
 378 0094 48010000 		.word	.L41
 379 0098 5A010000 		.word	.L42
 380 009c 7C010000 		.word	.L43
 381 00a0 A4000000 		.word	.L44
 382 00a4 A6010000 		.word	.L45
 383 00a8 E8020000 		.word	.L30
 384 00ac B8010000 		.word	.L46
 385 00b0 E8020000 		.word	.L30
 386 00b4 24010000 		.word	.L47
 387 00b8 E8020000 		.word	.L30
 388 00bc E8020000 		.word	.L30
 389 00c0 E8020000 		.word	.L30
 390 00c4 E8020000 		.word	.L30
 391 00c8 E8020000 		.word	.L30
 392 00cc E8020000 		.word	.L30
 393 00d0 E8020000 		.word	.L30
 394 00d4 E8020000 		.word	.L30
 395 00d8 E8020000 		.word	.L30
 396 00dc E8020000 		.word	.L30
 397 00e0 E8020000 		.word	.L30
 398 00e4 E8020000 		.word	.L30
 399 00e8 E8020000 		.word	.L30
 400 00ec E8020000 		.word	.L30
 401 00f0 E8020000 		.word	.L30
ARM GAS  C:\Users\rdeiaco\AppData\Local\Temp\ccihrpjo.s 			page 11


 402 00f4 E8020000 		.word	.L30
 403 00f8 E8020000 		.word	.L30
 404 00fc E8020000 		.word	.L30
 405 0100 E8020000 		.word	.L30
 406 0104 CA010000 		.word	.L48
 407 0108 D2010000 		.word	.L49
 408 010c 8C010000 		.word	.L50
 409 0110 E8020000 		.word	.L30
 410 0114 E8020000 		.word	.L30
 411 0118 E8020000 		.word	.L30
 412 011c E8020000 		.word	.L30
 413 0120 E8020000 		.word	.L30
 414 0124 E8020000 		.word	.L30
 415 0128 E8020000 		.word	.L30
 416 012c E8020000 		.word	.L30
 417 0130 DA010000 		.word	.L51
 418              		.section	.text.AppCallBack
 419              	.L31:
 420              	.LBB2:
 170:main.c        ****     {
 171:main.c        ****         /* if there is a disconnect or the stack just turned on from a reset then start the adverti
 172:main.c        ****         
 173:main.c        ****         case CYBLE_EVT_STACK_ON: 
 174:main.c        ****         /* Enter into discoverable mode so that remote can search it. */
 175:main.c        ****             apiResult = CyBle_GappStartAdvertisement(CYBLE_ADVERTISING_FAST);
 421              		.loc 1 175 0
 422 0032 0020     		mov	r0, #0
 423 0034 FFF7FEFF 		bl	CyBle_GappStartAdvertisement
 424              	.LVL17:
 425 0038 021E     		sub	r2, r0, #0
 426              	.LVL18:
 176:main.c        ****             if(apiResult != CYBLE_ERROR_OK)
 427              		.loc 1 176 0
 428 003a 06D0     		beq	.L52
 177:main.c        ****             {
 178:main.c        ****                 sprintf(str, "StartAdvertisement API Error: %d \r\n", apiResult);
 429              		.loc 1 178 0
 430 003c 1DA8     		add	r0, sp, #116
 431              	.LVL19:
 432 003e B149     		ldr	r1, .L63+16
 433 0040 FFF7FEFF 		bl	sprintf
 434              	.LVL20:
 179:main.c        ****                 UART_PutString(str);
 435              		.loc 1 179 0
 436 0044 1DA8     		add	r0, sp, #116
 437 0046 FFF7FEFF 		bl	UART_PutString
 438              	.LVL21:
 439              	.L52:
 180:main.c        ****             }
 181:main.c        ****             sprintf(str,"Bluetooth On, StartAdvertisement with addr: ");
 440              		.loc 1 181 0
 441 004a 1DA8     		add	r0, sp, #116
 442 004c AE49     		ldr	r1, .L63+20
 443 004e 031C     		mov	r3, r0
 444 0050 0A1C     		mov	r2, r1
 445 0052 32CA     		ldmia	r2!, {r1, r4, r5}
 446 0054 32C3     		stmia	r3!, {r1, r4, r5}
ARM GAS  C:\Users\rdeiaco\AppData\Local\Temp\ccihrpjo.s 			page 12


 447              	.LVL22:
 448 0056 32CA     		ldmia	r2!, {r1, r4, r5}
 449 0058 32C3     		stmia	r3!, {r1, r4, r5}
 450 005a 32CA     		ldmia	r2!, {r1, r4, r5}
 451 005c 32C3     		stmia	r3!, {r1, r4, r5}
 452 005e 12CA     		ldmia	r2!, {r1, r4}
 453 0060 12C3     		stmia	r3!, {r1, r4}
 454 0062 1278     		ldrb	r2, [r2]
 455 0064 1A70     		strb	r2, [r3]
 182:main.c        ****             UART_PutString(str);
 456              		.loc 1 182 0
 457 0066 FFF7FEFF 		bl	UART_PutString
 458              	.LVL23:
 183:main.c        ****             localAddr.type = 0u;
 459              		.loc 1 183 0
 460 006a 1BA8     		add	r0, sp, #108
 461 006c 0023     		mov	r3, #0
 462 006e 8371     		strb	r3, [r0, #6]
 184:main.c        ****             CyBle_GetDeviceAddress(&localAddr);
 463              		.loc 1 184 0
 464 0070 FFF7FEFF 		bl	CyBle_GetDeviceAddress
 465              	.LVL24:
 185:main.c        ****             for(i = CYBLE_GAP_BD_ADDR_SIZE; i > 0u; i--)
 466              		.loc 1 185 0
 467 0074 0623     		mov	r3, #6
 468 0076 0AE0     		b	.L53
 469              	.LVL25:
 470              	.L54:
 186:main.c        ****             {
 187:main.c        ****                 sprintf(str,"%2.2x", localAddr.bdAddr[i-1]);
 471              		.loc 1 187 0 discriminator 3
 472 0078 5C1E     		sub	r4, r3, #1
 473 007a 1BAB     		add	r3, sp, #108
 474              	.LVL26:
 475 007c 1A5D     		ldrb	r2, [r3, r4]
 476 007e 1DA8     		add	r0, sp, #116
 477 0080 A249     		ldr	r1, .L63+24
 478 0082 FFF7FEFF 		bl	sprintf
 479              	.LVL27:
 188:main.c        ****                 UART_PutString(str);
 480              		.loc 1 188 0 discriminator 3
 481 0086 1DA8     		add	r0, sp, #116
 482 0088 FFF7FEFF 		bl	UART_PutString
 483              	.LVL28:
 185:main.c        ****             for(i = CYBLE_GAP_BD_ADDR_SIZE; i > 0u; i--)
 484              		.loc 1 185 0 discriminator 3
 485 008c E3B2     		uxtb	r3, r4
 486              	.LVL29:
 487              	.L53:
 185:main.c        ****             for(i = CYBLE_GAP_BD_ADDR_SIZE; i > 0u; i--)
 488              		.loc 1 185 0 is_stmt 0 discriminator 1
 489 008e 002B     		cmp	r3, #0
 490 0090 F2D1     		bne	.L54
 189:main.c        ****             }
 190:main.c        ****             sprintf(str,"\r\n");
 491              		.loc 1 190 0 is_stmt 1
 492 0092 1DA8     		add	r0, sp, #116
ARM GAS  C:\Users\rdeiaco\AppData\Local\Temp\ccihrpjo.s 			page 13


 493 0094 9E4B     		ldr	r3, .L63+28
 494              	.LVL30:
 495 0096 1A88     		ldrh	r2, [r3]
 496 0098 0280     		strh	r2, [r0]
 497 009a 9B78     		ldrb	r3, [r3, #2]
 498 009c 8370     		strb	r3, [r0, #2]
 191:main.c        ****             UART_PutString(str);
 499              		.loc 1 191 0
 500 009e FFF7FEFF 		bl	UART_PutString
 501              	.LVL31:
 192:main.c        ****             
 193:main.c        ****             break;
 502              		.loc 1 193 0
 503 00a2 24E1     		b	.L29
 504              	.LVL32:
 505              	.L44:
 194:main.c        ****         case CYBLE_EVT_GAP_DEVICE_DISCONNECTED:
 195:main.c        ****             UART_PutString("Disconnected\n");
 506              		.loc 1 195 0
 507 00a4 9B48     		ldr	r0, .L63+32
 508 00a6 FFF7FEFF 		bl	UART_PutString
 509              	.LVL33:
 196:main.c        ****             CyBle_GappStartAdvertisement(CYBLE_ADVERTISING_FAST);
 510              		.loc 1 196 0
 511 00aa 0020     		mov	r0, #0
 512 00ac FFF7FEFF 		bl	CyBle_GappStartAdvertisement
 513              	.LVL34:
 197:main.c        ****             //blue_Write(0);
 198:main.c        ****             //red_Write(1);
 199:main.c        ****         break;
 514              		.loc 1 199 0
 515 00b0 1DE1     		b	.L29
 516              	.L33:
 200:main.c        ****         case CYBLE_EVT_TIMEOUT: 
 201:main.c        ****             UART_PutString("Timeout\n");
 517              		.loc 1 201 0
 518 00b2 9948     		ldr	r0, .L63+36
 519 00b4 FFF7FEFF 		bl	UART_PutString
 520              	.LVL35:
 202:main.c        ****         break;
 521              		.loc 1 202 0
 522 00b8 19E1     		b	.L29
 523              	.L34:
 203:main.c        ****         /* This event indicates that some internal HW error has occurred. */
 204:main.c        ****         case CYBLE_EVT_HARDWARE_ERROR:
 205:main.c        ****             UART_PutString("CYBLE_EVT_HARDWARE_ERROR \r\n");
 524              		.loc 1 205 0
 525 00ba 9848     		ldr	r0, .L63+40
 526 00bc FFF7FEFF 		bl	UART_PutString
 527              	.LVL36:
 206:main.c        ****         break;
 528              		.loc 1 206 0
 529 00c0 15E1     		b	.L29
 530              	.L36:
 207:main.c        ****             
 208:main.c        ****         /* This event will be triggered by host stack if BLE stack is busy or not busy.
 209:main.c        ****          *  Parameter corresponding to this event will be the state of BLE stack.
ARM GAS  C:\Users\rdeiaco\AppData\Local\Temp\ccihrpjo.s 			page 14


 210:main.c        ****          *  BLE stack busy = CYBLE_STACK_STATE_BUSY,
 211:main.c        ****          *  BLE stack not busy = CYBLE_STACK_STATE_FREE 
 212:main.c        ****          */
 213:main.c        ****         case CYBLE_EVT_STACK_BUSY_STATUS:
 214:main.c        ****             sprintf(str,"EVT_STACK_BUSY_STATUS: %x\r\n", *(uint8 *)eventParam);
 531              		.loc 1 214 0
 532 00c2 2A78     		ldrb	r2, [r5]
 533 00c4 1DA8     		add	r0, sp, #116
 534 00c6 9649     		ldr	r1, .L63+44
 535 00c8 FFF7FEFF 		bl	sprintf
 536              	.LVL37:
 215:main.c        ****             UART_PutString(str);
 537              		.loc 1 215 0
 538 00cc 1DA8     		add	r0, sp, #116
 539 00ce FFF7FEFF 		bl	UART_PutString
 540              	.LVL38:
 541              	.L35:
 216:main.c        ****         case CYBLE_EVT_HCI_STATUS:
 217:main.c        ****             sprintf(str,"EVT_HCI_STATUS: %x \r\n", *(uint8 *)eventParam);
 542              		.loc 1 217 0
 543 00d2 2A78     		ldrb	r2, [r5]
 544 00d4 1DA8     		add	r0, sp, #116
 545 00d6 9349     		ldr	r1, .L63+48
 546 00d8 FFF7FEFF 		bl	sprintf
 547              	.LVL39:
 218:main.c        ****             UART_PutString(str);
 548              		.loc 1 218 0
 549 00dc 1DA8     		add	r0, sp, #116
 550 00de FFF7FEFF 		bl	UART_PutString
 551              	.LVL40:
 219:main.c        ****         break;
 552              		.loc 1 219 0
 553 00e2 04E1     		b	.L29
 554              	.L37:
 220:main.c        ****             
 221:main.c        ****             
 222:main.c        ****         /**********************************************************
 223:main.c        ****         *                       GAP Events
 224:main.c        ****         ***********************************************************/
 225:main.c        ****         case CYBLE_EVT_GAP_AUTH_REQ:
 226:main.c        ****             sprintf(str, "EVT_AUTH_REQ: security=%x, bonding=%x, ekeySize=%x, err=%x \r\n", 
 227:main.c        ****                 (*(CYBLE_GAP_AUTH_INFO_T *)eventParam).security, 
 555              		.loc 1 227 0
 556 00e4 2A78     		ldrb	r2, [r5]
 228:main.c        ****                 (*(CYBLE_GAP_AUTH_INFO_T *)eventParam).bonding, 
 557              		.loc 1 228 0
 558 00e6 6B78     		ldrb	r3, [r5, #1]
 229:main.c        ****                 (*(CYBLE_GAP_AUTH_INFO_T *)eventParam).ekeySize, 
 559              		.loc 1 229 0
 560 00e8 A878     		ldrb	r0, [r5, #2]
 230:main.c        ****                 (*(CYBLE_GAP_AUTH_INFO_T *)eventParam).authErr);
 561              		.loc 1 230 0
 562 00ea E978     		ldrb	r1, [r5, #3]
 226:main.c        ****                 (*(CYBLE_GAP_AUTH_INFO_T *)eventParam).security, 
 563              		.loc 1 226 0
 564 00ec 0090     		str	r0, [sp]
 565 00ee 0191     		str	r1, [sp, #4]
ARM GAS  C:\Users\rdeiaco\AppData\Local\Temp\ccihrpjo.s 			page 15


 566 00f0 1DA8     		add	r0, sp, #116
 567 00f2 8D49     		ldr	r1, .L63+52
 568 00f4 FFF7FEFF 		bl	sprintf
 569              	.LVL41:
 231:main.c        ****             UART_PutString(str);
 570              		.loc 1 231 0
 571 00f8 1DA8     		add	r0, sp, #116
 572 00fa FFF7FEFF 		bl	UART_PutString
 573              	.LVL42:
 232:main.c        ****             break;
 574              		.loc 1 232 0
 575 00fe F6E0     		b	.L29
 576              	.L38:
 233:main.c        ****         case CYBLE_EVT_GAP_PASSKEY_ENTRY_REQUEST:
 234:main.c        ****             sprintf(str, "EVT_PASSKEY_ENTRY_REQUEST press 'p' to enter passkey \r\n");
 577              		.loc 1 234 0
 578 0100 1DA8     		add	r0, sp, #116
 579 0102 8A49     		ldr	r1, .L63+56
 580 0104 3822     		mov	r2, #56
 581 0106 FFF7FEFF 		bl	memcpy
 582              	.LVL43:
 235:main.c        ****             UART_PutString(str);
 583              		.loc 1 235 0
 584 010a 1DA8     		add	r0, sp, #116
 585 010c FFF7FEFF 		bl	UART_PutString
 586              	.LVL44:
 236:main.c        ****             break;
 587              		.loc 1 236 0
 588 0110 EDE0     		b	.L29
 589              	.L39:
 237:main.c        ****         case CYBLE_EVT_GAP_PASSKEY_DISPLAY_REQUEST:
 238:main.c        ****             sprintf(str, "EVT_PASSKEY_DISPLAY_REQUEST %6.6ld \r\n", *(uint32 *)eventParam);
 590              		.loc 1 238 0
 591 0112 2A68     		ldr	r2, [r5]
 592 0114 1DA8     		add	r0, sp, #116
 593 0116 8649     		ldr	r1, .L63+60
 594 0118 FFF7FEFF 		bl	sprintf
 595              	.LVL45:
 239:main.c        ****             UART_PutString(str);
 596              		.loc 1 239 0
 597 011c 1DA8     		add	r0, sp, #116
 598 011e FFF7FEFF 		bl	UART_PutString
 599              	.LVL46:
 240:main.c        ****             break;
 600              		.loc 1 240 0
 601 0122 E4E0     		b	.L29
 602              	.L47:
 241:main.c        ****         case CYBLE_EVT_GAP_KEYINFO_EXCHNGE_CMPLT:
 242:main.c        ****             UART_PutString("EVT_GAP_KEYINFO_EXCHNGE_CMPLT \r\n");
 603              		.loc 1 242 0
 604 0124 8348     		ldr	r0, .L63+64
 605 0126 FFF7FEFF 		bl	UART_PutString
 606              	.LVL47:
 243:main.c        ****             break;
 607              		.loc 1 243 0
 608 012a E0E0     		b	.L29
 609              	.L40:
ARM GAS  C:\Users\rdeiaco\AppData\Local\Temp\ccihrpjo.s 			page 16


 610              	.LVL48:
 244:main.c        ****         case CYBLE_EVT_GAP_AUTH_COMPLETE:
 245:main.c        ****             #if (DEBUG_UART_ENABLED == YES)
 246:main.c        ****             authInfo = (CYBLE_GAP_AUTH_INFO_T *)eventParam;
 247:main.c        ****             sprintf(str, "AUTH_COMPLETE: security:%x, bonding:%x, ekeySize:%x, authErr %x \r\n", 
 248:main.c        ****                                     authInfo->security, authInfo->bonding, authInfo->ekeySize, auth
 611              		.loc 1 248 0
 612 012c 2A78     		ldrb	r2, [r5]
 613 012e 6B78     		ldrb	r3, [r5, #1]
 614 0130 A878     		ldrb	r0, [r5, #2]
 615 0132 E978     		ldrb	r1, [r5, #3]
 247:main.c        ****                                     authInfo->security, authInfo->bonding, authInfo->ekeySize, auth
 616              		.loc 1 247 0
 617 0134 0090     		str	r0, [sp]
 618 0136 0191     		str	r1, [sp, #4]
 619 0138 1DA8     		add	r0, sp, #116
 620 013a 7F49     		ldr	r1, .L63+68
 621 013c FFF7FEFF 		bl	sprintf
 622              	.LVL49:
 249:main.c        ****             UART_PutString(str);
 623              		.loc 1 249 0
 624 0140 1DA8     		add	r0, sp, #116
 625 0142 FFF7FEFF 		bl	UART_PutString
 626              	.LVL50:
 250:main.c        ****             #endif /* (DEBUG_UART_ENABLED == YES) */
 251:main.c        ****             break;
 627              		.loc 1 251 0
 628 0146 D2E0     		b	.L29
 629              	.LVL51:
 630              	.L41:
 252:main.c        ****         case CYBLE_EVT_GAP_AUTH_FAILED:
 253:main.c        ****             sprintf(str, "EVT_AUTH_FAILED: %x \r\n", *(uint8 *)eventParam);
 631              		.loc 1 253 0
 632 0148 2A78     		ldrb	r2, [r5]
 633 014a 1DA8     		add	r0, sp, #116
 634 014c 7B49     		ldr	r1, .L63+72
 635 014e FFF7FEFF 		bl	sprintf
 636              	.LVL52:
 254:main.c        ****             UART_PutString(str);
 637              		.loc 1 254 0
 638 0152 1DA8     		add	r0, sp, #116
 639 0154 FFF7FEFF 		bl	UART_PutString
 640              	.LVL53:
 255:main.c        ****             break;
 641              		.loc 1 255 0
 642 0158 C9E0     		b	.L29
 643              	.L42:
 256:main.c        ****         case CYBLE_EVT_GAPP_ADVERTISEMENT_START_STOP:
 257:main.c        ****             sprintf(str, "EVT_ADVERTISING, state: %x \r\n", CyBle_GetState());
 644              		.loc 1 257 0
 645 015a 794C     		ldr	r4, .L63+76
 646 015c 2278     		ldrb	r2, [r4]
 647 015e 1DA8     		add	r0, sp, #116
 648 0160 7849     		ldr	r1, .L63+80
 649 0162 FFF7FEFF 		bl	sprintf
 650              	.LVL54:
 258:main.c        ****             UART_PutString(str);
ARM GAS  C:\Users\rdeiaco\AppData\Local\Temp\ccihrpjo.s 			page 17


 651              		.loc 1 258 0
 652 0166 1DA8     		add	r0, sp, #116
 653 0168 FFF7FEFF 		bl	UART_PutString
 654              	.LVL55:
 259:main.c        ****             if(CYBLE_STATE_DISCONNECTED == CyBle_GetState())
 655              		.loc 1 259 0
 656 016c 2378     		ldrb	r3, [r4]
 657 016e 042B     		cmp	r3, #4
 658 0170 00D0     		beq	.LCB503
 659 0172 BCE0     		b	.L29	@long jump
 660              	.LCB503:
 260:main.c        ****             {   
 261:main.c        ****                 /* Fast and slow advertising period complete, go to low power  
 262:main.c        ****                  * mode (Hibernate mode) and wait for an external
 263:main.c        ****                  * user event to wake up the device again */
 264:main.c        ****                 UART_PutString("Hibernate \r\n");
 661              		.loc 1 264 0
 662 0174 7448     		ldr	r0, .L63+84
 663 0176 FFF7FEFF 		bl	UART_PutString
 664              	.LVL56:
 665 017a B8E0     		b	.L29
 666              	.L43:
 265:main.c        ****             }
 266:main.c        ****             break;
 267:main.c        ****         case CYBLE_EVT_GAP_DEVICE_CONNECTED:
 268:main.c        ****             UART_PutString("EVT_GAP_DEVICE_CONNECTED \r\n");
 667              		.loc 1 268 0
 668 017c 7348     		ldr	r0, .L63+88
 669 017e FFF7FEFF 		bl	UART_PutString
 670              	.LVL57:
 269:main.c        ****             CyBle_GapFixAuthPassKey (1, 123456);
 671              		.loc 1 269 0
 672 0182 0120     		mov	r0, #1
 673 0184 7249     		ldr	r1, .L63+92
 674 0186 FFF7FEFF 		bl	CyBle_GapFixAuthPassKey
 675              	.LVL58:
 270:main.c        ****             break;
 676              		.loc 1 270 0
 677 018a B0E0     		b	.L29
 678              	.L50:
 679              	.LBB3:
 271:main.c        **** 
 272:main.c        ****         case CYBLE_EVT_GATTS_XCNHG_MTU_REQ:
 273:main.c        ****             { 
 274:main.c        ****                 uint16 mtu;
 275:main.c        ****                 CyBle_GattGetMtuSize(&mtu);
 680              		.loc 1 275 0 discriminator 2
 681 018c 02AC     		add	r4, sp, #8
 682 018e 201C     		mov	r0, r4
 683 0190 FFF7FEFF 		bl	CyBle_GattGetMtuSize
 684              	.LVL59:
 276:main.c        ****                 sprintf(str, "CYBLE_EVT_GATTS_XCNHG_MTU_REQ, final mtu= %d \r\n", mtu);
 685              		.loc 1 276 0 discriminator 2
 686 0194 2288     		ldrh	r2, [r4]
 687 0196 1DA8     		add	r0, sp, #116
 688 0198 6E49     		ldr	r1, .L63+96
 689 019a FFF7FEFF 		bl	sprintf
ARM GAS  C:\Users\rdeiaco\AppData\Local\Temp\ccihrpjo.s 			page 18


 690              	.LVL60:
 277:main.c        ****                 UART_PutString(str);
 691              		.loc 1 277 0 discriminator 2
 692 019e 1DA8     		add	r0, sp, #116
 693 01a0 FFF7FEFF 		bl	UART_PutString
 694              	.LVL61:
 695              	.LBE3:
 278:main.c        ****             }
 279:main.c        ****             break;
 696              		.loc 1 279 0 discriminator 2
 697 01a4 A3E0     		b	.L29
 698              	.L45:
 280:main.c        ****         case CYBLE_EVT_GAP_ENCRYPT_CHANGE:
 281:main.c        ****             sprintf(str, "EVT_GAP_ENCRYPT_CHANGE: %x \r\n", *(uint8 *)eventParam);
 699              		.loc 1 281 0
 700 01a6 2A78     		ldrb	r2, [r5]
 701 01a8 1DA8     		add	r0, sp, #116
 702 01aa 6B49     		ldr	r1, .L63+100
 703 01ac FFF7FEFF 		bl	sprintf
 704              	.LVL62:
 282:main.c        ****             UART_PutString(str);
 705              		.loc 1 282 0
 706 01b0 1DA8     		add	r0, sp, #116
 707 01b2 FFF7FEFF 		bl	UART_PutString
 708              	.LVL63:
 283:main.c        ****             break;
 709              		.loc 1 283 0
 710 01b6 9AE0     		b	.L29
 711              	.L46:
 284:main.c        ****         case CYBLE_EVT_GAPC_CONNECTION_UPDATE_COMPLETE:
 285:main.c        ****             sprintf(str, "EVT_CONNECTION_UPDATE_COMPLETE: %x \r\n", *(uint8 *)eventParam);
 712              		.loc 1 285 0
 713 01b8 2A78     		ldrb	r2, [r5]
 714 01ba 1DA8     		add	r0, sp, #116
 715 01bc 6749     		ldr	r1, .L63+104
 716 01be FFF7FEFF 		bl	sprintf
 717              	.LVL64:
 286:main.c        ****             UART_PutString(str);
 718              		.loc 1 286 0
 719 01c2 1DA8     		add	r0, sp, #116
 720 01c4 FFF7FEFF 		bl	UART_PutString
 721              	.LVL65:
 287:main.c        ****             break;
 722              		.loc 1 287 0
 723 01c8 91E0     		b	.L29
 724              	.L48:
 288:main.c        ****             
 289:main.c        ****             
 290:main.c        ****         /***********************************************************/
 291:main.c        ****         
 292:main.c        ****         /* when a connection is made, update the LED and Capsense states in the GATT database and s
 293:main.c        ****         case CYBLE_EVT_GATT_CONNECT_IND:
 294:main.c        ****             UART_PutString("GATT_CONNECT_IND\n");  
 725              		.loc 1 294 0
 726 01ca 6548     		ldr	r0, .L63+108
 727 01cc FFF7FEFF 		bl	UART_PutString
 728              	.LVL66:
ARM GAS  C:\Users\rdeiaco\AppData\Local\Temp\ccihrpjo.s 			page 19


 295:main.c        ****             //blue_Write(1);
 296:main.c        **** 		break;
 729              		.loc 1 296 0
 730 01d0 8DE0     		b	.L29
 731              	.L49:
 297:main.c        ****         case CYBLE_EVT_GATT_DISCONNECT_IND:
 298:main.c        ****             UART_PutString("GATT_DISCONNECT_IND\n");
 732              		.loc 1 298 0
 733 01d2 6448     		ldr	r0, .L63+112
 734 01d4 FFF7FEFF 		bl	UART_PutString
 735              	.LVL67:
 299:main.c        ****         break;
 736              		.loc 1 299 0
 737 01d8 89E0     		b	.L29
 738              	.L51:
 739              	.LVL68:
 300:main.c        **** 
 301:main.c        ****         /* handle a write request */
 302:main.c        ****         case CYBLE_EVT_GATTS_WRITE_REQ:
 303:main.c        ****             wrReqParam = (CYBLE_GATTS_WRITE_REQ_PARAM_T *) eventParam;
 304:main.c        ****             
 305:main.c        ****             char str[100];
 306:main.c        ****             sprintf(str, "attrHandle = %d \n", (int)(wrReqParam->handleValPair.attrHandle));
 740              		.loc 1 306 0
 741 01da AA89     		ldrh	r2, [r5, #12]
 742 01dc 02A8     		add	r0, sp, #8
 743 01de 6249     		ldr	r1, .L63+116
 744 01e0 FFF7FEFF 		bl	sprintf
 745              	.LVL69:
 307:main.c        ****             UART_PutString(str);
 746              		.loc 1 307 0
 747 01e4 02A8     		add	r0, sp, #8
 748 01e6 FFF7FEFF 		bl	UART_PutString
 749              	.LVL70:
 308:main.c        **** 			      
 309:main.c        ****             /* request write the LED value */
 310:main.c        ****             if(wrReqParam->handleValPair.attrHandle == CYBLE_LEDCAPSENSE_LED_CHAR_HANDLE)
 750              		.loc 1 310 0
 751 01ea AB89     		ldrh	r3, [r5, #12]
 752 01ec 0E2B     		cmp	r3, #14
 753 01ee 0ED1     		bne	.L56
 311:main.c        ****             {
 312:main.c        ****                 /* only update the value and write the response if the requested write is allowed *
 313:main.c        ****                 if(CYBLE_GATT_ERR_NONE == CyBle_GattsWriteAttributeValue(&wrReqParam->handleValPair
 754              		.loc 1 313 0
 755 01f0 281D     		add	r0, r5, #4
 756 01f2 0021     		mov	r1, #0
 757 01f4 5D4A     		ldr	r2, .L63+120
 758 01f6 3233     		add	r3, r3, #50
 759 01f8 FFF7FEFF 		bl	CyBle_GattsWriteAttributeValue
 760              	.LVL71:
 761 01fc 0028     		cmp	r0, #0
 762 01fe 06D1     		bne	.L56
 314:main.c        ****                 {
 315:main.c        ****                     CyBle_GattsWriteRsp(cyBle_connHandle);
 763              		.loc 1 315 0
 764 0200 5A4A     		ldr	r2, .L63+120
ARM GAS  C:\Users\rdeiaco\AppData\Local\Temp\ccihrpjo.s 			page 20


 765 0202 1378     		ldrb	r3, [r2]
 766 0204 5078     		ldrb	r0, [r2, #1]
 767 0206 0002     		lsl	r0, r0, #8
 768 0208 1843     		orr	r0, r3
 769 020a FFF7FEFF 		bl	CyBle_GattsWriteRsp
 770              	.LVL72:
 771              	.L56:
 316:main.c        ****                 }
 317:main.c        ****             }
 318:main.c        ****             
 319:main.c        ****             /* request to update the CapSense notification */
 320:main.c        ****             if(wrReqParam->handleValPair.attrHandle == CYBLE_LEDCAPSENSE_CAPSENSE_CAPSENSECCCD_DESC
 772              		.loc 1 320 0
 773 020e AB89     		ldrh	r3, [r5, #12]
 774 0210 122B     		cmp	r3, #18
 775 0212 0CD1     		bne	.L57
 321:main.c        ****             {
 322:main.c        ****                 CyBle_GattsWriteAttributeValue(&wrReqParam->handleValPair, 0, &cyBle_connHandle, CY
 776              		.loc 1 322 0
 777 0214 281D     		add	r0, r5, #4
 778 0216 554C     		ldr	r4, .L63+120
 779 0218 0021     		mov	r1, #0
 780 021a 221C     		mov	r2, r4
 781 021c 2E33     		add	r3, r3, #46
 782 021e FFF7FEFF 		bl	CyBle_GattsWriteAttributeValue
 783              	.LVL73:
 323:main.c        ****                 CyBle_GattsWriteRsp(cyBle_connHandle);
 784              		.loc 1 323 0
 785 0222 2378     		ldrb	r3, [r4]
 786 0224 6078     		ldrb	r0, [r4, #1]
 787 0226 0002     		lsl	r0, r0, #8
 788 0228 1843     		orr	r0, r3
 789 022a FFF7FEFF 		bl	CyBle_GattsWriteRsp
 790              	.LVL74:
 791              	.L57:
 324:main.c        ****             }		
 325:main.c        **** 
 326:main.c        ****             /* Request to change the vibration intensity -> between mute, low, medium, and high */
 327:main.c        ****             if (wrReqParam->handleValPair.attrHandle == CYBLE_LEDCAPSENSE_VIBINTENSITY_CHAR_HANDLE)
 792              		.loc 1 327 0
 793 022e AB89     		ldrh	r3, [r5, #12]
 794 0230 152B     		cmp	r3, #21
 795 0232 0AD1     		bne	.L58
 328:main.c        ****             {
 329:main.c        ****                 setVibIntensity(wrReqParam->handleValPair.value.val[0]);
 796              		.loc 1 329 0
 797 0234 6B68     		ldr	r3, [r5, #4]
 798 0236 1878     		ldrb	r0, [r3]
 799 0238 FFF7FEFF 		bl	setVibIntensity
 800              	.LVL75:
 330:main.c        ****                 CyBle_GattsWriteRsp(cyBle_connHandle);
 801              		.loc 1 330 0
 802 023c 4B4A     		ldr	r2, .L63+120
 803 023e 1378     		ldrb	r3, [r2]
 804 0240 5078     		ldrb	r0, [r2, #1]
 805 0242 0002     		lsl	r0, r0, #8
 806 0244 1843     		orr	r0, r3
ARM GAS  C:\Users\rdeiaco\AppData\Local\Temp\ccihrpjo.s 			page 21


 807 0246 FFF7FEFF 		bl	CyBle_GattsWriteRsp
 808              	.LVL76:
 809              	.L58:
 331:main.c        ****             }
 332:main.c        ****             
 333:main.c        ****             /* request to update the alarm status notification enablement */
 334:main.c        ****             if(wrReqParam->handleValPair.attrHandle == CYBLE_LEDCAPSENSE_ALARMSTATUS_ALARMSTATUSCCC
 810              		.loc 1 334 0
 811 024a AB89     		ldrh	r3, [r5, #12]
 812 024c 1A2B     		cmp	r3, #26
 813 024e 12D1     		bne	.L59
 335:main.c        ****             {
 336:main.c        ****                 CyBle_GattsWriteAttributeValue(&wrReqParam->handleValPair, 0, &cyBle_connHandle, CY
 814              		.loc 1 336 0
 815 0250 281D     		add	r0, r5, #4
 816 0252 464C     		ldr	r4, .L63+120
 817 0254 0021     		mov	r1, #0
 818 0256 221C     		mov	r2, r4
 819 0258 2633     		add	r3, r3, #38
 820 025a FFF7FEFF 		bl	CyBle_GattsWriteAttributeValue
 821              	.LVL77:
 337:main.c        ****                 alarmNotify = wrReqParam->handleValPair.value.val[0] & 0x01;
 822              		.loc 1 337 0
 823 025e 6B68     		ldr	r3, [r5, #4]
 824 0260 1B78     		ldrb	r3, [r3]
 825 0262 0122     		mov	r2, #1
 826 0264 1340     		and	r3, r2
 827 0266 424A     		ldr	r2, .L63+124
 828 0268 1370     		strb	r3, [r2]
 338:main.c        ****                 CyBle_GattsWriteRsp(cyBle_connHandle);
 829              		.loc 1 338 0
 830 026a 2378     		ldrb	r3, [r4]
 831 026c 6078     		ldrb	r0, [r4, #1]
 832 026e 0002     		lsl	r0, r0, #8
 833 0270 1843     		orr	r0, r3
 834 0272 FFF7FEFF 		bl	CyBle_GattsWriteRsp
 835              	.LVL78:
 836              	.L59:
 339:main.c        ****             }	
 340:main.c        ****             
 341:main.c        ****             /* request to update the alarm status */
 342:main.c        ****             if (wrReqParam->handleValPair.attrHandle == CYBLE_LEDCAPSENSE_ALARMSTATUS_CHAR_HANDLE)
 837              		.loc 1 342 0
 838 0276 AB89     		ldrh	r3, [r5, #12]
 839 0278 182B     		cmp	r3, #24
 840 027a 0AD1     		bne	.L60
 343:main.c        ****             {
 344:main.c        ****                 alarm_state = wrReqParam->handleValPair.value.val[0];
 841              		.loc 1 344 0
 842 027c 6B68     		ldr	r3, [r5, #4]
 843 027e 1A78     		ldrb	r2, [r3]
 844 0280 3C4B     		ldr	r3, .L63+128
 845 0282 1A70     		strb	r2, [r3]
 345:main.c        ****                 
 346:main.c        ****                 CyBle_GattsWriteRsp(cyBle_connHandle);                
 846              		.loc 1 346 0
 847 0284 394A     		ldr	r2, .L63+120
ARM GAS  C:\Users\rdeiaco\AppData\Local\Temp\ccihrpjo.s 			page 22


 848 0286 1378     		ldrb	r3, [r2]
 849 0288 5078     		ldrb	r0, [r2, #1]
 850 028a 0002     		lsl	r0, r0, #8
 851 028c 1843     		orr	r0, r3
 852 028e FFF7FEFF 		bl	CyBle_GattsWriteRsp
 853              	.LVL79:
 854              	.L60:
 347:main.c        ****             }
 348:main.c        ****             
 349:main.c        ****             /* Request to update the vibration duration */
 350:main.c        ****             if (wrReqParam->handleValPair.attrHandle == CYBLE_LEDCAPSENSE_VIBDURATION_CHAR_HANDLE)
 855              		.loc 1 350 0
 856 0292 AB89     		ldrh	r3, [r5, #12]
 857 0294 1C2B     		cmp	r3, #28
 858 0296 0AD1     		bne	.L61
 351:main.c        ****             {
 352:main.c        ****                 setVibDuration(wrReqParam->handleValPair.value.val[0]);
 859              		.loc 1 352 0
 860 0298 6B68     		ldr	r3, [r5, #4]
 861 029a 1878     		ldrb	r0, [r3]
 862 029c FFF7FEFF 		bl	setVibDuration
 863              	.LVL80:
 353:main.c        ****                 CyBle_GattsWriteRsp(cyBle_connHandle); 
 864              		.loc 1 353 0
 865 02a0 324A     		ldr	r2, .L63+120
 866 02a2 1378     		ldrb	r3, [r2]
 867 02a4 5078     		ldrb	r0, [r2, #1]
 868 02a6 0002     		lsl	r0, r0, #8
 869 02a8 1843     		orr	r0, r3
 870 02aa FFF7FEFF 		bl	CyBle_GattsWriteRsp
 871              	.LVL81:
 872              	.L61:
 354:main.c        ****             }
 355:main.c        ****             
 356:main.c        ****             /* Request to update the ambulance's vibration type */
 357:main.c        ****             if (wrReqParam->handleValPair.attrHandle == CYBLE_LEDCAPSENSE_AMBULANCEVIBTYPE_CHAR_HAN
 873              		.loc 1 357 0
 874 02ae AB89     		ldrh	r3, [r5, #12]
 875 02b0 222B     		cmp	r3, #34
 876 02b2 0AD1     		bne	.L62
 358:main.c        ****             {
 359:main.c        ****                 setAmbulanceVibType(wrReqParam->handleValPair.value.val[0]);
 877              		.loc 1 359 0
 878 02b4 6B68     		ldr	r3, [r5, #4]
 879 02b6 1878     		ldrb	r0, [r3]
 880 02b8 FFF7FEFF 		bl	setAmbulanceVibType
 881              	.LVL82:
 360:main.c        ****                 CyBle_GattsWriteRsp(cyBle_connHandle); 
 882              		.loc 1 360 0
 883 02bc 2B4A     		ldr	r2, .L63+120
 884 02be 1378     		ldrb	r3, [r2]
 885 02c0 5078     		ldrb	r0, [r2, #1]
 886 02c2 0002     		lsl	r0, r0, #8
 887 02c4 1843     		orr	r0, r3
 888 02c6 FFF7FEFF 		bl	CyBle_GattsWriteRsp
 889              	.LVL83:
 890              	.L62:
ARM GAS  C:\Users\rdeiaco\AppData\Local\Temp\ccihrpjo.s 			page 23


 361:main.c        ****             }
 362:main.c        ****             
 363:main.c        ****             /* Request to update the fire alarm's vibration type */
 364:main.c        ****             if (wrReqParam->handleValPair.attrHandle == CYBLE_LEDCAPSENSE_ALARMVIBTYPE_CHAR_HANDLE)
 891              		.loc 1 364 0
 892 02ca AB89     		ldrh	r3, [r5, #12]
 893 02cc 1F2B     		cmp	r3, #31
 894 02ce 0ED1     		bne	.L29
 365:main.c        ****             {
 366:main.c        ****                 setFireAlarmVibType(wrReqParam->handleValPair.value.val[0]);
 895              		.loc 1 366 0
 896 02d0 6B68     		ldr	r3, [r5, #4]
 897 02d2 1878     		ldrb	r0, [r3]
 898 02d4 FFF7FEFF 		bl	setFireAlarmVibType
 899              	.LVL84:
 367:main.c        ****                 CyBle_GattsWriteRsp(cyBle_connHandle); 
 900              		.loc 1 367 0
 901 02d8 244A     		ldr	r2, .L63+120
 902 02da 1378     		ldrb	r3, [r2]
 903 02dc 5078     		ldrb	r0, [r2, #1]
 904 02de 0002     		lsl	r0, r0, #8
 905 02e0 1843     		orr	r0, r3
 906 02e2 FFF7FEFF 		bl	CyBle_GattsWriteRsp
 907              	.LVL85:
 908 02e6 02E0     		b	.L29
 909              	.LVL86:
 910              	.L30:
 368:main.c        ****             }
 369:main.c        **** 
 370:main.c        ****             break;
 371:main.c        ****         
 372:main.c        ****         default:
 373:main.c        ****             UART_PutString("Other events\n");
 911              		.loc 1 373 0
 912 02e8 2348     		ldr	r0, .L63+132
 913 02ea FFF7FEFF 		bl	UART_PutString
 914              	.LVL87:
 915              	.L29:
 916              	.LBE2:
 374:main.c        ****             break;
 375:main.c        ****     }
 376:main.c        **** }
 917              		.loc 1 376 0
 918 02ee 37B0     		add	sp, sp, #220
 919              		@ sp needed
 920 02f0 30BD     		pop	{r4, r5, pc}
 921              	.L64:
 922 02f2 C046     		.align	2
 923              	.L63:
 924 02f4 00000000 		.word	.LC13
 925 02f8 18000000 		.word	.LC15
 926 02fc 20000000 		.word	.LC17
 927 0300 00000000 		.word	.L32
 928 0304 28000000 		.word	.LC20
 929 0308 4C000000 		.word	.LC22
 930 030c 7C000000 		.word	.LC24
 931 0310 84000000 		.word	.LC26
ARM GAS  C:\Users\rdeiaco\AppData\Local\Temp\ccihrpjo.s 			page 24


 932 0314 88000000 		.word	.LC28
 933 0318 98000000 		.word	.LC30
 934 031c A4000000 		.word	.LC32
 935 0320 C0000000 		.word	.LC34
 936 0324 DC000000 		.word	.LC36
 937 0328 F4000000 		.word	.LC38
 938 032c 34010000 		.word	.LC40
 939 0330 6C010000 		.word	.LC42
 940 0334 94010000 		.word	.LC44
 941 0338 B8010000 		.word	.LC46
 942 033c FC010000 		.word	.LC48
 943 0340 00000000 		.word	cyBle_state
 944 0344 14020000 		.word	.LC50
 945 0348 34020000 		.word	.LC53
 946 034c 44020000 		.word	.LC55
 947 0350 40E20100 		.word	123456
 948 0354 60020000 		.word	.LC57
 949 0358 90020000 		.word	.LC59
 950 035c B0020000 		.word	.LC61
 951 0360 D8020000 		.word	.LC63
 952 0364 EC020000 		.word	.LC65
 953 0368 04030000 		.word	.LC67
 954 036c 00000000 		.word	cyBle_connHandle
 955 0370 00000000 		.word	.LANCHOR1
 956 0374 00000000 		.word	.LANCHOR0
 957 0378 18030000 		.word	.LC72
 958              		.cfi_endproc
 959              	.LFE43:
 960              		.size	AppCallBack, .-AppCallBack
 961              		.section	.text.updateLed,"ax",%progbits
 962              		.align	2
 963              		.global	updateLed
 964              		.code	16
 965              		.thumb_func
 966              		.type	updateLed, %function
 967              	updateLed:
 968              	.LFB42:
 133:main.c        ****     CYBLE_GATTS_HANDLE_VALUE_NTF_T 	tempHandle;
 969              		.loc 1 133 0
 970              		.cfi_startproc
 971 0000 00B5     		push	{lr}
 972              		.cfi_def_cfa_offset 4
 973              		.cfi_offset 14, -4
 974 0002 85B0     		sub	sp, sp, #20
 975              		.cfi_def_cfa_offset 24
 138:main.c        ****         return;
 976              		.loc 1 138 0
 977 0004 074B     		ldr	r3, .L68
 978 0006 1B78     		ldrb	r3, [r3]
 979 0008 022B     		cmp	r3, #2
 980 000a 09D1     		bne	.L65
 141:main.c        ****   	//tempHandle.value.val = (uint8 *) &red_State;
 981              		.loc 1 141 0
 982 000c 01A8     		add	r0, sp, #4
 983 000e 0C33     		add	r3, r3, #12
 984 0010 0381     		strh	r3, [r0, #8]
 143:main.c        ****     CyBle_GattsWriteAttributeValue(&tempHandle,0,&cyBle_connHandle,CYBLE_GATT_DB_LOCALLY_INITIATED)
ARM GAS  C:\Users\rdeiaco\AppData\Local\Temp\ccihrpjo.s 			page 25


 985              		.loc 1 143 0
 986 0012 0D3B     		sub	r3, r3, #13
 987 0014 8380     		strh	r3, [r0, #4]
 144:main.c        **** }
 988              		.loc 1 144 0
 989 0016 0021     		mov	r1, #0
 990 0018 034A     		ldr	r2, .L68+4
 991 001a 0023     		mov	r3, #0
 992 001c FFF7FEFF 		bl	CyBle_GattsWriteAttributeValue
 993              	.LVL88:
 994              	.L65:
 145:main.c        ****     
 995              		.loc 1 145 0
 996 0020 05B0     		add	sp, sp, #20
 997              		@ sp needed
 998 0022 00BD     		pop	{pc}
 999              	.L69:
 1000              		.align	2
 1001              	.L68:
 1002 0024 00000000 		.word	cyBle_state
 1003 0028 00000000 		.word	cyBle_connHandle
 1004              		.cfi_endproc
 1005              	.LFE42:
 1006              		.size	updateLed, .-updateLed
 1007              		.section	.text.main,"ax",%progbits
 1008              		.align	2
 1009              		.global	main
 1010              		.code	16
 1011              		.thumb_func
 1012              		.type	main, %function
 1013              	main:
 1014              	.LFB44:
 377:main.c        **** 
 378:main.c        **** 
 379:main.c        **** /***************************************************************
 380:main.c        ****  * Main
 381:main.c        ****  **************************************************************/
 382:main.c        **** int main()
 383:main.c        **** {
 1015              		.loc 1 383 0
 1016              		.cfi_startproc
 1017 0000 F0B5     		push	{r4, r5, r6, r7, lr}
 1018              		.cfi_def_cfa_offset 20
 1019              		.cfi_offset 4, -20
 1020              		.cfi_offset 5, -16
 1021              		.cfi_offset 6, -12
 1022              		.cfi_offset 7, -8
 1023              		.cfi_offset 14, -4
 1024 0002 B5B0     		sub	sp, sp, #212
 1025              		.cfi_def_cfa_offset 232
 384:main.c        **** #if !defined(__ARMCC_VERSION)
 385:main.c        ****     InitializeBootloaderSRAM();
 1026              		.loc 1 385 0
 1027 0004 FFF7FEFF 		bl	InitializeBootloaderSRAM
 1028              	.LVL89:
 386:main.c        **** #endif
 387:main.c        **** 
ARM GAS  C:\Users\rdeiaco\AppData\Local\Temp\ccihrpjo.s 			page 26


 388:main.c        ****     motor_Write(0);
 1029              		.loc 1 388 0
 1030 0008 0020     		mov	r0, #0
 1031 000a FFF7FEFF 		bl	motor_Write
 1032              	.LVL90:
 389:main.c        ****     
 390:main.c        ****     CyGlobalIntEnable;
 1033              		.loc 1 390 0
 1034              	@ 390 "main.c" 1
 1035 000e 62B6     		CPSIE   i
 1036              	@ 0 "" 2
 391:main.c        ****     
 392:main.c        ****     UART_Start();
 1037              		.loc 1 392 0
 1038              		.code	16
 1039 0010 FFF7FEFF 		bl	UART_Start
 1040              	.LVL91:
 393:main.c        ****     
 394:main.c        ****     /* Start BLE stack and register the callback function */
 395:main.c        ****     CyBle_Start(AppCallBack);
 1041              		.loc 1 395 0
 1042 0014 BD48     		ldr	r0, .L90
 1043 0016 FFF7FEFF 		bl	CyBle_Start
 1044              	.LVL92:
 396:main.c        ****     
 397:main.c        ****     CyDelay(100u);
 1045              		.loc 1 397 0
 1046 001a 6420     		mov	r0, #100
 1047 001c FFF7FEFF 		bl	CyDelay
 1048              	.LVL93:
 398:main.c        **** 
 399:main.c        ****     char str[100];
 400:main.c        ****     sprintf(str, "Application entered \n");
 1049              		.loc 1 400 0
 1050 0020 1BA8     		add	r0, sp, #108
 1051 0022 BB49     		ldr	r1, .L90+4
 1052 0024 031C     		mov	r3, r0
 1053 0026 0A1C     		mov	r2, r1
 1054 0028 32CA     		ldmia	r2!, {r1, r4, r5}
 1055 002a 32C3     		stmia	r3!, {r1, r4, r5}
 1056 002c 12CA     		ldmia	r2!, {r1, r4}
 1057 002e 12C3     		stmia	r3!, {r1, r4}
 1058 0030 1288     		ldrh	r2, [r2]
 1059 0032 1A80     		strh	r2, [r3]
 401:main.c        ****     UART_PutString(str);
 1060              		.loc 1 401 0
 1061 0034 FFF7FEFF 		bl	UART_PutString
 1062              	.LVL94:
 402:main.c        ****     
 403:main.c        ****     ConfigureSharedPins();
 1063              		.loc 1 403 0
 1064 0038 FFF7FEFF 		bl	ConfigureSharedPins
 1065              	.LVL95:
 404:main.c        ****     
 405:main.c        ****     //LED_RED_Write(0);
 406:main.c        ****         
 407:main.c        ****     //PGA_set_gain(MIC_GAIN);
ARM GAS  C:\Users\rdeiaco\AppData\Local\Temp\ccihrpjo.s 			page 27


 408:main.c        ****     
 409:main.c        ****     /*enable ADC, PWM, and IDAC for threshold initialization */
 410:main.c        ****     init_PWM();
 1066              		.loc 1 410 0
 1067 003c FFF7FEFF 		bl	init_PWM
 1068              	.LVL96:
 411:main.c        ****     init_IDAC();
 1069              		.loc 1 411 0
 1070 0040 FFF7FEFF 		bl	init_IDAC
 1071              	.LVL97:
 412:main.c        ****     ADC_init();
 1072              		.loc 1 412 0
 1073 0044 FFF7FEFF 		bl	ADC_init
 1074              	.LVL98:
 413:main.c        ****     
 414:main.c        ****     /*set comparator thresholds*/
 415:main.c        ****     CyDelay(5);
 1075              		.loc 1 415 0
 1076 0048 0520     		mov	r0, #5
 1077 004a FFF7FEFF 		bl	CyDelay
 1078              	.LVL99:
 416:main.c        ****     set_PWM_threshold(LOW_FILT);
 1079              		.loc 1 416 0
 1080 004e 0020     		mov	r0, #0
 1081 0050 FFF7FEFF 		bl	set_PWM_threshold
 1082              	.LVL100:
 417:main.c        ****     set_PWM_threshold(MID_FILT);
 1083              		.loc 1 417 0
 1084 0054 0120     		mov	r0, #1
 1085 0056 FFF7FEFF 		bl	set_PWM_threshold
 1086              	.LVL101:
 418:main.c        ****     set_PWM_threshold(HIGH_FILT);
 1087              		.loc 1 418 0
 1088 005a 0220     		mov	r0, #2
 1089 005c FFF7FEFF 		bl	set_PWM_threshold
 1090              	.LVL102:
 419:main.c        ****     set_IDAC_threshold();
 1091              		.loc 1 419 0
 1092 0060 FFF7FEFF 		bl	set_IDAC_threshold
 1093              	.LVL103:
 420:main.c        ****     
 421:main.c        ****     /*put ADC to sleep*/
 422:main.c        ****     ADC_sleep();
 1094              		.loc 1 422 0
 1095 0064 FFF7FEFF 		bl	ADC_sleep
 1096              	.LVL104:
 423:main.c        ****     
 424:main.c        ****     
 425:main.c        ****     /* Enable interrupt component connected to interrupt */
 426:main.c        ****     TC_CC_ISR_StartEx(InterruptHandler);
 1097              		.loc 1 426 0
 1098 0068 AA48     		ldr	r0, .L90+8
 1099 006a FFF7FEFF 		bl	TC_CC_ISR_StartEx
 1100              	.LVL105:
 427:main.c        **** 
 428:main.c        ****     /* Start sampling timer */
 429:main.c        ****     Timer_Start();
ARM GAS  C:\Users\rdeiaco\AppData\Local\Temp\ccihrpjo.s 			page 28


 1101              		.loc 1 429 0
 1102 006e FFF7FEFF 		bl	Timer_Start
 1103              	.LVL106:
 430:main.c        ****     
 431:main.c        ****     
 432:main.c        ****     // The state of the FSM.
 433:main.c        ****     uint8 state = 0;
 434:main.c        ****     
 435:main.c        ****     queue_t low_prev;
 436:main.c        ****     queue_t med_prev;
 437:main.c        ****     queue_t high_prev;
 438:main.c        ****     queue_t fire_prev;
 439:main.c        ****     queue_t slope_detect;
 440:main.c        ****     queue_t med_deriv;
 441:main.c        ****     queue_t high_deriv;
 442:main.c        ****     
 443:main.c        ****     int low_count = 0;
 444:main.c        ****     int med_count = 0;
 445:main.c        ****     int high_count = 0;
 446:main.c        ****     int fire_count = 0;
 447:main.c        ****     int liveness_count = 0;
 448:main.c        ****     int prev_low_count;
 449:main.c        ****     int prev_med_count;
 450:main.c        ****     int prev_high_count;
 451:main.c        ****     
 452:main.c        ****     init_queue(&low_prev);
 1104              		.loc 1 452 0
 1105 0072 18A8     		add	r0, sp, #96
 1106 0074 FFF7FEFF 		bl	init_queue
 1107              	.LVL107:
 453:main.c        ****     init_queue(&med_prev);
 1108              		.loc 1 453 0
 1109 0078 15A8     		add	r0, sp, #84
 1110 007a FFF7FEFF 		bl	init_queue
 1111              	.LVL108:
 454:main.c        ****     init_queue(&high_prev);
 1112              		.loc 1 454 0
 1113 007e 12A8     		add	r0, sp, #72
 1114 0080 FFF7FEFF 		bl	init_queue
 1115              	.LVL109:
 455:main.c        ****     init_queue(&fire_prev);
 1116              		.loc 1 455 0
 1117 0084 0FA8     		add	r0, sp, #60
 1118 0086 FFF7FEFF 		bl	init_queue
 1119              	.LVL110:
 456:main.c        ****     init_queue(&slope_detect);
 1120              		.loc 1 456 0
 1121 008a 0CA8     		add	r0, sp, #48
 1122 008c FFF7FEFF 		bl	init_queue
 1123              	.LVL111:
 457:main.c        ****     init_queue(&med_deriv);
 1124              		.loc 1 457 0
 1125 0090 09A8     		add	r0, sp, #36
 1126 0092 FFF7FEFF 		bl	init_queue
 1127              	.LVL112:
 458:main.c        ****     init_queue(&high_deriv);
 1128              		.loc 1 458 0
ARM GAS  C:\Users\rdeiaco\AppData\Local\Temp\ccihrpjo.s 			page 29


 1129 0096 06A8     		add	r0, sp, #24
 1130 0098 FFF7FEFF 		bl	init_queue
 1131              	.LVL113:
 447:main.c        ****     int prev_low_count;
 1132              		.loc 1 447 0
 1133 009c 0026     		mov	r6, #0
 446:main.c        ****     int liveness_count = 0;
 1134              		.loc 1 446 0
 1135 009e 0023     		mov	r3, #0
 1136 00a0 0293     		str	r3, [sp, #8]
 445:main.c        ****     int fire_count = 0;
 1137              		.loc 1 445 0
 1138 00a2 0193     		str	r3, [sp, #4]
 444:main.c        ****     int high_count = 0;
 1139              		.loc 1 444 0
 1140 00a4 0025     		mov	r5, #0
 443:main.c        ****     int med_count = 0;
 1141              		.loc 1 443 0
 1142 00a6 0024     		mov	r4, #0
 433:main.c        ****     
 1143              		.loc 1 433 0
 1144 00a8 0027     		mov	r7, #0
 1145              	.LVL114:
 1146              	.L85:
 459:main.c        **** 
 460:main.c        ****     for(;;)
 461:main.c        ****     {        
 462:main.c        ****         if (sample_lines) {
 1147              		.loc 1 462 0
 1148 00aa 9B4B     		ldr	r3, .L90+12
 1149 00ac 1B78     		ldrb	r3, [r3]
 1150 00ae 002B     		cmp	r3, #0
 1151 00b0 00D1     		bne	.LCB972
 1152 00b2 25E1     		b	.L71	@long jump
 1153              	.LCB972:
 463:main.c        ****             sample_lines = 0;
 1154              		.loc 1 463 0
 1155 00b4 0022     		mov	r2, #0
 1156 00b6 984B     		ldr	r3, .L90+12
 1157 00b8 1A70     		strb	r2, [r3]
 464:main.c        ****             
 465:main.c        ****             switch(state) {
 1158              		.loc 1 465 0
 1159 00ba 062F     		cmp	r7, #6
 1160 00bc 00D9     		bls	.LCB977
 1161 00be 1FE1     		b	.L71	@long jump
 1162              	.LCB977:
 1163 00c0 BB00     		lsl	r3, r7, #2
 1164 00c2 964A     		ldr	r2, .L90+16
 1165 00c4 D358     		ldr	r3, [r2, r3]
 1166 00c6 9F46     		mov	pc, r3
 1167              		.section	.rodata
 1168              		.align	2
 1169              	.L73:
 1170 0134 C8000000 		.word	.L72
 1171 0138 EA000000 		.word	.L74
 1172 013c FA010000 		.word	.L75
ARM GAS  C:\Users\rdeiaco\AppData\Local\Temp\ccihrpjo.s 			page 30


 1173 0140 4E020000 		.word	.L76
 1174 0144 C4020000 		.word	.L77
 1175 0148 D2020000 		.word	.L78
 1176 014c E0020000 		.word	.L79
 1177              		.section	.text.main
 1178              	.L72:
 1179              	.LVL115:
 466:main.c        ****                 
 467:main.c        ****                 /* This is the state that is entered upon reset.
 468:main.c        ****                  * In the future, this state should be returned to upon 
 469:main.c        ****                  * event detection if the user applies an input (possibly a
 470:main.c        ****                  * pushbutton to start with, and a BLE signal in the future).
 471:main.c        ****                  */
 472:main.c        ****                 case 0:
 473:main.c        ****                     low_count = 0;
 474:main.c        ****                     med_count = 0;
 475:main.c        ****                     high_count = 0;
 476:main.c        ****                     fire_count = 0;
 477:main.c        ****                     liveness_count = 0;
 478:main.c        ****                     LED_GREEN_Write(LIGHT_OFF);
 1180              		.loc 1 478 0
 1181 00c8 0120     		mov	r0, #1
 1182 00ca FFF7FEFF 		bl	LED_GREEN_Write
 1183              	.LVL116:
 479:main.c        ****                     LED_BLUE_Write(LIGHT_OFF);
 1184              		.loc 1 479 0
 1185 00ce 0120     		mov	r0, #1
 1186 00d0 FFF7FEFF 		bl	LED_BLUE_Write
 1187              	.LVL117:
 480:main.c        ****                     LED_RED_Write(LIGHT_OFF);
 1188              		.loc 1 480 0
 1189 00d4 0120     		mov	r0, #1
 1190 00d6 FFF7FEFF 		bl	LED_RED_Write
 1191              	.LVL118:
 477:main.c        ****                     LED_GREEN_Write(LIGHT_OFF);
 1192              		.loc 1 477 0
 1193 00da 0026     		mov	r6, #0
 476:main.c        ****                     liveness_count = 0;
 1194              		.loc 1 476 0
 1195 00dc 0023     		mov	r3, #0
 1196 00de 0293     		str	r3, [sp, #8]
 475:main.c        ****                     fire_count = 0;
 1197              		.loc 1 475 0
 1198 00e0 0193     		str	r3, [sp, #4]
 474:main.c        ****                     high_count = 0;
 1199              		.loc 1 474 0
 1200 00e2 0025     		mov	r5, #0
 473:main.c        ****                     med_count = 0;
 1201              		.loc 1 473 0
 1202 00e4 0024     		mov	r4, #0
 481:main.c        ****                     state = 1;
 1203              		.loc 1 481 0
 1204 00e6 0127     		mov	r7, #1
 482:main.c        ****                     break;
 1205              		.loc 1 482 0
 1206 00e8 0AE1     		b	.L71
 1207              	.LVL119:
ARM GAS  C:\Users\rdeiaco\AppData\Local\Temp\ccihrpjo.s 			page 31


 1208              	.L74:
 483:main.c        ****                 
 484:main.c        ****                 /* In this state, keep a running count of each filtered input.
 485:main.c        ****                  * If the counts exceed certain thresholds, proceed to either the
 486:main.c        ****                  * alarm recognition state or the siren recognition state.
 487:main.c        ****                  */
 488:main.c        ****                 // TODO break up count into helper functions, make new header file.
 489:main.c        ****                 case 1:
 490:main.c        ****                     prev_low_count = low_count;
 491:main.c        ****                     prev_med_count = med_count;
 492:main.c        ****                     prev_high_count = high_count;
 493:main.c        ****                     low_count = filter_count(LOW_FILTER_INPUT_Read(), &low_prev, low_count);
 1209              		.loc 1 493 0
 1210 00ea FFF7FEFF 		bl	LOW_FILTER_INPUT_Read
 1211              	.LVL120:
 1212 00ee 40B2     		sxtb	r0, r0
 1213 00f0 18A9     		add	r1, sp, #96
 1214 00f2 221C     		mov	r2, r4
 1215 00f4 FFF7FEFF 		bl	filter_count
 1216              	.LVL121:
 1217 00f8 0390     		str	r0, [sp, #12]
 1218              	.LVL122:
 494:main.c        ****                     med_count = filter_count(MED_FILTER_INPUT_Read(), &med_prev, med_count);
 1219              		.loc 1 494 0
 1220 00fa FFF7FEFF 		bl	MED_FILTER_INPUT_Read
 1221              	.LVL123:
 1222 00fe 40B2     		sxtb	r0, r0
 1223 0100 15A9     		add	r1, sp, #84
 1224 0102 2A1C     		mov	r2, r5
 1225 0104 FFF7FEFF 		bl	filter_count
 1226              	.LVL124:
 1227 0108 0490     		str	r0, [sp, #16]
 1228              	.LVL125:
 495:main.c        ****                     high_count = filter_count(HIGH_FILTER_INPUT_Read(), &high_prev, high_count);
 1229              		.loc 1 495 0
 1230 010a FFF7FEFF 		bl	HIGH_FILTER_INPUT_Read
 1231              	.LVL126:
 1232 010e 40B2     		sxtb	r0, r0
 1233 0110 12A9     		add	r1, sp, #72
 1234 0112 019A     		ldr	r2, [sp, #4]
 1235 0114 FFF7FEFF 		bl	filter_count
 1236              	.LVL127:
 1237 0118 0590     		str	r0, [sp, #20]
 1238              	.LVL128:
 496:main.c        ****                     fire_count = filter_count(FIRE_FILTER_INPUT_Read(), &fire_prev, fire_count);
 1239              		.loc 1 496 0
 1240 011a FFF7FEFF 		bl	FIRE_FILTER_INPUT_Read
 1241              	.LVL129:
 1242 011e 40B2     		sxtb	r0, r0
 1243 0120 0FA9     		add	r1, sp, #60
 1244 0122 029A     		ldr	r2, [sp, #8]
 1245 0124 FFF7FEFF 		bl	filter_count
 1246              	.LVL130:
 1247 0128 0290     		str	r0, [sp, #8]
 1248              	.LVL131:
 497:main.c        ****                     push(&slope_detect, low_count - prev_low_count);
 1249              		.loc 1 497 0
ARM GAS  C:\Users\rdeiaco\AppData\Local\Temp\ccihrpjo.s 			page 32


 1250 012a 039B     		ldr	r3, [sp, #12]
 1251 012c 191B     		sub	r1, r3, r4
 1252 012e 49B2     		sxtb	r1, r1
 1253 0130 0CAC     		add	r4, sp, #48
 1254              	.LVL132:
 1255 0132 201C     		mov	r0, r4
 1256              	.LVL133:
 1257 0134 FFF7FEFF 		bl	push
 1258              	.LVL134:
 498:main.c        ****                     push(&med_deriv, med_count - prev_med_count);
 1259              		.loc 1 498 0
 1260 0138 049B     		ldr	r3, [sp, #16]
 1261 013a 591B     		sub	r1, r3, r5
 1262 013c 49B2     		sxtb	r1, r1
 1263 013e 09A8     		add	r0, sp, #36
 1264 0140 FFF7FEFF 		bl	push
 1265              	.LVL135:
 499:main.c        ****                     push(&high_deriv, high_count - prev_high_count);
 1266              		.loc 1 499 0
 1267 0144 059B     		ldr	r3, [sp, #20]
 1268 0146 019A     		ldr	r2, [sp, #4]
 1269 0148 991A     		sub	r1, r3, r2
 1270 014a 49B2     		sxtb	r1, r1
 1271 014c 06A8     		add	r0, sp, #24
 1272 014e FFF7FEFF 		bl	push
 1273              	.LVL136:
 500:main.c        ****                     
 501:main.c        ****                     // second derivative concavity test
 502:main.c        ****                     if ((sum(&slope_detect) == 0) && (peek(&slope_detect) == 1)) {
 1274              		.loc 1 502 0
 1275 0152 0CA8     		add	r0, sp, #48
 1276 0154 FFF7FEFF 		bl	sum
 1277              	.LVL137:
 1278 0158 0028     		cmp	r0, #0
 1279 015a 09D1     		bne	.L86
 1280              		.loc 1 502 0 is_stmt 0 discriminator 1
 1281 015c 0CA8     		add	r0, sp, #48
 1282 015e FFF7FEFF 		bl	peek
 1283              	.LVL138:
 1284 0162 0128     		cmp	r0, #1
 1285 0164 09D0     		beq	.L87
 495:main.c        ****                     fire_count = filter_count(FIRE_FILTER_INPUT_Read(), &fire_prev, fire_count);
 1286              		.loc 1 495 0 is_stmt 1
 1287 0166 059B     		ldr	r3, [sp, #20]
 1288 0168 0193     		str	r3, [sp, #4]
 1289              	.LVL139:
 494:main.c        ****                     high_count = filter_count(HIGH_FILTER_INPUT_Read(), &high_prev, high_count);
 1290              		.loc 1 494 0
 1291 016a 049D     		ldr	r5, [sp, #16]
 1292              	.LVL140:
 493:main.c        ****                     med_count = filter_count(MED_FILTER_INPUT_Read(), &med_prev, med_count);
 1293              		.loc 1 493 0
 1294 016c 039C     		ldr	r4, [sp, #12]
 1295 016e 08E0     		b	.L80
 1296              	.LVL141:
 1297              	.L86:
 495:main.c        ****                     fire_count = filter_count(FIRE_FILTER_INPUT_Read(), &fire_prev, fire_count);
ARM GAS  C:\Users\rdeiaco\AppData\Local\Temp\ccihrpjo.s 			page 33


 1298              		.loc 1 495 0
 1299 0170 059B     		ldr	r3, [sp, #20]
 1300 0172 0193     		str	r3, [sp, #4]
 1301              	.LVL142:
 494:main.c        ****                     high_count = filter_count(HIGH_FILTER_INPUT_Read(), &high_prev, high_count);
 1302              		.loc 1 494 0
 1303 0174 049D     		ldr	r5, [sp, #16]
 1304              	.LVL143:
 493:main.c        ****                     med_count = filter_count(MED_FILTER_INPUT_Read(), &med_prev, med_count);
 1305              		.loc 1 493 0
 1306 0176 039C     		ldr	r4, [sp, #12]
 1307 0178 03E0     		b	.L80
 1308              	.LVL144:
 1309              	.L87:
 503:main.c        ****                         low_count = 0;
 504:main.c        ****                         med_count = 0;
 505:main.c        ****                         high_count = 0;
 1310              		.loc 1 505 0
 1311 017a 0023     		mov	r3, #0
 1312 017c 0193     		str	r3, [sp, #4]
 1313              	.LVL145:
 504:main.c        ****                         high_count = 0;
 1314              		.loc 1 504 0
 1315 017e 0025     		mov	r5, #0
 1316              	.LVL146:
 503:main.c        ****                         low_count = 0;
 1317              		.loc 1 503 0
 1318 0180 0024     		mov	r4, #0
 1319              	.L80:
 1320              	.LVL147:
 506:main.c        ****                     }
 507:main.c        ****                     
 508:main.c        ****                     // all filter negative first derivative test
 509:main.c        ****                     if ((sum(&slope_detect) == -6) && (sum(&med_deriv) == -6) && (sum(&high_deriv) 
 1321              		.loc 1 509 0
 1322 0182 0CA8     		add	r0, sp, #48
 1323 0184 FFF7FEFF 		bl	sum
 1324              	.LVL148:
 1325 0188 831D     		add	r3, r0, #6
 1326 018a 0DD1     		bne	.L81
 1327              		.loc 1 509 0 is_stmt 0 discriminator 1
 1328 018c 09A8     		add	r0, sp, #36
 1329 018e FFF7FEFF 		bl	sum
 1330              	.LVL149:
 1331 0192 831D     		add	r3, r0, #6
 1332 0194 08D1     		bne	.L81
 1333              		.loc 1 509 0 discriminator 2
 1334 0196 06A8     		add	r0, sp, #24
 1335 0198 FFF7FEFF 		bl	sum
 1336              	.LVL150:
 1337 019c 831D     		add	r3, r0, #6
 1338 019e 03D1     		bne	.L81
 510:main.c        ****                         low_count = 0;
 511:main.c        ****                         med_count = 0;
 512:main.c        ****                         high_count = 0;
 1339              		.loc 1 512 0 is_stmt 1
 1340 01a0 0023     		mov	r3, #0
ARM GAS  C:\Users\rdeiaco\AppData\Local\Temp\ccihrpjo.s 			page 34


 1341 01a2 0193     		str	r3, [sp, #4]
 1342              	.LVL151:
 511:main.c        ****                         high_count = 0;
 1343              		.loc 1 511 0
 1344 01a4 0025     		mov	r5, #0
 1345              	.LVL152:
 510:main.c        ****                         low_count = 0;
 1346              		.loc 1 510 0
 1347 01a6 0024     		mov	r4, #0
 1348              	.LVL153:
 1349              	.L81:
 513:main.c        ****                     }
 514:main.c        ****                                   
 515:main.c        ****                     
 516:main.c        ****                     /* Check for fire alarm threshold. */
 517:main.c        ****                     if (fire_count > 800) {
 1350              		.loc 1 517 0
 1351 01a8 C823     		mov	r3, #200
 1352 01aa 9B00     		lsl	r3, r3, #2
 1353 01ac 029A     		ldr	r2, [sp, #8]
 1354 01ae 9A42     		cmp	r2, r3
 1355 01b0 08DD     		ble	.L82
 1356              	.LVL154:
 518:main.c        ****                         state = 5;
 519:main.c        ****                         liveness_count = 0;
 520:main.c        ****                         init_queue(&slope_detect);
 1357              		.loc 1 520 0
 1358 01b2 0CA8     		add	r0, sp, #48
 1359 01b4 FFF7FEFF 		bl	init_queue
 1360              	.LVL155:
 521:main.c        ****                         LED_RED_Write(LIGHT_ON);
 1361              		.loc 1 521 0
 1362 01b8 0020     		mov	r0, #0
 1363 01ba FFF7FEFF 		bl	LED_RED_Write
 1364              	.LVL156:
 519:main.c        ****                         init_queue(&slope_detect);
 1365              		.loc 1 519 0
 1366 01be 0026     		mov	r6, #0
 518:main.c        ****                         state = 5;
 1367              		.loc 1 518 0
 1368 01c0 0527     		mov	r7, #5
 1369 01c2 9DE0     		b	.L71
 1370              	.LVL157:
 1371              	.L82:
 522:main.c        ****                     }
 523:main.c        ****                     
 524:main.c        ****                     /* Check for siren threshold. */
 525:main.c        ****                     else if ((low_count > 25) && (med_count > 5) && (high_count < 5) && (low_count 
 1372              		.loc 1 525 0
 1373 01c4 192C     		cmp	r4, #25
 1374 01c6 00DC     		bgt	.LCB1191
 1375 01c8 9AE0     		b	.L71	@long jump
 1376              	.LCB1191:
 1377              		.loc 1 525 0 is_stmt 0 discriminator 1
 1378 01ca 052D     		cmp	r5, #5
 1379 01cc 00DC     		bgt	.LCB1193
 1380 01ce 97E0     		b	.L71	@long jump
ARM GAS  C:\Users\rdeiaco\AppData\Local\Temp\ccihrpjo.s 			page 35


 1381              	.LCB1193:
 1382              		.loc 1 525 0 discriminator 2
 1383 01d0 019B     		ldr	r3, [sp, #4]
 1384 01d2 042B     		cmp	r3, #4
 1385 01d4 00DD     		ble	.LCB1196
 1386 01d6 93E0     		b	.L71	@long jump
 1387              	.LCB1196:
 1388              		.loc 1 525 0 discriminator 3
 1389 01d8 AC42     		cmp	r4, r5
 1390 01da 00DA     		bge	.LCB1198
 1391 01dc 90E0     		b	.L71	@long jump
 1392              	.LCB1198:
 1393              	.LVL158:
 526:main.c        ****                         state = 2;
 527:main.c        ****                         low_count = 0;
 528:main.c        ****                         med_count = 0;
 529:main.c        ****                         high_count = 0;
 530:main.c        ****                         fire_count = 0;
 531:main.c        ****                         liveness_count = 0;
 532:main.c        ****                         init_queue(&slope_detect);
 1394              		.loc 1 532 0 is_stmt 1
 1395 01de 0CA8     		add	r0, sp, #48
 1396 01e0 FFF7FEFF 		bl	init_queue
 1397              	.LVL159:
 533:main.c        ****                         LED_BLUE_Write(LIGHT_ON);
 1398              		.loc 1 533 0
 1399 01e4 0020     		mov	r0, #0
 1400 01e6 FFF7FEFF 		bl	LED_BLUE_Write
 1401              	.LVL160:
 531:main.c        ****                         init_queue(&slope_detect);
 1402              		.loc 1 531 0
 1403 01ea 0026     		mov	r6, #0
 530:main.c        ****                         liveness_count = 0;
 1404              		.loc 1 530 0
 1405 01ec 0023     		mov	r3, #0
 1406 01ee 0293     		str	r3, [sp, #8]
 529:main.c        ****                         fire_count = 0;
 1407              		.loc 1 529 0
 1408 01f0 0193     		str	r3, [sp, #4]
 528:main.c        ****                         high_count = 0;
 1409              		.loc 1 528 0
 1410 01f2 0025     		mov	r5, #0
 527:main.c        ****                         med_count = 0;
 1411              		.loc 1 527 0
 1412 01f4 0024     		mov	r4, #0
 526:main.c        ****                         low_count = 0;
 1413              		.loc 1 526 0
 1414 01f6 0227     		mov	r7, #2
 1415 01f8 82E0     		b	.L71
 1416              	.LVL161:
 1417              	.L75:
 534:main.c        ****                     }
 535:main.c        ****                     
 536:main.c        ****                     break;
 537:main.c        ****                 
 538:main.c        ****                 /* In this state, check to see if the medium frequency range has been
 539:main.c        ****                  * captured. If the signal remains too low for too long, return back to the 
ARM GAS  C:\Users\rdeiaco\AppData\Local\Temp\ccihrpjo.s 			page 36


 540:main.c        ****                  * initial stage.
 541:main.c        ****                  */
 542:main.c        ****                 case 2:
 543:main.c        ****                     liveness_count++;
 1418              		.loc 1 543 0
 1419 01fa 0136     		add	r6, r6, #1
 1420              	.LVL162:
 544:main.c        ****                     low_count = filter_count(LOW_FILTER_INPUT_Read(), &low_prev, low_count);
 1421              		.loc 1 544 0
 1422 01fc FFF7FEFF 		bl	LOW_FILTER_INPUT_Read
 1423              	.LVL163:
 1424 0200 40B2     		sxtb	r0, r0
 1425 0202 18A9     		add	r1, sp, #96
 1426 0204 221C     		mov	r2, r4
 1427 0206 FFF7FEFF 		bl	filter_count
 1428              	.LVL164:
 1429 020a 041C     		mov	r4, r0
 1430              	.LVL165:
 545:main.c        ****                     med_count = filter_count(MED_FILTER_INPUT_Read(), &med_prev, med_count);
 1431              		.loc 1 545 0
 1432 020c FFF7FEFF 		bl	MED_FILTER_INPUT_Read
 1433              	.LVL166:
 1434 0210 40B2     		sxtb	r0, r0
 1435 0212 15A9     		add	r1, sp, #84
 1436 0214 2A1C     		mov	r2, r5
 1437 0216 FFF7FEFF 		bl	filter_count
 1438              	.LVL167:
 1439 021a 051C     		mov	r5, r0
 1440              	.LVL168:
 546:main.c        ****                     high_count = filter_count(HIGH_FILTER_INPUT_Read(), &high_prev, high_count); 
 1441              		.loc 1 546 0
 1442 021c FFF7FEFF 		bl	HIGH_FILTER_INPUT_Read
 1443              	.LVL169:
 1444 0220 40B2     		sxtb	r0, r0
 1445 0222 12A9     		add	r1, sp, #72
 1446 0224 019A     		ldr	r2, [sp, #4]
 1447 0226 FFF7FEFF 		bl	filter_count
 1448              	.LVL170:
 1449 022a 0190     		str	r0, [sp, #4]
 1450              	.LVL171:
 547:main.c        **** 
 548:main.c        ****                     if (liveness_count > 100) {
 1451              		.loc 1 548 0
 1452 022c 642E     		cmp	r6, #100
 1453 022e 04DD     		ble	.L83
 1454              	.LVL172:
 549:main.c        ****                         state = 0;                    
 550:main.c        ****                         LED_BLUE_Write(LIGHT_OFF);
 1455              		.loc 1 550 0
 1456 0230 0120     		mov	r0, #1
 1457              	.LVL173:
 1458 0232 FFF7FEFF 		bl	LED_BLUE_Write
 1459              	.LVL174:
 549:main.c        ****                         state = 0;                    
 1460              		.loc 1 549 0
 1461 0236 0027     		mov	r7, #0
 1462 0238 62E0     		b	.L71
ARM GAS  C:\Users\rdeiaco\AppData\Local\Temp\ccihrpjo.s 			page 37


 1463              	.LVL175:
 1464              	.L83:
 551:main.c        ****                     }
 552:main.c        ****                     else if ((low_count <= med_count) && (med_count > 20) && (med_count > high_coun
 1465              		.loc 1 552 0
 1466 023a AC42     		cmp	r4, r5
 1467 023c 60DC     		bgt	.L71
 1468              		.loc 1 552 0 is_stmt 0 discriminator 1
 1469 023e 142D     		cmp	r5, #20
 1470 0240 5EDD     		ble	.L71
 1471              		.loc 1 552 0 discriminator 2
 1472 0242 019B     		ldr	r3, [sp, #4]
 1473 0244 9D42     		cmp	r5, r3
 1474 0246 5BDD     		ble	.L71
 1475              		.loc 1 552 0 discriminator 3
 1476 0248 0C2B     		cmp	r3, #12
 1477 024a 52DC     		bgt	.L89
 1478 024c 58E0     		b	.L71
 1479              	.LVL176:
 1480              	.L76:
 553:main.c        ****                         state = 3;
 554:main.c        ****                         low_count = 0;
 555:main.c        ****                         med_count = 0;
 556:main.c        ****                         high_count = 0;
 557:main.c        ****                         fire_count = 0;
 558:main.c        ****                         liveness_count = 0;
 559:main.c        ****                     }                                            
 560:main.c        ****                     break;
 561:main.c        ****                     
 562:main.c        ****                 case 3:
 563:main.c        ****                     liveness_count++;
 1481              		.loc 1 563 0 is_stmt 1
 1482 024e 0136     		add	r6, r6, #1
 1483              	.LVL177:
 564:main.c        ****                     low_count = filter_count(LOW_FILTER_INPUT_Read(), &low_prev, low_count);
 1484              		.loc 1 564 0
 1485 0250 FFF7FEFF 		bl	LOW_FILTER_INPUT_Read
 1486              	.LVL178:
 1487 0254 40B2     		sxtb	r0, r0
 1488 0256 18A9     		add	r1, sp, #96
 1489 0258 221C     		mov	r2, r4
 1490 025a FFF7FEFF 		bl	filter_count
 1491              	.LVL179:
 1492 025e 041C     		mov	r4, r0
 1493              	.LVL180:
 565:main.c        ****                     med_count = filter_count(MED_FILTER_INPUT_Read(), &med_prev, med_count);
 1494              		.loc 1 565 0
 1495 0260 FFF7FEFF 		bl	MED_FILTER_INPUT_Read
 1496              	.LVL181:
 1497 0264 40B2     		sxtb	r0, r0
 1498 0266 15A9     		add	r1, sp, #84
 1499 0268 2A1C     		mov	r2, r5
 1500 026a FFF7FEFF 		bl	filter_count
 1501              	.LVL182:
 1502 026e 051C     		mov	r5, r0
 1503              	.LVL183:
 566:main.c        ****                     high_count = filter_count(HIGH_FILTER_INPUT_Read(), &high_prev, high_count);   
ARM GAS  C:\Users\rdeiaco\AppData\Local\Temp\ccihrpjo.s 			page 38


 1504              		.loc 1 566 0
 1505 0270 FFF7FEFF 		bl	HIGH_FILTER_INPUT_Read
 1506              	.LVL184:
 1507 0274 40B2     		sxtb	r0, r0
 1508 0276 12A9     		add	r1, sp, #72
 1509 0278 019A     		ldr	r2, [sp, #4]
 1510 027a FFF7FEFF 		bl	filter_count
 1511              	.LVL185:
 1512 027e 0190     		str	r0, [sp, #4]
 1513              	.LVL186:
 567:main.c        ****                     
 568:main.c        ****                     if (liveness_count > 100) {
 1514              		.loc 1 568 0
 1515 0280 642E     		cmp	r6, #100
 1516 0282 0ADD     		ble	.L84
 1517              	.LVL187:
 569:main.c        ****                         state = 0;
 570:main.c        ****                         low_count = 0;
 571:main.c        ****                         med_count = 0;
 572:main.c        ****                         high_count = 0;
 573:main.c        ****                         fire_count = 0;
 574:main.c        ****                         liveness_count = 0;
 575:main.c        ****                         LED_BLUE_Write(LIGHT_OFF);
 1518              		.loc 1 575 0
 1519 0284 0120     		mov	r0, #1
 1520 0286 FFF7FEFF 		bl	LED_BLUE_Write
 1521              	.LVL188:
 574:main.c        ****                         LED_BLUE_Write(LIGHT_OFF);
 1522              		.loc 1 574 0
 1523 028a 0026     		mov	r6, #0
 573:main.c        ****                         liveness_count = 0;
 1524              		.loc 1 573 0
 1525 028c 0023     		mov	r3, #0
 1526 028e 0293     		str	r3, [sp, #8]
 572:main.c        ****                         fire_count = 0;
 1527              		.loc 1 572 0
 1528 0290 0193     		str	r3, [sp, #4]
 571:main.c        ****                         high_count = 0;
 1529              		.loc 1 571 0
 1530 0292 0025     		mov	r5, #0
 570:main.c        ****                         med_count = 0;
 1531              		.loc 1 570 0
 1532 0294 0024     		mov	r4, #0
 569:main.c        ****                         low_count = 0;
 1533              		.loc 1 569 0
 1534 0296 0027     		mov	r7, #0
 1535 0298 32E0     		b	.L71
 1536              	.LVL189:
 1537              	.L84:
 576:main.c        ****                     }
 577:main.c        ****                     else if ((low_count < 20) && (med_count < 30) && (high_count > 95)) {
 1538              		.loc 1 577 0
 1539 029a 132C     		cmp	r4, #19
 1540 029c 30DC     		bgt	.L71
 1541              		.loc 1 577 0 is_stmt 0 discriminator 1
 1542 029e 1D2D     		cmp	r5, #29
 1543 02a0 2EDC     		bgt	.L71
ARM GAS  C:\Users\rdeiaco\AppData\Local\Temp\ccihrpjo.s 			page 39


 1544              		.loc 1 577 0 discriminator 2
 1545 02a2 019B     		ldr	r3, [sp, #4]
 1546 02a4 5F2B     		cmp	r3, #95
 1547 02a6 2BDD     		ble	.L71
 1548              	.LVL190:
 578:main.c        ****                         state = 4;
 579:main.c        ****                         low_count = 0;
 580:main.c        ****                         med_count = 0;
 581:main.c        ****                         high_count = 0;
 582:main.c        ****                         fire_count = 0;
 583:main.c        ****                         liveness_count = 0;
 584:main.c        ****                         LED_BLUE_Write(LIGHT_OFF);
 1549              		.loc 1 584 0 is_stmt 1
 1550 02a8 0120     		mov	r0, #1
 1551 02aa FFF7FEFF 		bl	LED_BLUE_Write
 1552              	.LVL191:
 585:main.c        ****                         LED_GREEN_Write(LIGHT_ON);
 1553              		.loc 1 585 0
 1554 02ae 0020     		mov	r0, #0
 1555 02b0 FFF7FEFF 		bl	LED_GREEN_Write
 1556              	.LVL192:
 583:main.c        ****                         LED_BLUE_Write(LIGHT_OFF);
 1557              		.loc 1 583 0
 1558 02b4 0026     		mov	r6, #0
 582:main.c        ****                         liveness_count = 0;
 1559              		.loc 1 582 0
 1560 02b6 0023     		mov	r3, #0
 1561 02b8 0293     		str	r3, [sp, #8]
 581:main.c        ****                         fire_count = 0;
 1562              		.loc 1 581 0
 1563 02ba 0193     		str	r3, [sp, #4]
 580:main.c        ****                         high_count = 0;
 1564              		.loc 1 580 0
 1565 02bc 0025     		mov	r5, #0
 579:main.c        ****                         med_count = 0;
 1566              		.loc 1 579 0
 1567 02be 0024     		mov	r4, #0
 578:main.c        ****                         low_count = 0;
 1568              		.loc 1 578 0
 1569 02c0 0427     		mov	r7, #4
 1570 02c2 1DE0     		b	.L71
 1571              	.LVL193:
 1572              	.L77:
 586:main.c        ****                     }
 587:main.c        ****                     break;
 588:main.c        ****                 /* In this state, indicate detection of the fire alarm. */
 589:main.c        ****                 case 4:
 590:main.c        **** 
 591:main.c        ****                     motor_Write(MOTOR_ON);
 1573              		.loc 1 591 0
 1574 02c4 0120     		mov	r0, #1
 1575 02c6 FFF7FEFF 		bl	motor_Write
 1576              	.LVL194:
 592:main.c        ****                     notifyAmbulance();
 1577              		.loc 1 592 0
 1578 02ca FFF7FEFF 		bl	notifyAmbulance
 1579              	.LVL195:
ARM GAS  C:\Users\rdeiaco\AppData\Local\Temp\ccihrpjo.s 			page 40


 593:main.c        ****                     state = 6;
 1580              		.loc 1 593 0
 1581 02ce 0627     		mov	r7, #6
 594:main.c        ****                     break;
 1582              		.loc 1 594 0
 1583 02d0 16E0     		b	.L71
 1584              	.LVL196:
 1585              	.L78:
 595:main.c        ****                     
 596:main.c        ****                 /* In this state, indicate detection of the fire alarm.
 597:main.c        ****                  */
 598:main.c        ****                 case 5:
 599:main.c        **** 
 600:main.c        ****                     motor_Write(MOTOR_ON);
 1586              		.loc 1 600 0
 1587 02d2 0120     		mov	r0, #1
 1588 02d4 FFF7FEFF 		bl	motor_Write
 1589              	.LVL197:
 601:main.c        ****                     notifyFireAlarm();
 1590              		.loc 1 601 0
 1591 02d8 FFF7FEFF 		bl	notifyFireAlarm
 1592              	.LVL198:
 602:main.c        ****                     state = 6;                   
 1593              		.loc 1 602 0
 1594 02dc 0627     		mov	r7, #6
 603:main.c        ****                     break;
 1595              		.loc 1 603 0
 1596 02de 0FE0     		b	.L71
 1597              	.LVL199:
 1598              	.L79:
 604:main.c        ****                 
 605:main.c        ****                 /* alert acknowledged by user */
 606:main.c        ****                 case 6:
 607:main.c        ****                     if (alarm_state == TYPE_NO_ALARM) {
 1599              		.loc 1 607 0
 1600 02e0 0F4B     		ldr	r3, .L90+20
 1601 02e2 1B78     		ldrb	r3, [r3]
 1602 02e4 002B     		cmp	r3, #0
 1603 02e6 0BD1     		bne	.L71
 608:main.c        ****                         motor_Write(MOTOR_OFF);
 1604              		.loc 1 608 0
 1605 02e8 0020     		mov	r0, #0
 1606 02ea FFF7FEFF 		bl	motor_Write
 1607              	.LVL200:
 609:main.c        ****                         state = 0;
 1608              		.loc 1 609 0
 1609 02ee 0027     		mov	r7, #0
 1610 02f0 06E0     		b	.L71
 1611              	.LVL201:
 1612              	.L89:
 558:main.c        ****                     }                                            
 1613              		.loc 1 558 0
 1614 02f2 0026     		mov	r6, #0
 1615              	.LVL202:
 557:main.c        ****                         liveness_count = 0;
 1616              		.loc 1 557 0
 1617 02f4 0023     		mov	r3, #0
ARM GAS  C:\Users\rdeiaco\AppData\Local\Temp\ccihrpjo.s 			page 41


 1618 02f6 0293     		str	r3, [sp, #8]
 1619              	.LVL203:
 556:main.c        ****                         fire_count = 0;
 1620              		.loc 1 556 0
 1621 02f8 0193     		str	r3, [sp, #4]
 555:main.c        ****                         high_count = 0;
 1622              		.loc 1 555 0
 1623 02fa 0025     		mov	r5, #0
 1624              	.LVL204:
 554:main.c        ****                         med_count = 0;
 1625              		.loc 1 554 0
 1626 02fc 0024     		mov	r4, #0
 1627              	.LVL205:
 553:main.c        ****                         low_count = 0;
 1628              		.loc 1 553 0
 1629 02fe 0327     		mov	r7, #3
 1630              	.LVL206:
 1631              	.L71:
 610:main.c        ****                     }
 611:main.c        ****                 default:
 612:main.c        ****                     break;
 613:main.c        ****             }        
 614:main.c        ****         }
 615:main.c        ****    
 616:main.c        ****         CyBle_ProcessEvents();
 1632              		.loc 1 616 0
 1633 0300 FFF7FEFF 		bl	CyBle_ProcessEvents
 1634              	.LVL207:
 617:main.c        ****         BootloaderSwitch();
 1635              		.loc 1 617 0
 1636 0304 FFF7FEFF 		bl	BootloaderSwitch
 1637              	.LVL208:
 618:main.c        ****            
 619:main.c        ****     }
 1638              		.loc 1 619 0
 1639 0308 CFE6     		b	.L85
 1640              	.L91:
 1641 030a C046     		.align	2
 1642              	.L90:
 1643 030c 00000000 		.word	AppCallBack
 1644 0310 28030000 		.word	.LC77
 1645 0314 00000000 		.word	InterruptHandler
 1646 0318 00000000 		.word	sample_lines
 1647 031c 34010000 		.word	.L73
 1648 0320 00000000 		.word	.LANCHOR0
 1649              		.cfi_endproc
 1650              	.LFE44:
 1651              		.size	main, .-main
 1652              		.comm	sample_lines,1,1
 1653              		.comm	activeLed,1,1
 1654              		.global	curVibIntensity
 1655              		.global	curVibDuration
 1656              		.global	curAmbulanceVibType
 1657              		.global	curFireAlarmVibType
 1658              		.global	alarm_state
 1659              		.global	alarmNotify
 1660              		.global	alarmStateOld
ARM GAS  C:\Users\rdeiaco\AppData\Local\Temp\ccihrpjo.s 			page 42


 1661              		.data
 1662              		.set	.LANCHOR1,. + 0
 1663              		.type	alarmNotify, %object
 1664              		.size	alarmNotify, 1
 1665              	alarmNotify:
 1666 0000 01       		.byte	1
 1667              		.type	curVibIntensity, %object
 1668              		.size	curVibIntensity, 1
 1669              	curVibIntensity:
 1670 0001 01       		.byte	1
 1671              		.section	.rodata.str1.4,"aMS",%progbits,1
 1672              		.align	2
 1673              	.LC13:
 1674 0000 43593843 		.ascii	"CY8CKIT-042 USB-UART\000"
 1674      4B49542D 
 1674      30343220 
 1674      5553422D 
 1674      55415254 
 1675 0015 000000   		.space	3
 1676              	.LC15:
 1677 0018 6576656E 		.ascii	"event: \000"
 1677      743A2000 
 1678              	.LC17:
 1679 0020 256C750A 		.ascii	"%lu\012\000"
 1679      00
 1680 0025 000000   		.space	3
 1681              	.LC20:
 1682 0028 53746172 		.ascii	"StartAdvertisement API Error: %d \015\012\000"
 1682      74416476 
 1682      65727469 
 1682      73656D65 
 1682      6E742041 
 1683              	.LC22:
 1684 004c 426C7565 		.ascii	"Bluetooth On, StartAdvertisement with addr: \000"
 1684      746F6F74 
 1684      68204F6E 
 1684      2C205374 
 1684      61727441 
 1685 0079 000000   		.space	3
 1686              	.LC24:
 1687 007c 25322E32 		.ascii	"%2.2x\000"
 1687      7800
 1688 0082 0000     		.space	2
 1689              	.LC26:
 1690 0084 0D0A00   		.ascii	"\015\012\000"
 1691 0087 00       		.space	1
 1692              	.LC28:
 1693 0088 44697363 		.ascii	"Disconnected\012\000"
 1693      6F6E6E65 
 1693      63746564 
 1693      0A00
 1694 0096 0000     		.space	2
 1695              	.LC30:
 1696 0098 54696D65 		.ascii	"Timeout\012\000"
 1696      6F75740A 
 1696      00
 1697 00a1 000000   		.space	3
ARM GAS  C:\Users\rdeiaco\AppData\Local\Temp\ccihrpjo.s 			page 43


 1698              	.LC32:
 1699 00a4 4359424C 		.ascii	"CYBLE_EVT_HARDWARE_ERROR \015\012\000"
 1699      455F4556 
 1699      545F4841 
 1699      52445741 
 1699      52455F45 
 1700              	.LC34:
 1701 00c0 4556545F 		.ascii	"EVT_STACK_BUSY_STATUS: %x\015\012\000"
 1701      53544143 
 1701      4B5F4255 
 1701      53595F53 
 1701      54415455 
 1702              	.LC36:
 1703 00dc 4556545F 		.ascii	"EVT_HCI_STATUS: %x \015\012\000"
 1703      4843495F 
 1703      53544154 
 1703      55533A20 
 1703      2578200D 
 1704 00f2 0000     		.space	2
 1705              	.LC38:
 1706 00f4 4556545F 		.ascii	"EVT_AUTH_REQ: security=%x, bonding=%x, ekeySize=%x,"
 1706      41555448 
 1706      5F524551 
 1706      3A207365 
 1706      63757269 
 1707 0127 20657272 		.ascii	" err=%x \015\012\000"
 1707      3D257820 
 1707      0D0A00
 1708 0132 0000     		.space	2
 1709              	.LC40:
 1710 0134 4556545F 		.ascii	"EVT_PASSKEY_ENTRY_REQUEST press 'p' to enter passke"
 1710      50415353 
 1710      4B45595F 
 1710      454E5452 
 1710      595F5245 
 1711 0167 79200D0A 		.ascii	"y \015\012\000"
 1711      00
 1712              	.LC42:
 1713 016c 4556545F 		.ascii	"EVT_PASSKEY_DISPLAY_REQUEST %6.6ld \015\012\000"
 1713      50415353 
 1713      4B45595F 
 1713      44495350 
 1713      4C41595F 
 1714 0192 0000     		.space	2
 1715              	.LC44:
 1716 0194 4556545F 		.ascii	"EVT_GAP_KEYINFO_EXCHNGE_CMPLT \015\012\000"
 1716      4741505F 
 1716      4B455949 
 1716      4E464F5F 
 1716      45584348 
 1717 01b5 000000   		.space	3
 1718              	.LC46:
 1719 01b8 41555448 		.ascii	"AUTH_COMPLETE: security:%x, bonding:%x, ekeySize:%x"
 1719      5F434F4D 
 1719      504C4554 
 1719      453A2073 
 1719      65637572 
ARM GAS  C:\Users\rdeiaco\AppData\Local\Temp\ccihrpjo.s 			page 44


 1720 01eb 2C206175 		.ascii	", authErr %x \015\012\000"
 1720      74684572 
 1720      72202578 
 1720      200D0A00 
 1721 01fb 00       		.space	1
 1722              	.LC48:
 1723 01fc 4556545F 		.ascii	"EVT_AUTH_FAILED: %x \015\012\000"
 1723      41555448 
 1723      5F464149 
 1723      4C45443A 
 1723      20257820 
 1724 0213 00       		.space	1
 1725              	.LC50:
 1726 0214 4556545F 		.ascii	"EVT_ADVERTISING, state: %x \015\012\000"
 1726      41445645 
 1726      52544953 
 1726      494E472C 
 1726      20737461 
 1727 0232 0000     		.space	2
 1728              	.LC53:
 1729 0234 48696265 		.ascii	"Hibernate \015\012\000"
 1729      726E6174 
 1729      65200D0A 
 1729      00
 1730 0241 000000   		.space	3
 1731              	.LC55:
 1732 0244 4556545F 		.ascii	"EVT_GAP_DEVICE_CONNECTED \015\012\000"
 1732      4741505F 
 1732      44455649 
 1732      43455F43 
 1732      4F4E4E45 
 1733              	.LC57:
 1734 0260 4359424C 		.ascii	"CYBLE_EVT_GATTS_XCNHG_MTU_REQ, final mtu= %d \015\012"
 1734      455F4556 
 1734      545F4741 
 1734      5454535F 
 1734      58434E48 
 1735 028f 00       		.ascii	"\000"
 1736              	.LC59:
 1737 0290 4556545F 		.ascii	"EVT_GAP_ENCRYPT_CHANGE: %x \015\012\000"
 1737      4741505F 
 1737      454E4352 
 1737      5950545F 
 1737      4348414E 
 1738 02ae 0000     		.space	2
 1739              	.LC61:
 1740 02b0 4556545F 		.ascii	"EVT_CONNECTION_UPDATE_COMPLETE: %x \015\012\000"
 1740      434F4E4E 
 1740      45435449 
 1740      4F4E5F55 
 1740      50444154 
 1741 02d6 0000     		.space	2
 1742              	.LC63:
 1743 02d8 47415454 		.ascii	"GATT_CONNECT_IND\012\000"
 1743      5F434F4E 
 1743      4E454354 
 1743      5F494E44 
ARM GAS  C:\Users\rdeiaco\AppData\Local\Temp\ccihrpjo.s 			page 45


 1743      0A00
 1744 02ea 0000     		.space	2
 1745              	.LC65:
 1746 02ec 47415454 		.ascii	"GATT_DISCONNECT_IND\012\000"
 1746      5F444953 
 1746      434F4E4E 
 1746      4543545F 
 1746      494E440A 
 1747 0301 000000   		.space	3
 1748              	.LC67:
 1749 0304 61747472 		.ascii	"attrHandle = %d \012\000"
 1749      48616E64 
 1749      6C65203D 
 1749      20256420 
 1749      0A00
 1750 0316 0000     		.space	2
 1751              	.LC72:
 1752 0318 4F746865 		.ascii	"Other events\012\000"
 1752      72206576 
 1752      656E7473 
 1752      0A00
 1753 0326 0000     		.space	2
 1754              	.LC77:
 1755 0328 4170706C 		.ascii	"Application entered \012\000"
 1755      69636174 
 1755      696F6E20 
 1755      656E7465 
 1755      72656420 
 1756 033e 0000     		.bss
 1757              		.set	.LANCHOR0,. + 0
 1758              		.type	alarm_state, %object
 1759              		.size	alarm_state, 1
 1760              	alarm_state:
 1761 0000 00       		.space	1
 1762              		.type	curFireAlarmVibType, %object
 1763              		.size	curFireAlarmVibType, 1
 1764              	curFireAlarmVibType:
 1765 0001 00       		.space	1
 1766              		.type	curAmbulanceVibType, %object
 1767              		.size	curAmbulanceVibType, 1
 1768              	curAmbulanceVibType:
 1769 0002 00       		.space	1
 1770              		.type	curVibDuration, %object
 1771              		.size	curVibDuration, 1
 1772              	curVibDuration:
 1773 0003 00       		.space	1
 1774              		.type	alarmStateOld, %object
 1775              		.size	alarmStateOld, 1
 1776              	alarmStateOld:
 1777 0004 00       		.space	1
 1778              		.text
 1779              	.Letext0:
 1780              		.file 2 "Generated_Source\\PSoC4/cytypes.h"
 1781              		.file 3 "OTAMandatory.h"
 1782              		.file 4 "queue.h"
 1783              		.file 5 "user_cfg_def.h"
 1784              		.file 6 "main.h"
ARM GAS  C:\Users\rdeiaco\AppData\Local\Temp\ccihrpjo.s 			page 46


 1785              		.file 7 "c:\\program files (x86)\\cypress\\psoc creator\\4.0\\psoc creator\\import\\gnu\\arm\\4.9.
 1786              		.file 8 "Generated_Source\\PSoC4/Timer.h"
 1787              		.file 9 "Generated_Source\\PSoC4/UART.h"
 1788              		.file 10 "Generated_Source\\PSoC4/motor.h"
 1789              		.file 11 "OTAOptional.h"
 1790              		.file 12 "Generated_Source\\PSoC4/CyLib.h"
 1791              		.file 13 "PWM.h"
 1792              		.file 14 "IDAC.h"
 1793              		.file 15 "adc.h"
 1794              		.file 16 "Generated_Source\\PSoC4/TC_CC_ISR.h"
 1795              		.file 17 "Generated_Source\\PSoC4/LED_GREEN.h"
 1796              		.file 18 "Generated_Source\\PSoC4/LED_BLUE.h"
 1797              		.file 19 "Generated_Source\\PSoC4/LED_RED.h"
 1798              		.file 20 "Generated_Source\\PSoC4/LOW_FILTER_INPUT.h"
 1799              		.file 21 "filter.h"
 1800              		.file 22 "Generated_Source\\PSoC4/MED_FILTER_INPUT.h"
 1801              		.file 23 "Generated_Source\\PSoC4/HIGH_FILTER_INPUT.h"
 1802              		.file 24 "Generated_Source\\PSoC4/FIRE_FILTER_INPUT.h"