ARM GAS  C:\Users\Nick\AppData\Local\Temp\ccjkzJa5.s 			page 1


   1              		.cpu cortex-m0
   2              		.fpu softvfp
   3              		.eabi_attribute 20, 1
   4              		.eabi_attribute 21, 1
   5              		.eabi_attribute 23, 3
   6              		.eabi_attribute 24, 1
   7              		.eabi_attribute 25, 1
   8              		.eabi_attribute 26, 1
   9              		.eabi_attribute 30, 1
  10              		.eabi_attribute 34, 0
  11              		.eabi_attribute 18, 4
  12              		.code	16
  13              		.file	"OTAOptional.c"
  14              		.text
  15              	.Ltext0:
  16              		.cfi_sections	.debug_frame
  17              		.section	.text.Timer_Interrupt,"ax",%progbits
  18              		.align	2
  19              		.global	Timer_Interrupt
  20              		.code	16
  21              		.thumb_func
  22              		.type	Timer_Interrupt, %function
  23              	Timer_Interrupt:
  24              	.LFB35:
  25              		.file 1 "OTAOptional.c"
   1:OTAOptional.c **** /*******************************************************************************
   2:OTAOptional.c **** * File Name: OTAOptional.c
   3:OTAOptional.c **** *
   4:OTAOptional.c **** * Version: 1.30
   5:OTAOptional.c **** *
   6:OTAOptional.c **** * Description:
   7:OTAOptional.c **** *  Provides an API that implement optional functionality of OTA.
   8:OTAOptional.c **** *
   9:OTAOptional.c **** * Hardware Dependency:
  10:OTAOptional.c **** *  CY8CKIT-042 BLE
  11:OTAOptional.c **** *
  12:OTAOptional.c **** ********************************************************************************
  13:OTAOptional.c **** * Copyright 2014-2015, Cypress Semiconductor Corporation. All rights reserved.
  14:OTAOptional.c **** * This software is owned by Cypress Semiconductor Corporation and is protected
  15:OTAOptional.c **** * by and subject to worldwide patent and copyright laws and treaties.
  16:OTAOptional.c **** * Therefore, you may use this software only as provided in the license agreement
  17:OTAOptional.c **** * accompanying the software package from which you obtained this software.
  18:OTAOptional.c **** * CYPRESS AND ITS SUPPLIERS MAKE NO WARRANTY OF ANY KIND, EXPRESS OR IMPLIED,
  19:OTAOptional.c **** * WITH REGARD TO THIS SOFTWARE, INCLUDING, BUT NOT LIMITED TO, NONINFRINGEMENT,
  20:OTAOptional.c **** * IMPLIED WARRANTIES OF MERCHANTABILITY AND FITNESS FOR A PARTICULAR PURPOSE.
  21:OTAOptional.c **** *******************************************************************************/
  22:OTAOptional.c **** #include "OTAOptional.h"
  23:OTAOptional.c **** #include "common.h"
  24:OTAOptional.c **** 
  25:OTAOptional.c **** /*******************************************************************************
  26:OTAOptional.c **** * Function Name: Timer_Interrupt
  27:OTAOptional.c **** ********************************************************************************
  28:OTAOptional.c **** *
  29:OTAOptional.c **** * Summary:
  30:OTAOptional.c **** *  Handles the Interrupt Service Routine for the WDT timer.
  31:OTAOptional.c **** *
  32:OTAOptional.c **** *******************************************************************************/
ARM GAS  C:\Users\Nick\AppData\Local\Temp\ccjkzJa5.s 			page 2


  33:OTAOptional.c **** CY_ISR(Timer_Interrupt)
  34:OTAOptional.c **** {
  26              		.loc 1 34 0
  27              		.cfi_startproc
  28 0000 08B5     		push	{r3, lr}
  29              		.cfi_def_cfa_offset 8
  30              		.cfi_offset 3, -8
  31              		.cfi_offset 14, -4
  35:OTAOptional.c ****     if(CySysWdtGetInterruptSource() & WDT_INTERRUPT_SOURCE)
  32              		.loc 1 35 0
  33 0002 FFF7FEFF 		bl	CySysWdtGetInterruptSource
  34              	.LVL0:
  35 0006 4305     		lsl	r3, r0, #21
  36 0008 19D5     		bpl	.L1
  37              	.LBB2:
  36:OTAOptional.c ****     {
  37:OTAOptional.c ****         static uint8 led = LED_OFF;
  38:OTAOptional.c ****         static uint32 ledTimer = LED_TIMEOUT;
  39:OTAOptional.c ****     
  40:OTAOptional.c ****         /* Blink green LED to indicate that device advertises */
  41:OTAOptional.c ****         if(CyBle_GetState() == CYBLE_STATE_ADVERTISING)
  38              		.loc 1 41 0
  39 000a 0D4B     		ldr	r3, .L4
  40 000c 1B78     		ldrb	r3, [r3]
  41 000e 032B     		cmp	r3, #3
  42 0010 0DD1     		bne	.L3
  42:OTAOptional.c ****         {
  43:OTAOptional.c ****             if(--ledTimer == 0u) 
  43              		.loc 1 43 0
  44 0012 0C4A     		ldr	r2, .L4+4
  45 0014 1368     		ldr	r3, [r2]
  46 0016 013B     		sub	r3, r3, #1
  47 0018 1360     		str	r3, [r2]
  48 001a 002B     		cmp	r3, #0
  49 001c 07D1     		bne	.L3
  44:OTAOptional.c ****             {
  45:OTAOptional.c ****                 ledTimer = LED_TIMEOUT;
  50              		.loc 1 45 0
  51 001e 0A33     		add	r3, r3, #10
  52 0020 1360     		str	r3, [r2]
  46:OTAOptional.c ****                 led ^= LED_OFF;
  53              		.loc 1 46 0
  54 0022 1079     		ldrb	r0, [r2, #4]
  55 0024 093B     		sub	r3, r3, #9
  56 0026 5840     		eor	r0, r3
  57 0028 1071     		strb	r0, [r2, #4]
  47:OTAOptional.c ****                 Advertising_LED_Write(led);
  58              		.loc 1 47 0
  59 002a FFF7FEFF 		bl	Advertising_LED_1_Write
  60              	.LVL1:
  61              	.L3:
  48:OTAOptional.c ****             }
  49:OTAOptional.c ****         }
  50:OTAOptional.c ****         
  51:OTAOptional.c ****         /* Indicate that timer is raised to the main loop */
  52:OTAOptional.c ****         mainTimer++;
  62              		.loc 1 52 0
ARM GAS  C:\Users\Nick\AppData\Local\Temp\ccjkzJa5.s 			page 3


  63 002e 064A     		ldr	r2, .L4+8
  64 0030 1368     		ldr	r3, [r2]
  65 0032 0133     		add	r3, r3, #1
  66 0034 1360     		str	r3, [r2]
  53:OTAOptional.c ****         
  54:OTAOptional.c ****         /* Clears interrupt request  */
  55:OTAOptional.c ****         CySysWdtClearInterrupt(WDT_INTERRUPT_SOURCE);
  67              		.loc 1 55 0
  68 0036 8020     		mov	r0, #128
  69 0038 C000     		lsl	r0, r0, #3
  70 003a FFF7FEFF 		bl	CySysWdtClearInterrupt
  71              	.LVL2:
  72              	.L1:
  73              	.LBE2:
  56:OTAOptional.c ****     }
  57:OTAOptional.c **** }
  74              		.loc 1 57 0
  75              		@ sp needed
  76 003e 08BD     		pop	{r3, pc}
  77              	.L5:
  78              		.align	2
  79              	.L4:
  80 0040 00000000 		.word	cyBle_state
  81 0044 00000000 		.word	.LANCHOR0
  82 0048 00000000 		.word	mainTimer
  83              		.cfi_endproc
  84              	.LFE35:
  85              		.size	Timer_Interrupt, .-Timer_Interrupt
  86              		.section	.text.WDT_Start,"ax",%progbits
  87              		.align	2
  88              		.global	WDT_Start
  89              		.code	16
  90              		.thumb_func
  91              		.type	WDT_Start, %function
  92              	WDT_Start:
  93              	.LFB36:
  58:OTAOptional.c **** 
  59:OTAOptional.c **** /*******************************************************************************
  60:OTAOptional.c **** * Function Name: WDT_Start
  61:OTAOptional.c **** ********************************************************************************
  62:OTAOptional.c **** *
  63:OTAOptional.c **** * Summary:
  64:OTAOptional.c **** *  Configures WDT to trigger an interrupt with period 100ms for keyboard
  65:OTAOptional.c **** *  activity simulation.
  66:OTAOptional.c **** *
  67:OTAOptional.c **** *******************************************************************************/
  68:OTAOptional.c **** 
  69:OTAOptional.c **** void WDT_Start(void)
  70:OTAOptional.c **** {
  94              		.loc 1 70 0
  95              		.cfi_startproc
  96 0000 08B5     		push	{r3, lr}
  97              		.cfi_def_cfa_offset 8
  98              		.cfi_offset 3, -8
  99              		.cfi_offset 14, -4
  71:OTAOptional.c ****     /* Unlock the WDT registers for modification */
  72:OTAOptional.c ****     CySysWdtUnlock(); 
ARM GAS  C:\Users\Nick\AppData\Local\Temp\ccjkzJa5.s 			page 4


 100              		.loc 1 72 0
 101 0002 FFF7FEFF 		bl	CySysWdtUnlock
 102              	.LVL3:
  73:OTAOptional.c ****     /* Setup ISR */
  74:OTAOptional.c ****     WDT_Interrupt_StartEx(&Timer_Interrupt);
 103              		.loc 1 74 0
 104 0006 0C48     		ldr	r0, .L7
 105 0008 FFF7FEFF 		bl	WDT_Interrupt_StartEx
 106              	.LVL4:
  75:OTAOptional.c ****     /* Write the mode to generate interrupt on match */
  76:OTAOptional.c ****     CySysWdtWriteMode(WDT_COUNTER, CY_SYS_WDT_MODE_INT);
 107              		.loc 1 76 0
 108 000c 0120     		mov	r0, #1
 109 000e 0121     		mov	r1, #1
 110 0010 FFF7FEFF 		bl	CySysWdtSetMode
 111              	.LVL5:
  77:OTAOptional.c ****     /* Configure the WDT counter clear on a match setting */
  78:OTAOptional.c ****     CySysWdtWriteClearOnMatch(WDT_COUNTER, WDT_COUNTER_ENABLE);
 112              		.loc 1 78 0
 113 0014 0120     		mov	r0, #1
 114 0016 0121     		mov	r1, #1
 115 0018 FFF7FEFF 		bl	CySysWdtSetClearOnMatch
 116              	.LVL6:
  79:OTAOptional.c ****     /* Configure the WDT counter match comparison value */
  80:OTAOptional.c ****     CySysWdtWriteMatch(WDT_COUNTER, WDT_TIMEOUT);
 117              		.loc 1 80 0
 118 001c 0120     		mov	r0, #1
 119 001e 0749     		ldr	r1, .L7+4
 120 0020 FFF7FEFF 		bl	CySysWdtSetMatch
 121              	.LVL7:
  81:OTAOptional.c ****     /* Reset WDT counter */
  82:OTAOptional.c ****     CySysWdtResetCounters(WDT_COUNTER);
 122              		.loc 1 82 0
 123 0024 0120     		mov	r0, #1
 124 0026 FFF7FEFF 		bl	CySysWdtResetCounters
 125              	.LVL8:
  83:OTAOptional.c ****     /* Enable the specified WDT counter */
  84:OTAOptional.c ****     CySysWdtEnable(WDT_COUNTER_MASK);
 126              		.loc 1 84 0
 127 002a 8020     		mov	r0, #128
 128 002c 4000     		lsl	r0, r0, #1
 129 002e FFF7FEFF 		bl	CySysWdtEnable
 130              	.LVL9:
  85:OTAOptional.c ****     /* Lock out configuration changes to the Watchdog timer registers */
  86:OTAOptional.c ****     CySysWdtLock();    
 131              		.loc 1 86 0
 132 0032 FFF7FEFF 		bl	CySysWdtLock
 133              	.LVL10:
  87:OTAOptional.c **** }
 134              		.loc 1 87 0
 135              		@ sp needed
 136 0036 08BD     		pop	{r3, pc}
 137              	.L8:
 138              		.align	2
 139              	.L7:
 140 0038 00000000 		.word	Timer_Interrupt
 141 003c CC0C0000 		.word	3276
ARM GAS  C:\Users\Nick\AppData\Local\Temp\ccjkzJa5.s 			page 5


 142              		.cfi_endproc
 143              	.LFE36:
 144              		.size	WDT_Start, .-WDT_Start
 145              		.section	.text.WDT_Stop,"ax",%progbits
 146              		.align	2
 147              		.global	WDT_Stop
 148              		.code	16
 149              		.thumb_func
 150              		.type	WDT_Stop, %function
 151              	WDT_Stop:
 152              	.LFB37:
  88:OTAOptional.c **** 
  89:OTAOptional.c **** 
  90:OTAOptional.c **** /*******************************************************************************
  91:OTAOptional.c **** * Function Name: WDT_Stop
  92:OTAOptional.c **** ********************************************************************************
  93:OTAOptional.c **** *
  94:OTAOptional.c **** * Summary:
  95:OTAOptional.c **** *  This API stops the WDT timer.
  96:OTAOptional.c **** *
  97:OTAOptional.c **** *******************************************************************************/
  98:OTAOptional.c **** void WDT_Stop(void)
  99:OTAOptional.c **** {
 153              		.loc 1 99 0
 154              		.cfi_startproc
 155 0000 08B5     		push	{r3, lr}
 156              		.cfi_def_cfa_offset 8
 157              		.cfi_offset 3, -8
 158              		.cfi_offset 14, -4
 100:OTAOptional.c ****     /* Unlock the WDT registers for modification */
 101:OTAOptional.c ****     CySysWdtUnlock(); 
 159              		.loc 1 101 0
 160 0002 FFF7FEFF 		bl	CySysWdtUnlock
 161              	.LVL11:
 102:OTAOptional.c ****     /* Disable the specified WDT counter */
 103:OTAOptional.c ****     CySysWdtDisable(WDT_COUNTER_MASK);
 162              		.loc 1 103 0
 163 0006 8020     		mov	r0, #128
 164 0008 4000     		lsl	r0, r0, #1
 165 000a FFF7FEFF 		bl	CySysWdtDisable
 166              	.LVL12:
 104:OTAOptional.c ****     /* Locks out configuration changes to the Watchdog timer registers */
 105:OTAOptional.c ****     CySysWdtLock();    
 167              		.loc 1 105 0
 168 000e FFF7FEFF 		bl	CySysWdtLock
 169              	.LVL13:
 106:OTAOptional.c **** }
 170              		.loc 1 106 0
 171              		@ sp needed
 172 0012 08BD     		pop	{r3, pc}
 173              		.cfi_endproc
 174              	.LFE37:
 175              		.size	WDT_Stop, .-WDT_Stop
 176              		.section	.text.PrintProjectHeader,"ax",%progbits
 177              		.align	2
 178              		.global	PrintProjectHeader
 179              		.code	16
ARM GAS  C:\Users\Nick\AppData\Local\Temp\ccjkzJa5.s 			page 6


 180              		.thumb_func
 181              		.type	PrintProjectHeader, %function
 182              	PrintProjectHeader:
 183              	.LFB38:
 107:OTAOptional.c **** 
 108:OTAOptional.c **** 
 109:OTAOptional.c **** /*******************************************************************************
 110:OTAOptional.c **** * Function Name: PrintProjectHeader
 111:OTAOptional.c **** ********************************************************************************
 112:OTAOptional.c **** *
 113:OTAOptional.c **** * Summary:
 114:OTAOptional.c **** *  Prints project header to UART.
 115:OTAOptional.c **** *
 116:OTAOptional.c **** *******************************************************************************/
 117:OTAOptional.c **** void PrintProjectHeader()
 118:OTAOptional.c **** {
 184              		.loc 1 118 0
 185              		.cfi_startproc
 186 0000 10B5     		push	{r4, lr}
 187              		.cfi_def_cfa_offset 8
 188              		.cfi_offset 4, -8
 189              		.cfi_offset 14, -4
 119:OTAOptional.c ****     DBG_PRINT_TEXT("\r\n");
 190              		.loc 1 119 0
 191 0002 0D4C     		ldr	r4, .L11
 192 0004 201C     		mov	r0, r4
 193 0006 FFF7FEFF 		bl	puts
 194              	.LVL14:
 120:OTAOptional.c ****     DBG_PRINT_TEXT("\r\n");
 195              		.loc 1 120 0
 196 000a 201C     		mov	r0, r4
 197 000c FFF7FEFF 		bl	puts
 198              	.LVL15:
 121:OTAOptional.c ****     DBG_PRINT_TEXT("> BLE OTA Fixed Stack Bootloadable   Application Started\r\n");
 199              		.loc 1 121 0
 200 0010 0A48     		ldr	r0, .L11+4
 201 0012 FFF7FEFF 		bl	puts
 202              	.LVL16:
 122:OTAOptional.c ****     DBG_PRINT_TEXT("> Based on BLE HID Keyboard Example Project\r\n");
 203              		.loc 1 122 0
 204 0016 0A48     		ldr	r0, .L11+8
 205 0018 FFF7FEFF 		bl	puts
 206              	.LVL17:
 123:OTAOptional.c ****     DBG_PRINT_TEXT("> Version: 1.30\r\n");
 207              		.loc 1 123 0
 208 001c 0948     		ldr	r0, .L11+12
 209 001e FFF7FEFF 		bl	puts
 210              	.LVL18:
 124:OTAOptional.c ****     DBG_PRINT_TEXT("> Compile Date and Time : " __DATE__ " " __TIME__ "\r\n");
 211              		.loc 1 124 0
 212 0022 0948     		ldr	r0, .L11+16
 213 0024 FFF7FEFF 		bl	puts
 214              	.LVL19:
 125:OTAOptional.c ****     DBG_PRINT_TEXT("\r\n"); 
 215              		.loc 1 125 0
 216 0028 201C     		mov	r0, r4
 217 002a FFF7FEFF 		bl	puts
ARM GAS  C:\Users\Nick\AppData\Local\Temp\ccjkzJa5.s 			page 7


 218              	.LVL20:
 126:OTAOptional.c ****     DBG_PRINT_TEXT("\r\n");
 219              		.loc 1 126 0
 220 002e 201C     		mov	r0, r4
 221 0030 FFF7FEFF 		bl	puts
 222              	.LVL21:
 127:OTAOptional.c **** }
 223              		.loc 1 127 0
 224              		@ sp needed
 225 0034 10BD     		pop	{r4, pc}
 226              	.L12:
 227 0036 C046     		.align	2
 228              	.L11:
 229 0038 00000000 		.word	.LC4
 230 003c 04000000 		.word	.LC6
 231 0040 40000000 		.word	.LC8
 232 0044 70000000 		.word	.LC10
 233 0048 84000000 		.word	.LC12
 234              		.cfi_endproc
 235              	.LFE38:
 236              		.size	PrintProjectHeader, .-PrintProjectHeader
 237              		.data
 238              		.align	2
 239              		.set	.LANCHOR0,. + 0
 240              		.type	ledTimer.7680, %object
 241              		.size	ledTimer.7680, 4
 242              	ledTimer.7680:
 243 0000 0A000000 		.word	10
 244              		.type	led.7679, %object
 245              		.size	led.7679, 1
 246              	led.7679:
 247 0004 01       		.byte	1
 248 0005 000000   		.section	.rodata.str1.4,"aMS",%progbits,1
 249              		.align	2
 250              	.LC4:
 251 0000 0D00     		.ascii	"\015\000"
 252 0002 0000     		.space	2
 253              	.LC6:
 254 0004 3E20424C 		.ascii	"> BLE OTA Fixed Stack Bootloadable   Application St"
 254      45204F54 
 254      41204669 
 254      78656420 
 254      53746163 
 255 0037 61727465 		.ascii	"arted\015\000"
 255      640D00
 256 003e 0000     		.space	2
 257              	.LC8:
 258 0040 3E204261 		.ascii	"> Based on BLE HID Keyboard Example Project\015\000"
 258      73656420 
 258      6F6E2042 
 258      4C452048 
 258      4944204B 
 259 006d 000000   		.space	3
 260              	.LC10:
 261 0070 3E205665 		.ascii	"> Version: 1.30\015\000"
 261      7273696F 
 261      6E3A2031 
ARM GAS  C:\Users\Nick\AppData\Local\Temp\ccjkzJa5.s 			page 8


 261      2E33300D 
 261      00
 262 0081 000000   		.space	3
 263              	.LC12:
 264 0084 3E20436F 		.ascii	"> Compile Date and Time : Feb 22 2017 17:05:33\015\000"
 264      6D70696C 
 264      65204461 
 264      74652061 
 264      6E642054 
 265              		.text
 266              	.Letext0:
 267              		.file 2 "Generated_Source\\PSoC4/cytypes.h"
 268              		.file 3 "OTAMandatory.h"
 269              		.file 4 "OTAOptional.h"
 270              		.file 5 "Generated_Source\\PSoC4/CyLFClk.h"
 271              		.file 6 "Generated_Source\\PSoC4/WDT_Interrupt.h"
 272              		.file 7 "<built-in>"