ARM GAS  C:\Users\rdeiaco\AppData\Local\Temp\cc4gKDno.s 			page 1


   1              		.cpu cortex-m0
   2              		.fpu softvfp
   3              		.eabi_attribute 20, 1
   4              		.eabi_attribute 21, 1
   5              		.eabi_attribute 23, 3
   6              		.eabi_attribute 24, 1
   7              		.eabi_attribute 25, 1
   8              		.eabi_attribute 26, 1
   9              		.eabi_attribute 30, 1
  10              		.eabi_attribute 34, 0
  11              		.eabi_attribute 18, 4
  12              		.code	16
  13              		.file	"PGA.c"
  14              		.text
  15              	.Ltext0:
  16              		.cfi_sections	.debug_frame
  17              		.global	__aeabi_fmul
  18              		.global	__aeabi_fdiv
  19              		.global	__aeabi_fadd
  20              		.global	__aeabi_f2uiz
  21              		.section	.text.PGA_program_resistor,"ax",%progbits
  22              		.align	2
  23              		.global	PGA_program_resistor
  24              		.code	16
  25              		.thumb_func
  26              		.type	PGA_program_resistor, %function
  27              	PGA_program_resistor:
  28              	.LFB36:
  29              		.file 1 "PGA.c"
   1:PGA.c         **** /* ========================================
   2:PGA.c         ****  *
   3:PGA.c         ****  * Copyright YOUR COMPANY, THE YEAR
   4:PGA.c         ****  * All Rights Reserved
   5:PGA.c         ****  * UNPUBLISHED, LICENSED SOFTWARE.
   6:PGA.c         ****  *
   7:PGA.c         ****  * CONFIDENTIAL AND PROPRIETARY INFORMATION
   8:PGA.c         ****  * WHICH IS THE PROPERTY OF your company.
   9:PGA.c         ****  *
  10:PGA.c         ****  * ========================================
  11:PGA.c         **** */
  12:PGA.c         **** 
  13:PGA.c         **** #include "PGA.h"
  14:PGA.c         **** #include "project.h"
  15:PGA.c         **** 
  16:PGA.c         **** #define TAP_POSITIONS  32
  17:PGA.c         **** #define MAX_RESISTANCE 200000
  18:PGA.c         **** #define GAIN_DENOM     2200
  19:PGA.c         **** 
  20:PGA.c         **** #define LOW  0u
  21:PGA.c         **** #define HIGH 1u
  22:PGA.c         **** 
  23:PGA.c         **** static uint8 current_tap_pos = 15; //tap positon set to midscale on reset
  24:PGA.c         **** 
  25:PGA.c         **** void PGA_set_gain(float gain) {
  26:PGA.c         ****     float resistance = gain*GAIN_DENOM;
  27:PGA.c         ****     
  28:PGA.c         ****     if (resistance > MAX_RESISTANCE) {
ARM GAS  C:\Users\rdeiaco\AppData\Local\Temp\cc4gKDno.s 			page 2


  29:PGA.c         ****         resistance = MAX_RESISTANCE;
  30:PGA.c         ****     }
  31:PGA.c         ****     
  32:PGA.c         ****     PGA_program_resistor(resistance);
  33:PGA.c         **** }
  34:PGA.c         **** 
  35:PGA.c         **** void PGA_program_resistor(float resistance) {
  30              		.loc 1 35 0
  31              		.cfi_startproc
  32              	.LVL0:
  33 0000 70B5     		push	{r4, r5, r6, lr}
  34              		.cfi_def_cfa_offset 16
  35              		.cfi_offset 4, -16
  36              		.cfi_offset 5, -12
  37              		.cfi_offset 6, -8
  38              		.cfi_offset 14, -4
  36:PGA.c         **** 
  37:PGA.c         ****     uint8 new_tap_pos = resistance*(TAP_POSITIONS-1)/MAX_RESISTANCE + 1;
  39              		.loc 1 37 0
  40 0002 1B49     		ldr	r1, .L8
  41 0004 FFF7FEFF 		bl	__aeabi_fmul
  42              	.LVL1:
  43 0008 1A49     		ldr	r1, .L8+4
  44 000a FFF7FEFF 		bl	__aeabi_fdiv
  45              	.LVL2:
  46 000e FE21     		mov	r1, #254
  47 0010 8905     		lsl	r1, r1, #22
  48 0012 FFF7FEFF 		bl	__aeabi_fadd
  49              	.LVL3:
  50 0016 FFF7FEFF 		bl	__aeabi_f2uiz
  51              	.LVL4:
  52 001a C6B2     		uxtb	r6, r0
  53              	.LVL5:
  38:PGA.c         ****     int tap_pos_diff = new_tap_pos - current_tap_pos;
  54              		.loc 1 38 0
  55 001c 164B     		ldr	r3, .L8+8
  56 001e 1D78     		ldrb	r5, [r3]
  57 0020 751B     		sub	r5, r6, r5
  58              	.LVL6:
  39:PGA.c         ****     int i;
  40:PGA.c         ****     
  41:PGA.c         ****     PGA_CS_Write(LOW);
  59              		.loc 1 41 0
  60 0022 0020     		mov	r0, #0
  61 0024 FFF7FEFF 		bl	PGA_CS_Write
  62              	.LVL7:
  42:PGA.c         ****     if (tap_pos_diff > 0) {
  63              		.loc 1 42 0
  64 0028 002D     		cmp	r5, #0
  65 002a 0EDD     		ble	.L2
  43:PGA.c         ****         PGA_U_Db_Write(HIGH);
  66              		.loc 1 43 0
  67 002c 0120     		mov	r0, #1
  68 002e FFF7FEFF 		bl	PGA_U_Db_Write
  69              	.LVL8:
  44:PGA.c         ****         for (i = 0; i < tap_pos_diff; i++) {
  70              		.loc 1 44 0
ARM GAS  C:\Users\rdeiaco\AppData\Local\Temp\cc4gKDno.s 			page 3


  71 0032 0024     		mov	r4, #0
  72 0034 06E0     		b	.L3
  73              	.LVL9:
  74              	.L4:
  45:PGA.c         ****             PGA_INC_Write(LOW);
  75              		.loc 1 45 0 discriminator 3
  76 0036 0020     		mov	r0, #0
  77 0038 FFF7FEFF 		bl	PGA_INC_Write
  78              	.LVL10:
  46:PGA.c         ****             PGA_INC_Write(HIGH);
  79              		.loc 1 46 0 discriminator 3
  80 003c 0120     		mov	r0, #1
  81 003e FFF7FEFF 		bl	PGA_INC_Write
  82              	.LVL11:
  44:PGA.c         ****         for (i = 0; i < tap_pos_diff; i++) {
  83              		.loc 1 44 0 discriminator 3
  84 0042 0134     		add	r4, r4, #1
  85              	.LVL12:
  86              	.L3:
  44:PGA.c         ****         for (i = 0; i < tap_pos_diff; i++) {
  87              		.loc 1 44 0 is_stmt 0 discriminator 1
  88 0044 AC42     		cmp	r4, r5
  89 0046 F6DB     		blt	.L4
  90 0048 0CE0     		b	.L5
  91              	.LVL13:
  92              	.L2:
  47:PGA.c         ****         }
  48:PGA.c         ****     }
  49:PGA.c         ****     else {
  50:PGA.c         ****         PGA_U_Db_Write(LOW);
  93              		.loc 1 50 0 is_stmt 1
  94 004a 0020     		mov	r0, #0
  95 004c FFF7FEFF 		bl	PGA_U_Db_Write
  96              	.LVL14:
  51:PGA.c         ****         for (i = tap_pos_diff; i < 0; i++) {
  97              		.loc 1 51 0
  98 0050 06E0     		b	.L6
  99              	.LVL15:
 100              	.L7:
  52:PGA.c         ****             PGA_INC_Write(LOW);
 101              		.loc 1 52 0 discriminator 3
 102 0052 0020     		mov	r0, #0
 103 0054 FFF7FEFF 		bl	PGA_INC_Write
 104              	.LVL16:
  53:PGA.c         ****             PGA_INC_Write(HIGH);
 105              		.loc 1 53 0 discriminator 3
 106 0058 0120     		mov	r0, #1
 107 005a FFF7FEFF 		bl	PGA_INC_Write
 108              	.LVL17:
  51:PGA.c         ****         for (i = tap_pos_diff; i < 0; i++) {
 109              		.loc 1 51 0 discriminator 3
 110 005e 0135     		add	r5, r5, #1
 111              	.LVL18:
 112              	.L6:
  51:PGA.c         ****         for (i = tap_pos_diff; i < 0; i++) {
 113              		.loc 1 51 0 is_stmt 0 discriminator 1
 114 0060 002D     		cmp	r5, #0
ARM GAS  C:\Users\rdeiaco\AppData\Local\Temp\cc4gKDno.s 			page 4


 115 0062 F6DB     		blt	.L7
 116              	.LVL19:
 117              	.L5:
  54:PGA.c         ****         }
  55:PGA.c         ****     }
  56:PGA.c         ****     
  57:PGA.c         ****     PGA_CS_Write(HIGH);
 118              		.loc 1 57 0 is_stmt 1
 119 0064 0120     		mov	r0, #1
 120 0066 FFF7FEFF 		bl	PGA_CS_Write
 121              	.LVL20:
  58:PGA.c         ****     current_tap_pos = new_tap_pos;
 122              		.loc 1 58 0
 123 006a 034B     		ldr	r3, .L8+8
 124 006c 1E70     		strb	r6, [r3]
  59:PGA.c         **** }
 125              		.loc 1 59 0
 126              		@ sp needed
 127              	.LVL21:
 128 006e 70BD     		pop	{r4, r5, r6, pc}
 129              	.L9:
 130              		.align	2
 131              	.L8:
 132 0070 0000F841 		.word	1106771968
 133 0074 00504348 		.word	1212370944
 134 0078 00000000 		.word	.LANCHOR0
 135              		.cfi_endproc
 136              	.LFE36:
 137              		.size	PGA_program_resistor, .-PGA_program_resistor
 138              		.global	__aeabi_fcmpgt
 139              		.section	.text.PGA_set_gain,"ax",%progbits
 140              		.align	2
 141              		.global	PGA_set_gain
 142              		.code	16
 143              		.thumb_func
 144              		.type	PGA_set_gain, %function
 145              	PGA_set_gain:
 146              	.LFB35:
  25:PGA.c         ****     float resistance = gain*GAIN_DENOM;
 147              		.loc 1 25 0
 148              		.cfi_startproc
 149              	.LVL22:
 150 0000 10B5     		push	{r4, lr}
 151              		.cfi_def_cfa_offset 8
 152              		.cfi_offset 4, -8
 153              		.cfi_offset 14, -4
  26:PGA.c         ****     
 154              		.loc 1 26 0
 155 0002 0749     		ldr	r1, .L13
 156 0004 FFF7FEFF 		bl	__aeabi_fmul
 157              	.LVL23:
 158 0008 041C     		add	r4, r0, #0
 159              	.LVL24:
  28:PGA.c         ****         resistance = MAX_RESISTANCE;
 160              		.loc 1 28 0
 161 000a 0649     		ldr	r1, .L13+4
 162 000c FFF7FEFF 		bl	__aeabi_fcmpgt
ARM GAS  C:\Users\rdeiaco\AppData\Local\Temp\cc4gKDno.s 			page 5


 163              	.LVL25:
 164 0010 0028     		cmp	r0, #0
 165 0012 00D0     		beq	.L11
  29:PGA.c         ****     }
 166              		.loc 1 29 0
 167 0014 034C     		ldr	r4, .L13+4
 168              	.LVL26:
 169              	.L11:
  32:PGA.c         **** }
 170              		.loc 1 32 0
 171 0016 201C     		add	r0, r4, #0
 172 0018 FFF7FEFF 		bl	PGA_program_resistor
 173              	.LVL27:
  33:PGA.c         **** 
 174              		.loc 1 33 0
 175              		@ sp needed
 176              	.LVL28:
 177 001c 10BD     		pop	{r4, pc}
 178              	.L14:
 179 001e C046     		.align	2
 180              	.L13:
 181 0020 00800945 		.word	1158250496
 182 0024 00504348 		.word	1212370944
 183              		.cfi_endproc
 184              	.LFE35:
 185              		.size	PGA_set_gain, .-PGA_set_gain
 186              		.data
 187              		.set	.LANCHOR0,. + 0
 188              		.type	current_tap_pos, %object
 189              		.size	current_tap_pos, 1
 190              	current_tap_pos:
 191 0000 0F       		.byte	15
 192              		.text
 193              	.Letext0:
 194              		.file 2 "Generated_Source\\PSoC4/PGA_CS.h"
 195              		.file 3 "Generated_Source\\PSoC4/PGA_U_Db.h"
 196              		.file 4 "Generated_Source\\PSoC4/cytypes.h"
 197              		.file 5 "Generated_Source\\PSoC4/PGA_INC.h"