ARM GAS  C:\Users\Nick\AppData\Local\Temp\ccsYirPU.s 			page 1


   1              		.cpu cortex-m0
   2              		.fpu softvfp
   3              		.eabi_attribute 20, 1
   4              		.eabi_attribute 21, 1
   5              		.eabi_attribute 23, 3
   6              		.eabi_attribute 24, 1
   7              		.eabi_attribute 25, 1
   8              		.eabi_attribute 26, 1
   9              		.eabi_attribute 30, 1
  10              		.eabi_attribute 34, 0
  11              		.eabi_attribute 18, 4
  12              		.code	16
  13              		.file	"PWM.c"
  14              		.text
  15              	.Ltext0:
  16              		.cfi_sections	.debug_frame
  17              		.section	.text.init_PWM,"ax",%progbits
  18              		.align	2
  19              		.global	init_PWM
  20              		.code	16
  21              		.thumb_func
  22              		.type	init_PWM, %function
  23              	init_PWM:
  24              	.LFB35:
  25              		.file 1 "PWM.c"
   1:PWM.c         **** /* ========================================
   2:PWM.c         ****  *
   3:PWM.c         ****  * Copyright YOUR COMPANY, THE YEAR
   4:PWM.c         ****  * All Rights Reserved
   5:PWM.c         ****  * UNPUBLISHED, LICENSED SOFTWARE.
   6:PWM.c         ****  *
   7:PWM.c         ****  * CONFIDENTIAL AND PROPRIETARY INFORMATION
   8:PWM.c         ****  * WHICH IS THE PROPERTY OF your company.
   9:PWM.c         ****  *
  10:PWM.c         ****  * ========================================
  11:PWM.c         **** */
  12:PWM.c         **** 
  13:PWM.c         **** 
  14:PWM.c         **** 
  15:PWM.c         **** #include "PWM.h"
  16:PWM.c         **** #include <project.h>
  17:PWM.c         **** #include "adc.h"
  18:PWM.c         **** 
  19:PWM.c         **** #define MAX_VOLTAGE 5.0
  20:PWM.c         **** #define MIN_VOLTAGE 0.0
  21:PWM.c         **** 
  22:PWM.c         **** #define PWM_PERIOD 200.0
  23:PWM.c         **** 
  24:PWM.c         **** #define LOW_FILT  0
  25:PWM.c         **** #define MID_FILT  1
  26:PWM.c         **** #define HIGH_FILT 2
  27:PWM.c         **** 
  28:PWM.c         **** #define FEEDBACK_GAIN 0.9
  29:PWM.c         **** #define CONTROLLER_THRESH 0.08
  30:PWM.c         **** #define TOLERANCE 0.02
  31:PWM.c         **** 
  32:PWM.c         **** static uint8 PWM_duty_cycles[] = {0, 0, 0};
ARM GAS  C:\Users\Nick\AppData\Local\Temp\ccsYirPU.s 			page 2


  33:PWM.c         **** static float voltage_thresholds[] = {1.5, 1.7, 1.8};
  34:PWM.c         **** 
  35:PWM.c         **** void init_PWM(void) {
  26              		.loc 1 35 0
  27              		.cfi_startproc
  28 0000 08B5     		push	{r3, lr}
  29              		.cfi_def_cfa_offset 8
  30              		.cfi_offset 3, -8
  31              		.cfi_offset 14, -4
  36:PWM.c         ****     
  37:PWM.c         ****     PWM_Low_Thresh_Start();
  32              		.loc 1 37 0
  33 0002 FFF7FEFF 		bl	PWM_Low_Thresh_Start
  34              	.LVL0:
  38:PWM.c         ****     PWM_Mid_Thresh_Start();
  35              		.loc 1 38 0
  36 0006 FFF7FEFF 		bl	PWM_Mid_Thresh_Start
  37              	.LVL1:
  39:PWM.c         ****     PWM_High_Thresh_Start();
  38              		.loc 1 39 0
  39 000a FFF7FEFF 		bl	PWM_High_Thresh_Start
  40              	.LVL2:
  40:PWM.c         ****     
  41:PWM.c         ****     Clock_PWM_Start();
  41              		.loc 1 41 0
  42 000e FF20     		mov	r0, #255
  43 0010 FFF7FEFF 		bl	Clock_PWM_StartEx
  44              	.LVL3:
  42:PWM.c         **** }
  45              		.loc 1 42 0
  46              		@ sp needed
  47 0014 08BD     		pop	{r3, pc}
  48              		.cfi_endproc
  49              	.LFE35:
  50              		.size	init_PWM, .-init_PWM
  51 0016 C046     		.section	.text.set_PWM_duty_cycles,"ax",%progbits
  52              		.align	2
  53              		.global	set_PWM_duty_cycles
  54              		.code	16
  55              		.thumb_func
  56              		.type	set_PWM_duty_cycles, %function
  57              	set_PWM_duty_cycles:
  58              	.LFB36:
  43:PWM.c         **** 
  44:PWM.c         **** void set_PWM_duty_cycles(int thresh_index) {
  59              		.loc 1 44 0
  60              		.cfi_startproc
  61              	.LVL4:
  62 0000 08B5     		push	{r3, lr}
  63              		.cfi_def_cfa_offset 8
  64              		.cfi_offset 3, -8
  65              		.cfi_offset 14, -4
  45:PWM.c         ****     
  46:PWM.c         ****     if (thresh_index == LOW_FILT) {
  66              		.loc 1 46 0
  67 0002 0028     		cmp	r0, #0
  68 0004 04D1     		bne	.L3
ARM GAS  C:\Users\Nick\AppData\Local\Temp\ccsYirPU.s 			page 3


  47:PWM.c         ****         PWM_Low_Thresh_WriteCompare(PWM_duty_cycles[LOW_FILT]);
  69              		.loc 1 47 0
  70 0006 084B     		ldr	r3, .L6
  71 0008 1878     		ldrb	r0, [r3]
  72              	.LVL5:
  73 000a FFF7FEFF 		bl	PWM_Low_Thresh_WriteCompare
  74              	.LVL6:
  75 000e 0AE0     		b	.L2
  76              	.LVL7:
  77              	.L3:
  48:PWM.c         ****     }
  49:PWM.c         ****     else if (thresh_index == MID_FILT) {
  78              		.loc 1 49 0
  79 0010 0128     		cmp	r0, #1
  80 0012 04D1     		bne	.L5
  50:PWM.c         ****         PWM_Mid_Thresh_WriteCompare(PWM_duty_cycles[MID_FILT]);
  81              		.loc 1 50 0
  82 0014 044B     		ldr	r3, .L6
  83 0016 5878     		ldrb	r0, [r3, #1]
  84              	.LVL8:
  85 0018 FFF7FEFF 		bl	PWM_Mid_Thresh_WriteCompare
  86              	.LVL9:
  87 001c 03E0     		b	.L2
  88              	.LVL10:
  89              	.L5:
  51:PWM.c         ****     }
  52:PWM.c         ****     else {
  53:PWM.c         ****         PWM_High_Thresh_WriteCompare(PWM_duty_cycles[HIGH_FILT]);
  90              		.loc 1 53 0
  91 001e 024B     		ldr	r3, .L6
  92 0020 9878     		ldrb	r0, [r3, #2]
  93              	.LVL11:
  94 0022 FFF7FEFF 		bl	PWM_High_Thresh_WriteCompare
  95              	.LVL12:
  96              	.L2:
  54:PWM.c         ****     }
  55:PWM.c         **** }
  97              		.loc 1 55 0
  98              		@ sp needed
  99 0026 08BD     		pop	{r3, pc}
 100              	.L7:
 101              		.align	2
 102              	.L6:
 103 0028 00000000 		.word	.LANCHOR0
 104              		.cfi_endproc
 105              	.LFE36:
 106              		.size	set_PWM_duty_cycles, .-set_PWM_duty_cycles
 107              		.global	__aeabi_fsub
 108              		.global	__aeabi_dmul
 109              		.global	__aeabi_ddiv
 110              		.global	__aeabi_d2iz
 111              		.global	__aeabi_i2d
 112              		.global	__aeabi_dcmple
 113              		.global	__aeabi_dcmpgt
 114              		.global	__aeabi_f2d
 115              		.global	__aeabi_dcmplt
 116              		.global	__aeabi_fcmpgt
ARM GAS  C:\Users\Nick\AppData\Local\Temp\ccsYirPU.s 			page 4


 117              		.section	.text.set_PWM_threshold,"ax",%progbits
 118              		.align	2
 119              		.global	set_PWM_threshold
 120              		.code	16
 121              		.thumb_func
 122              		.type	set_PWM_threshold, %function
 123              	set_PWM_threshold:
 124              	.LFB38:
  56:PWM.c         **** 
  57:PWM.c         **** void update_PWM_threshold(float volt_val, int thresh_index) {
  58:PWM.c         ****     
  59:PWM.c         ****     if (volt_val < MAX_VOLTAGE && volt_val > MIN_VOLTAGE) {
  60:PWM.c         ****         voltage_thresholds[thresh_index] = volt_val;
  61:PWM.c         ****     }
  62:PWM.c         ****     else if (volt_val > MAX_VOLTAGE) {
  63:PWM.c         ****         voltage_thresholds[thresh_index] = MAX_VOLTAGE;
  64:PWM.c         ****     }
  65:PWM.c         ****     else {
  66:PWM.c         ****         voltage_thresholds[thresh_index] = MIN_VOLTAGE;
  67:PWM.c         ****     }
  68:PWM.c         ****     
  69:PWM.c         ****     set_PWM_threshold(thresh_index);
  70:PWM.c         **** }
  71:PWM.c         **** 
  72:PWM.c         **** void set_PWM_threshold(int thresh_index) {
 125              		.loc 1 72 0
 126              		.cfi_startproc
 127              	.LVL13:
 128 0000 F8B5     		push	{r3, r4, r5, r6, r7, lr}
 129              		.cfi_def_cfa_offset 24
 130              		.cfi_offset 3, -24
 131              		.cfi_offset 4, -20
 132              		.cfi_offset 5, -16
 133              		.cfi_offset 6, -12
 134              		.cfi_offset 7, -8
 135              		.cfi_offset 14, -4
 136 0002 051C     		mov	r5, r0
  73:PWM.c         ****    
  74:PWM.c         ****     int delta;
  75:PWM.c         ****     int new_duty_cycle;
  76:PWM.c         ****     float current_out = ADC_read(thresh_index);
 137              		.loc 1 76 0
 138 0004 FFF7FEFF 		bl	ADC_read
 139              	.LVL14:
 140 0008 011C     		add	r1, r0, #0
 141              	.LVL15:
  77:PWM.c         ****     float error = voltage_thresholds[thresh_index] - current_out;
 142              		.loc 1 77 0
 143 000a AA00     		lsl	r2, r5, #2
 144 000c 4A4B     		ldr	r3, .L25
 145 000e D058     		ldr	r0, [r2, r3]
 146              	.LVL16:
 147 0010 FFF7FEFF 		bl	__aeabi_fsub
 148              	.LVL17:
 149 0014 041C     		add	r4, r0, #0
 150              	.LVL18:
  78:PWM.c         ****     
ARM GAS  C:\Users\Nick\AppData\Local\Temp\ccsYirPU.s 			page 5


  79:PWM.c         ****     while (error > CONTROLLER_THRESH || error < -CONTROLLER_THRESH) {
 151              		.loc 1 79 0
 152 0016 41E0     		b	.L9
 153              	.LVL19:
 154              	.L15:
  80:PWM.c         ****         
  81:PWM.c         ****         delta = (int)(error*FEEDBACK_GAIN*PWM_PERIOD/MAX_VOLTAGE);
 155              		.loc 1 81 0
 156 0018 301C     		mov	r0, r6
 157 001a 391C     		mov	r1, r7
 158 001c 474A     		ldr	r2, .L25+4
 159 001e 484B     		ldr	r3, .L25+8
 160 0020 FFF7FEFF 		bl	__aeabi_dmul
 161              	.LVL20:
 162 0024 0022     		mov	r2, #0
 163 0026 474B     		ldr	r3, .L25+12
 164 0028 FFF7FEFF 		bl	__aeabi_dmul
 165              	.LVL21:
 166 002c 0022     		mov	r2, #0
 167 002e 464B     		ldr	r3, .L25+16
 168 0030 FFF7FEFF 		bl	__aeabi_ddiv
 169              	.LVL22:
 170 0034 FFF7FEFF 		bl	__aeabi_d2iz
 171              	.LVL23:
  82:PWM.c         ****         new_duty_cycle = PWM_duty_cycles[thresh_index] + delta;
 172              		.loc 1 82 0
 173 0038 444B     		ldr	r3, .L25+20
 174 003a 5C5D     		ldrb	r4, [r3, r5]
 175              	.LVL24:
 176 003c 2418     		add	r4, r4, r0
 177              	.LVL25:
  83:PWM.c         ****     
  84:PWM.c         ****         if (new_duty_cycle <= PWM_PERIOD && new_duty_cycle >= 0) {
 178              		.loc 1 84 0
 179 003e 201C     		mov	r0, r4
 180              	.LVL26:
 181 0040 FFF7FEFF 		bl	__aeabi_i2d
 182              	.LVL27:
 183 0044 061C     		mov	r6, r0
 184 0046 0F1C     		mov	r7, r1
 185 0048 0022     		mov	r2, #0
 186 004a 3E4B     		ldr	r3, .L25+12
 187 004c FFF7FEFF 		bl	__aeabi_dcmple
 188              	.LVL28:
 189 0050 0028     		cmp	r0, #0
 190 0052 04D0     		beq	.L10
 191              		.loc 1 84 0 is_stmt 0 discriminator 1
 192 0054 002C     		cmp	r4, #0
 193 0056 02DB     		blt	.L10
  85:PWM.c         ****             PWM_duty_cycles[thresh_index] = new_duty_cycle;
 194              		.loc 1 85 0 is_stmt 1
 195 0058 3C4B     		ldr	r3, .L25+20
 196 005a 5C55     		strb	r4, [r3, r5]
 197 005c 0EE0     		b	.L12
 198              	.L10:
  86:PWM.c         ****         }
  87:PWM.c         ****         else if (new_duty_cycle > PWM_PERIOD) {
ARM GAS  C:\Users\Nick\AppData\Local\Temp\ccsYirPU.s 			page 6


 199              		.loc 1 87 0
 200 005e 301C     		mov	r0, r6
 201 0060 391C     		mov	r1, r7
 202 0062 0022     		mov	r2, #0
 203 0064 374B     		ldr	r3, .L25+12
 204 0066 FFF7FEFF 		bl	__aeabi_dcmpgt
 205              	.LVL29:
 206 006a 0028     		cmp	r0, #0
 207 006c 03D0     		beq	.L24
  88:PWM.c         ****             PWM_duty_cycles[thresh_index] = 100;
 208              		.loc 1 88 0
 209 006e 6422     		mov	r2, #100
 210 0070 364B     		ldr	r3, .L25+20
 211 0072 5A55     		strb	r2, [r3, r5]
 212 0074 02E0     		b	.L12
 213              	.L24:
  89:PWM.c         ****         }
  90:PWM.c         ****         else {
  91:PWM.c         ****             PWM_duty_cycles[thresh_index] = 0;
 214              		.loc 1 91 0
 215 0076 0022     		mov	r2, #0
 216 0078 344B     		ldr	r3, .L25+20
 217 007a 5A55     		strb	r2, [r3, r5]
 218              	.L12:
  92:PWM.c         ****         }
  93:PWM.c         ****  
  94:PWM.c         ****     
  95:PWM.c         ****         set_PWM_duty_cycles(thresh_index);
 219              		.loc 1 95 0
 220 007c 281C     		mov	r0, r5
 221 007e FFF7FEFF 		bl	set_PWM_duty_cycles
 222              	.LVL30:
  96:PWM.c         ****         CyDelay(100);
 223              		.loc 1 96 0
 224 0082 6420     		mov	r0, #100
 225 0084 FFF7FEFF 		bl	CyDelay
 226              	.LVL31:
  97:PWM.c         ****         
  98:PWM.c         ****         current_out = ADC_read(thresh_index);
 227              		.loc 1 98 0
 228 0088 281C     		mov	r0, r5
 229 008a FFF7FEFF 		bl	ADC_read
 230              	.LVL32:
 231 008e 011C     		add	r1, r0, #0
 232              	.LVL33:
  99:PWM.c         ****         error = voltage_thresholds[thresh_index] - current_out;
 233              		.loc 1 99 0
 234 0090 AB00     		lsl	r3, r5, #2
 235 0092 294A     		ldr	r2, .L25
 236 0094 9858     		ldr	r0, [r3, r2]
 237              	.LVL34:
 238 0096 FFF7FEFF 		bl	__aeabi_fsub
 239              	.LVL35:
 240 009a 041C     		add	r4, r0, #0
 241              	.LVL36:
 242              	.L9:
  79:PWM.c         ****         
ARM GAS  C:\Users\Nick\AppData\Local\Temp\ccsYirPU.s 			page 7


 243              		.loc 1 79 0
 244 009c 201C     		add	r0, r4, #0
 245 009e FFF7FEFF 		bl	__aeabi_f2d
 246              	.LVL37:
 247 00a2 061C     		mov	r6, r0
 248 00a4 0F1C     		mov	r7, r1
 249 00a6 2A4A     		ldr	r2, .L25+24
 250 00a8 2A4B     		ldr	r3, .L25+28
 251 00aa FFF7FEFF 		bl	__aeabi_dcmpgt
 252              	.LVL38:
 253 00ae 0028     		cmp	r0, #0
 254 00b0 B2D1     		bne	.L15
  79:PWM.c         ****         
 255              		.loc 1 79 0 is_stmt 0 discriminator 1
 256 00b2 301C     		mov	r0, r6
 257 00b4 391C     		mov	r1, r7
 258 00b6 264A     		ldr	r2, .L25+24
 259 00b8 274B     		ldr	r3, .L25+32
 260 00ba FFF7FEFF 		bl	__aeabi_dcmplt
 261              	.LVL39:
 262 00be 0028     		cmp	r0, #0
 263 00c0 AAD1     		bne	.L15
 264 00c2 24E0     		b	.L16
 265              	.L20:
 100:PWM.c         ****     }
 101:PWM.c         **** 
 102:PWM.c         ****     
 103:PWM.c         ****     while (error > TOLERANCE || error < -TOLERANCE) {
 104:PWM.c         ****         if (error > 0 && PWM_duty_cycles[thresh_index] < 200 ) {
 266              		.loc 1 104 0 is_stmt 1
 267 00c4 201C     		add	r0, r4, #0
 268 00c6 0021     		mov	r1, #0
 269 00c8 FFF7FEFF 		bl	__aeabi_fcmpgt
 270              	.LVL40:
 271 00cc 0028     		cmp	r0, #0
 272 00ce 07D0     		beq	.L17
 273              		.loc 1 104 0 is_stmt 0 discriminator 1
 274 00d0 1E4B     		ldr	r3, .L25+20
 275 00d2 5B5D     		ldrb	r3, [r3, r5]
 276 00d4 C72B     		cmp	r3, #199
 277 00d6 03D8     		bhi	.L17
 105:PWM.c         ****             PWM_duty_cycles[thresh_index]++;
 278              		.loc 1 105 0 is_stmt 1
 279 00d8 0133     		add	r3, r3, #1
 280 00da 1C4A     		ldr	r2, .L25+20
 281 00dc 5355     		strb	r3, [r2, r5]
 282 00de 06E0     		b	.L19
 283              	.L17:
 106:PWM.c         ****         }
 107:PWM.c         ****         else if (PWM_duty_cycles[thresh_index] > 0) {
 284              		.loc 1 107 0
 285 00e0 1A4B     		ldr	r3, .L25+20
 286 00e2 5B5D     		ldrb	r3, [r3, r5]
 287 00e4 002B     		cmp	r3, #0
 288 00e6 02D0     		beq	.L19
 108:PWM.c         ****             PWM_duty_cycles[thresh_index]--;
 289              		.loc 1 108 0
ARM GAS  C:\Users\Nick\AppData\Local\Temp\ccsYirPU.s 			page 8


 290 00e8 013B     		sub	r3, r3, #1
 291 00ea 184A     		ldr	r2, .L25+20
 292 00ec 5355     		strb	r3, [r2, r5]
 293              	.L19:
 109:PWM.c         ****         }
 110:PWM.c         **** 
 111:PWM.c         ****         set_PWM_duty_cycles(thresh_index);
 294              		.loc 1 111 0
 295 00ee 281C     		mov	r0, r5
 296 00f0 FFF7FEFF 		bl	set_PWM_duty_cycles
 297              	.LVL41:
 112:PWM.c         ****         CyDelay(100);
 298              		.loc 1 112 0
 299 00f4 6420     		mov	r0, #100
 300 00f6 FFF7FEFF 		bl	CyDelay
 301              	.LVL42:
 113:PWM.c         ****         current_out = ADC_read(thresh_index);
 302              		.loc 1 113 0
 303 00fa 281C     		mov	r0, r5
 304 00fc FFF7FEFF 		bl	ADC_read
 305              	.LVL43:
 306 0100 011C     		add	r1, r0, #0
 307              	.LVL44:
 114:PWM.c         ****         error = voltage_thresholds[thresh_index] - current_out;
 308              		.loc 1 114 0
 309 0102 AB00     		lsl	r3, r5, #2
 310 0104 0C4A     		ldr	r2, .L25
 311 0106 9858     		ldr	r0, [r3, r2]
 312              	.LVL45:
 313 0108 FFF7FEFF 		bl	__aeabi_fsub
 314              	.LVL46:
 315 010c 041C     		add	r4, r0, #0
 316              	.LVL47:
 317              	.L16:
 103:PWM.c         ****         if (error > 0 && PWM_duty_cycles[thresh_index] < 200 ) {
 318              		.loc 1 103 0
 319 010e 201C     		add	r0, r4, #0
 320 0110 FFF7FEFF 		bl	__aeabi_f2d
 321              	.LVL48:
 322 0114 061C     		mov	r6, r0
 323 0116 0F1C     		mov	r7, r1
 324 0118 0D4A     		ldr	r2, .L25+24
 325 011a 104B     		ldr	r3, .L25+36
 326 011c FFF7FEFF 		bl	__aeabi_dcmpgt
 327              	.LVL49:
 328 0120 0028     		cmp	r0, #0
 329 0122 CFD1     		bne	.L20
 103:PWM.c         ****         if (error > 0 && PWM_duty_cycles[thresh_index] < 200 ) {
 330              		.loc 1 103 0 is_stmt 0 discriminator 1
 331 0124 301C     		mov	r0, r6
 332 0126 391C     		mov	r1, r7
 333 0128 094A     		ldr	r2, .L25+24
 334 012a 0D4B     		ldr	r3, .L25+40
 335 012c FFF7FEFF 		bl	__aeabi_dcmplt
 336              	.LVL50:
 337 0130 0028     		cmp	r0, #0
 338 0132 C7D1     		bne	.L20
ARM GAS  C:\Users\Nick\AppData\Local\Temp\ccsYirPU.s 			page 9


 115:PWM.c         ****     }
 116:PWM.c         **** 
 117:PWM.c         **** }
 339              		.loc 1 117 0 is_stmt 1
 340              		@ sp needed
 341              	.LVL51:
 342              	.LVL52:
 343 0134 F8BD     		pop	{r3, r4, r5, r6, r7, pc}
 344              	.L26:
 345 0136 C046     		.align	2
 346              	.L25:
 347 0138 00000000 		.word	.LANCHOR1
 348 013c CDCCCCCC 		.word	-858993459
 349 0140 CCCCEC3F 		.word	1072483532
 350 0144 00006940 		.word	1080623104
 351 0148 00001440 		.word	1075052544
 352 014c 00000000 		.word	.LANCHOR0
 353 0150 7B14AE47 		.word	1202590843
 354 0154 E17AB43F 		.word	1068792545
 355 0158 E17AB4BF 		.word	-1078691103
 356 015c E17A943F 		.word	1066695393
 357 0160 E17A94BF 		.word	-1080788255
 358              		.cfi_endproc
 359              	.LFE38:
 360              		.size	set_PWM_threshold, .-set_PWM_threshold
 361              		.global	__aeabi_fcmplt
 362              		.section	.text.update_PWM_threshold,"ax",%progbits
 363              		.align	2
 364              		.global	update_PWM_threshold
 365              		.code	16
 366              		.thumb_func
 367              		.type	update_PWM_threshold, %function
 368              	update_PWM_threshold:
 369              	.LFB37:
  57:PWM.c         ****     
 370              		.loc 1 57 0
 371              		.cfi_startproc
 372              	.LVL53:
 373 0000 38B5     		push	{r3, r4, r5, lr}
 374              		.cfi_def_cfa_offset 16
 375              		.cfi_offset 3, -16
 376              		.cfi_offset 4, -12
 377              		.cfi_offset 5, -8
 378              		.cfi_offset 14, -4
 379 0002 041C     		add	r4, r0, #0
 380 0004 0D1C     		mov	r5, r1
  59:PWM.c         ****         voltage_thresholds[thresh_index] = volt_val;
 381              		.loc 1 59 0
 382 0006 1149     		ldr	r1, .L38
 383              	.LVL54:
 384 0008 FFF7FEFF 		bl	__aeabi_fcmplt
 385              	.LVL55:
 386 000c 0028     		cmp	r0, #0
 387 000e 09D0     		beq	.L28
  59:PWM.c         ****         voltage_thresholds[thresh_index] = volt_val;
 388              		.loc 1 59 0 is_stmt 0 discriminator 1
 389 0010 201C     		add	r0, r4, #0
ARM GAS  C:\Users\Nick\AppData\Local\Temp\ccsYirPU.s 			page 10


 390 0012 0021     		mov	r1, #0
 391 0014 FFF7FEFF 		bl	__aeabi_fcmpgt
 392              	.LVL56:
 393 0018 0028     		cmp	r0, #0
 394 001a 03D0     		beq	.L28
  60:PWM.c         ****     }
 395              		.loc 1 60 0 is_stmt 1
 396 001c AB00     		lsl	r3, r5, #2
 397 001e 0C4A     		ldr	r2, .L38+4
 398 0020 9C50     		str	r4, [r3, r2]
 399 0022 0EE0     		b	.L31
 400              	.L28:
  62:PWM.c         ****         voltage_thresholds[thresh_index] = MAX_VOLTAGE;
 401              		.loc 1 62 0
 402 0024 201C     		add	r0, r4, #0
 403 0026 0949     		ldr	r1, .L38
 404 0028 FFF7FEFF 		bl	__aeabi_fcmpgt
 405              	.LVL57:
 406 002c 0028     		cmp	r0, #0
 407 002e 04D0     		beq	.L37
  63:PWM.c         ****     }
 408              		.loc 1 63 0
 409 0030 AB00     		lsl	r3, r5, #2
 410 0032 0649     		ldr	r1, .L38
 411 0034 064A     		ldr	r2, .L38+4
 412 0036 9950     		str	r1, [r3, r2]
 413 0038 03E0     		b	.L31
 414              	.L37:
  66:PWM.c         ****     }
 415              		.loc 1 66 0
 416 003a AB00     		lsl	r3, r5, #2
 417 003c 0021     		mov	r1, #0
 418 003e 044A     		ldr	r2, .L38+4
 419 0040 9950     		str	r1, [r3, r2]
 420              	.L31:
  69:PWM.c         **** }
 421              		.loc 1 69 0
 422 0042 281C     		mov	r0, r5
 423 0044 FFF7FEFF 		bl	set_PWM_threshold
 424              	.LVL58:
  70:PWM.c         **** 
 425              		.loc 1 70 0
 426              		@ sp needed
 427              	.LVL59:
 428              	.LVL60:
 429 0048 38BD     		pop	{r3, r4, r5, pc}
 430              	.L39:
 431 004a C046     		.align	2
 432              	.L38:
 433 004c 0000A040 		.word	1084227584
 434 0050 00000000 		.word	.LANCHOR1
 435              		.cfi_endproc
 436              	.LFE37:
 437              		.size	update_PWM_threshold, .-update_PWM_threshold
 438              		.data
 439              		.align	2
 440              		.set	.LANCHOR1,. + 0
ARM GAS  C:\Users\Nick\AppData\Local\Temp\ccsYirPU.s 			page 11


 441              		.type	voltage_thresholds, %object
 442              		.size	voltage_thresholds, 12
 443              	voltage_thresholds:
 444 0000 0000C03F 		.word	1069547520
 445 0004 9A99D93F 		.word	1071225242
 446 0008 6666E63F 		.word	1072064102
 447              		.bss
 448              		.align	2
 449              		.set	.LANCHOR0,. + 0
 450              		.type	PWM_duty_cycles, %object
 451              		.size	PWM_duty_cycles, 3
 452              	PWM_duty_cycles:
 453 0000 000000   		.space	3
 454 0003 00       		.text
 455              	.Letext0:
 456              		.file 2 "Generated_Source\\PSoC4/cytypes.h"
 457              		.file 3 "Generated_Source\\PSoC4/PWM_Low_Thresh.h"
 458              		.file 4 "Generated_Source\\PSoC4/PWM_Mid_Thresh.h"
 459              		.file 5 "Generated_Source\\PSoC4/PWM_High_Thresh.h"
 460              		.file 6 "Generated_Source\\PSoC4/Clock_PWM.h"
 461              		.file 7 "adc.h"
 462              		.file 8 "Generated_Source\\PSoC4/CyLib.h"