ARM GAS  C:\Users\rdeiaco\AppData\Local\Temp\ccQTPDHG.s 			page 1


   1              		.cpu cortex-m0
   2              		.fpu softvfp
   3              		.eabi_attribute 20, 1
   4              		.eabi_attribute 21, 1
   5              		.eabi_attribute 23, 3
   6              		.eabi_attribute 24, 1
   7              		.eabi_attribute 25, 1
   8              		.eabi_attribute 26, 1
   9              		.eabi_attribute 30, 1
  10              		.eabi_attribute 34, 0
  11              		.eabi_attribute 18, 4
  12              		.code	16
  13              		.file	"queue.c"
  14              		.text
  15              	.Ltext0:
  16              		.cfi_sections	.debug_frame
  17              		.section	.text.sum,"ax",%progbits
  18              		.align	2
  19              		.global	sum
  20              		.code	16
  21              		.thumb_func
  22              		.type	sum, %function
  23              	sum:
  24              	.LFB35:
  25              		.file 1 "queue.c"
   1:queue.c       **** /* ========================================
   2:queue.c       ****  *
   3:queue.c       ****  * Copyright YOUR COMPANY, THE YEAR
   4:queue.c       ****  * All Rights Reserved
   5:queue.c       ****  * UNPUBLISHED, LICENSED SOFTWARE.
   6:queue.c       ****  *
   7:queue.c       ****  * CONFIDENTIAL AND PROPRIETARY INFORMATION
   8:queue.c       ****  * WHICH IS THE PROPERTY OF your company.
   9:queue.c       ****  *
  10:queue.c       ****  * ========================================
  11:queue.c       **** */
  12:queue.c       **** #include "queue.h"
  13:queue.c       **** 
  14:queue.c       **** int sum(queue_t *queue) {
  26              		.loc 1 14 0
  27              		.cfi_startproc
  28              	.LVL0:
  15:queue.c       ****     int sum = 0;
  16:queue.c       ****     int i;
  17:queue.c       ****     for(i = 0; i < QUEUE_SIZE; i++) {
  29              		.loc 1 17 0
  30 0000 0023     		mov	r3, #0
  15:queue.c       ****     int sum = 0;
  31              		.loc 1 15 0
  32 0002 0022     		mov	r2, #0
  33              		.loc 1 17 0
  34 0004 04E0     		b	.L2
  35              	.LVL1:
  36              	.L3:
  18:queue.c       ****         sum += (int)(queue->data[i]);
  37              		.loc 1 18 0 discriminator 3
  38 0006 C118     		add	r1, r0, r3
ARM GAS  C:\Users\rdeiaco\AppData\Local\Temp\ccQTPDHG.s 			page 2


  39 0008 0979     		ldrb	r1, [r1, #4]
  40 000a 49B2     		sxtb	r1, r1
  41 000c 5218     		add	r2, r2, r1
  42              	.LVL2:
  17:queue.c       ****         sum += (int)(queue->data[i]);
  43              		.loc 1 17 0 discriminator 3
  44 000e 0133     		add	r3, r3, #1
  45              	.LVL3:
  46              	.L2:
  17:queue.c       ****         sum += (int)(queue->data[i]);
  47              		.loc 1 17 0 is_stmt 0 discriminator 1
  48 0010 052B     		cmp	r3, #5
  49 0012 F8DD     		ble	.L3
  19:queue.c       ****     }
  20:queue.c       ****     return sum;
  21:queue.c       **** }
  50              		.loc 1 21 0 is_stmt 1
  51 0014 101C     		mov	r0, r2
  52              	.LVL4:
  53              		@ sp needed
  54 0016 7047     		bx	lr
  55              		.cfi_endproc
  56              	.LFE35:
  57              		.size	sum, .-sum
  58              		.global	__aeabi_idivmod
  59              		.section	.text.push,"ax",%progbits
  60              		.align	2
  61              		.global	push
  62              		.code	16
  63              		.thumb_func
  64              		.type	push, %function
  65              	push:
  66              	.LFB36:
  22:queue.c       **** 
  23:queue.c       **** void push(queue_t *queue, int8 val) {
  67              		.loc 1 23 0
  68              		.cfi_startproc
  69              	.LVL5:
  70 0000 38B5     		push	{r3, r4, r5, lr}
  71              		.cfi_def_cfa_offset 16
  72              		.cfi_offset 3, -16
  73              		.cfi_offset 4, -12
  74              		.cfi_offset 5, -8
  75              		.cfi_offset 14, -4
  76 0002 041C     		mov	r4, r0
  77 0004 0D1C     		mov	r5, r1
  24:queue.c       ****     queue->head = (queue->head + 1) % QUEUE_SIZE;
  78              		.loc 1 24 0
  79 0006 0368     		ldr	r3, [r0]
  80 0008 581C     		add	r0, r3, #1
  81              	.LVL6:
  82 000a 0621     		mov	r1, #6
  83              	.LVL7:
  84 000c FFF7FEFF 		bl	__aeabi_idivmod
  85              	.LVL8:
  86 0010 2160     		str	r1, [r4]
  25:queue.c       ****     queue->data[queue->head] = val;
ARM GAS  C:\Users\rdeiaco\AppData\Local\Temp\ccQTPDHG.s 			page 3


  87              		.loc 1 25 0
  88 0012 6118     		add	r1, r4, r1
  89 0014 0D71     		strb	r5, [r1, #4]
  26:queue.c       **** }
  90              		.loc 1 26 0
  91              		@ sp needed
  92              	.LVL9:
  93 0016 38BD     		pop	{r3, r4, r5, pc}
  94              		.cfi_endproc
  95              	.LFE36:
  96              		.size	push, .-push
  97              		.section	.text.init_queue,"ax",%progbits
  98              		.align	2
  99              		.global	init_queue
 100              		.code	16
 101              		.thumb_func
 102              		.type	init_queue, %function
 103              	init_queue:
 104              	.LFB37:
  27:queue.c       **** 
  28:queue.c       **** void init_queue(queue_t *queue) {
 105              		.loc 1 28 0
 106              		.cfi_startproc
 107              	.LVL10:
  29:queue.c       ****     int i;
  30:queue.c       ****     queue->head = -1;
 108              		.loc 1 30 0
 109 0000 0123     		mov	r3, #1
 110 0002 5B42     		neg	r3, r3
 111 0004 0360     		str	r3, [r0]
 112              	.LVL11:
  31:queue.c       ****     for (i = 0; i < QUEUE_SIZE; i++) {
 113              		.loc 1 31 0
 114 0006 0023     		mov	r3, #0
 115 0008 03E0     		b	.L6
 116              	.LVL12:
 117              	.L7:
  32:queue.c       ****         queue->data[i] = 0;
 118              		.loc 1 32 0 discriminator 3
 119 000a C218     		add	r2, r0, r3
 120 000c 0021     		mov	r1, #0
 121 000e 1171     		strb	r1, [r2, #4]
  31:queue.c       ****     for (i = 0; i < QUEUE_SIZE; i++) {
 122              		.loc 1 31 0 discriminator 3
 123 0010 0133     		add	r3, r3, #1
 124              	.LVL13:
 125              	.L6:
  31:queue.c       ****     for (i = 0; i < QUEUE_SIZE; i++) {
 126              		.loc 1 31 0 is_stmt 0 discriminator 1
 127 0012 052B     		cmp	r3, #5
 128 0014 F9DD     		ble	.L7
  33:queue.c       ****     }
  34:queue.c       **** }
 129              		.loc 1 34 0 is_stmt 1
 130              		@ sp needed
 131 0016 7047     		bx	lr
 132              		.cfi_endproc
ARM GAS  C:\Users\rdeiaco\AppData\Local\Temp\ccQTPDHG.s 			page 4


 133              	.LFE37:
 134              		.size	init_queue, .-init_queue
 135              		.section	.text.peek,"ax",%progbits
 136              		.align	2
 137              		.global	peek
 138              		.code	16
 139              		.thumb_func
 140              		.type	peek, %function
 141              	peek:
 142              	.LFB38:
  35:queue.c       **** 
  36:queue.c       **** int8 peek(queue_t *queue) {
 143              		.loc 1 36 0
 144              		.cfi_startproc
 145              	.LVL14:
  37:queue.c       ****     return queue->data[queue->head];
 146              		.loc 1 37 0
 147 0000 0368     		ldr	r3, [r0]
 148 0002 9C46     		mov	ip, r3
 149 0004 6044     		add	r0, r0, ip
 150              	.LVL15:
 151 0006 0079     		ldrb	r0, [r0, #4]
 152 0008 40B2     		sxtb	r0, r0
  38:queue.c       **** }
 153              		.loc 1 38 0
 154              		@ sp needed
 155 000a 7047     		bx	lr
 156              		.cfi_endproc
 157              	.LFE38:
 158              		.size	peek, .-peek
 159              		.text
 160              	.Letext0:
 161              		.file 2 "queue.h"
 162              		.file 3 "Generated_Source\\PSoC4/cytypes.h"